 ctk

 Timestamp is 566f6975 (Tue Dec 15 09:14:29 2015)

 Preferred load address is 10000000

 Start         Length     Name                   Class
 0001:00000000 0007439bH .text                   CODE
 0001:000743a0 0000e43aH .text$x                 CODE
 0001:000827e0 00000238H .text$yc                CODE
 0001:00082a20 0000016aH .text$yd                CODE
 0002:00000000 00000518H .idata$5                DATA
 0002:00000518 00000004H .CRT$XCA                DATA
 0002:0000051c 00000004H .CRT$XCL                DATA
 0002:00000520 0000003cH .CRT$XCU                DATA
 0002:0000055c 00000004H .CRT$XCZ                DATA
 0002:00000560 00000004H .CRT$XIA                DATA
 0002:00000564 00000004H .CRT$XIAA               DATA
 0002:00000568 00000004H .CRT$XIC                DATA
 0002:0000056c 00000004H .CRT$XIZ                DATA
 0002:00000570 00005030H .rdata                  DATA
 0002:000055a0 00000088H .rdata$debug            DATA
 0002:00005628 00000fe4H .rdata$r                DATA
 0002:00006610 00001158H .rdata$sxdata           DATA
 0002:00007768 00000004H .rtc$IAA                DATA
 0002:0000776c 00000004H .rtc$IZZ                DATA
 0002:00007770 00000004H .rtc$TAA                DATA
 0002:00007774 00000004H .rtc$TZZ                DATA
 0002:00007778 0000e644H .xdata$x                DATA
 0002:00015dbc 00000004H ATL$__a                 DATA
 0002:00015dc0 00000004H ATL$__z                 DATA
 0002:00015dc4 0000008cH .idata$2                DATA
 0002:00015e50 00000014H .idata$3                DATA
 0002:00015e64 00000518H .idata$4                DATA
 0002:0001637c 00003808H .idata$6                DATA
 0002:00019b90 00013a42H .edata                  DATA
 0003:00000000 00000828H .data                   DATA
 0003:00000828 000007ecH .bss                    DATA

  Address         Publics by Value              Rva+Base       Lib:Object

 0000:00000000       __except_list              00000000     <absolute>
 0000:00000456       ___safe_se_handler_count   00000456     <absolute>
 0000:00009876       __fltused                  00009876     <absolute>
 0000:00009876       __ldused                   00009876     <absolute>
 0000:00000000       ___ImageBase               10000000     <linker-defined>
 0001:00000000       ??0Current@ctk@@QAE@XZ     10001000 f   base_current.obj
 0001:00000070       ??0Current@ctk@@QAE@PBDI0@Z 10001070 f   base_current.obj
 0001:000000e0       ??1Current@ctk@@QAE@XZ     100010e0 f   base_current.obj
 0001:00000130       ??MCurrent@ctk@@QBE_NABV01@@Z 10001130 f   base_current.obj
 0001:000001b0       ?prefix@Current@ctk@@QBEABV12@PBD@Z 100011b0 f   base_current.obj
 0001:000001d0       ?prefix@Current@ctk@@QBE?AUistr@2@XZ 100011d0 f   base_current.obj
 0001:000001f0       ?file@Current@ctk@@QBEPBDXZ 100011f0 f   base_current.obj
 0001:00000200       ?line@Current@ctk@@QBEIXZ  10001200 f   base_current.obj
 0001:00000220       ?func@Current@ctk@@QBEPBDXZ 10001220 f   base_current.obj
 0001:00000240       ??6ctk@@YAAAV?$basic_ostream@DU?$char_traits@D@std@@@std@@AAV12@ABVCurrent@0@@Z 10001240 f   base_current.obj
 0001:00000640       ??0CallStack@ctk@@QAE@XZ   10001640 f   base_current.obj
 0001:000006b0       ??1CallStack@ctk@@QAE@XZ   100016b0 f   base_current.obj
 0001:00000710       ?separator@CallStack@ctk@@QBEABV12@PBD@Z 10001710 f   base_current.obj
 0001:00000730       ?separator@CallStack@ctk@@QBE?AUistr@2@XZ 10001730 f   base_current.obj
 0001:00000750       ?container@CallStack@ctk@@QAEAAV?$stack@VCurrent@ctk@@V?$deque@VCurrent@ctk@@V?$allocator@VCurrent@ctk@@@std@@@std@@@2@XZ 10001750 f   base_current.obj
 0001:00000760       ?container@CallStack@ctk@@QBEABV?$stack@VCurrent@ctk@@V?$deque@VCurrent@ctk@@V?$allocator@VCurrent@ctk@@@std@@@std@@@2@XZ 10001760 f   base_current.obj
 0001:00000770       ??6ctk@@YAAAV?$basic_ostream@DU?$char_traits@D@std@@@std@@AAV12@ABVCallStack@0@@Z 10001770 f   base_current.obj
 0001:00000820       ??1?$StringFormatter@$0HG@@ctk@@QAE@XZ 10001820 f i base_current.obj
 0001:00000880       ??0?$stack@VCurrent@ctk@@V?$deque@VCurrent@ctk@@V?$allocator@VCurrent@ctk@@@std@@@std@@@ctk@@QAE@XZ 10001880 f i base_current.obj
 0001:000008d0       ?_Get_c@?$stack@VCurrent@ctk@@V?$deque@VCurrent@ctk@@V?$allocator@VCurrent@ctk@@@std@@@std@@@ctk@@QBEABV?$deque@VCurrent@ctk@@V?$allocator@VCurrent@ctk@@@std@@@std@@XZ 100018d0 f i base_current.obj
 0001:000008e0       ??0?$stack@VCurrent@ctk@@V?$deque@VCurrent@ctk@@V?$allocator@VCurrent@ctk@@@std@@@std@@@std@@QAE@XZ 100018e0 f i base_current.obj
 0001:00000930       ?rbegin@?$deque@VCurrent@ctk@@V?$allocator@VCurrent@ctk@@@std@@@std@@QBE?AV?$reverse_iterator@V?$_Deque_const_iterator@VCurrent@ctk@@V?$allocator@VCurrent@ctk@@@std@@$00@std@@@2@XZ 10001930 f i base_current.obj
 0001:00000960       ?rend@?$deque@VCurrent@ctk@@V?$allocator@VCurrent@ctk@@@std@@@std@@QBE?AV?$reverse_iterator@V?$_Deque_const_iterator@VCurrent@ctk@@V?$allocator@VCurrent@ctk@@@std@@$00@std@@@2@XZ 10001960 f i base_current.obj
 0001:00000990       ??0?$StringFormatter@$0HG@@ctk@@QAE@DK@Z 10001990 f i base_current.obj
 0001:00000a30       ?right@?$StringFormatter@$0HG@@ctk@@QAEAAV12@ABUistr@2@@Z 10001a30 f i base_current.obj
 0001:00000a50       ??B?$StringFormatter@$0HG@@ctk@@QBE?AUistr@1@XZ 10001a50 f i base_current.obj
 0001:00000a80       ??1?$charray@$0HG@@ctk@@QAE@XZ 10001a80 f i base_current.obj
 0001:00000a90       ??E?$reverse_iterator@V?$_Deque_const_iterator@VCurrent@ctk@@V?$allocator@VCurrent@ctk@@@std@@$00@std@@@std@@QAEAAV01@XZ 10001a90 f i base_current.obj
 0001:00000ab0       ??D?$_Revranit@V?$_Deque_const_iterator@VCurrent@ctk@@V?$allocator@VCurrent@ctk@@@std@@$00@std@@U?$iterator@Urandom_access_iterator_tag@std@@VCurrent@ctk@@HPBV34@ABV34@@2@@std@@QBEABVCurrent@ctk@@XZ 10001ab0 f i base_current.obj
 0001:00000ae0       ??0?$deque@VCurrent@ctk@@V?$allocator@VCurrent@ctk@@@std@@@std@@QAE@XZ 10001ae0 f i base_current.obj
 0001:00000b70       ??F?$_Deque_const_iterator@VCurrent@ctk@@V?$allocator@VCurrent@ctk@@@std@@$00@std@@QAEAAV01@XZ 10001b70 f i base_current.obj
 0001:00000be0       ?fill@?$StringFormatter@$0HG@@ctk@@QAEAAV12@DK@Z 10001be0 f i base_current.obj
 0001:00000c10       ??0?$charray@$0HG@@ctk@@QAE@XZ 10001c10 f i base_current.obj
 0001:00000c30       ??B?$charray@$0HG@@ctk@@QAE?AVStringRef@1@XZ 10001c30 f i base_current.obj
 0001:00000cb0       ??0?$reverse_iterator@V?$_Deque_const_iterator@VCurrent@ctk@@V?$allocator@VCurrent@ctk@@@std@@$00@std@@@std@@QAE@V?$_Deque_const_iterator@VCurrent@ctk@@V?$allocator@VCurrent@ctk@@@std@@$00@1@@Z 10001cb0 f i base_current.obj
 0001:00000cd0       ??E?$_Revranit@V?$_Deque_const_iterator@VCurrent@ctk@@V?$allocator@VCurrent@ctk@@@std@@$00@std@@U?$iterator@Urandom_access_iterator_tag@std@@VCurrent@ctk@@HPBV34@ABV34@@2@@std@@QAEAAV01@XZ 10001cd0 f i base_current.obj
 0001:00000cf0       ??0?$allocator@VCurrent@ctk@@@std@@QAE@XZ 10001cf0 f i base_current.obj
 0001:00000d00       ?buffer@?$charray@$0HG@@ctk@@QAEPADXZ 10001d00 f i base_current.obj
 0001:00000d10       ?size@?$charray@$0HG@@ctk@@QBEKXZ 10001d10 f i base_current.obj
 0001:00000d30       ?max_size@?$charray@$0HG@@ctk@@SAKXZ 10001d30 f i base_current.obj
 0001:00000d40       ??0?$_Revranit@V?$_Deque_const_iterator@VCurrent@ctk@@V?$allocator@VCurrent@ctk@@@std@@$00@std@@U?$iterator@Urandom_access_iterator_tag@std@@VCurrent@ctk@@HPBV34@ABV34@@2@@std@@QAE@V?$_Deque_const_iterator@VCurrent@ctk@@V?$allocator@VCurrent@ctk@@@std@@$00@1@@Z 10001d40 f i base_current.obj
 0001:00000d60       ??$?6PBD@ctk@@YAAAVString@0@AAV10@ABQBD@Z 10001d60 f i base_current.obj
 0001:00000d80       ??$?6$$BY01$$CBD@ctk@@YAAAVString@0@AAV10@AAY01$$CBD@Z 10001d80 f i base_current.obj
 0001:00000da0       ??$?6V?$basic_string@_WU?$char_traits@_W@std@@V?$allocator@_W@2@@std@@@ctk@@YAAAVString@0@AAV10@ABV?$basic_string@_WU?$char_traits@_W@std@@V?$allocator@_W@2@@std@@@Z 10001da0 f i base_current.obj
 0001:00000dc0       ??$?6I@ctk@@YAAAVString@0@AAV10@ABI@Z 10001dc0 f i base_current.obj
 0001:00000de0       ??$?6Uistr@ctk@@@ctk@@YAAAVString@0@AAV10@ABUistr@0@@Z 10001de0 f i base_current.obj
 0001:00000e00       ??$?6V?$basic_string@DU?$char_traits@D@std@@V?$allocator@D@2@@std@@@ctk@@YAAAVString@0@AAV10@ABV?$basic_string@DU?$char_traits@D@std@@V?$allocator@D@2@@std@@@Z 10001e00 f i base_current.obj
 0001:00000e20       ??$?9V?$_Deque_const_iterator@VCurrent@ctk@@V?$allocator@VCurrent@ctk@@@std@@$00@std@@V01@@std@@YA_NABV?$reverse_iterator@V?$_Deque_const_iterator@VCurrent@ctk@@V?$allocator@VCurrent@ctk@@@std@@$00@std@@@0@0@Z 10001e20 f i base_current.obj
 0001:00000e40       ??$?YI@String@ctk@@QAEAAV01@ABI@Z 10001e40 f i base_current.obj
 0001:00000f20       ??$?8V?$_Deque_const_iterator@VCurrent@ctk@@V?$allocator@VCurrent@ctk@@@std@@$00@std@@V01@@std@@YA_NABV?$reverse_iterator@V?$_Deque_const_iterator@VCurrent@ctk@@V?$allocator@VCurrent@ctk@@@std@@$00@std@@@0@0@Z 10001f20 f i base_current.obj
 0001:00000f40       ??$_Equal@V?$_Deque_const_iterator@VCurrent@ctk@@V?$allocator@VCurrent@ctk@@@std@@$00@std@@U?$iterator@Urandom_access_iterator_tag@std@@VCurrent@ctk@@HPBV34@ABV34@@2@@?$_Revranit@V?$_Deque_const_iterator@VCurrent@ctk@@V?$allocator@VCurrent@ctk@@@std@@$00@std@@U?$iterator@Urandom_access_iterator_tag@std@@VCurrent@ctk@@HPBV34@ABV34@@2@@std@@QBE_NABV01@@Z 10001f40 f i base_current.obj
 0001:00000f70       ?base@?$_Revranit@V?$_Deque_const_iterator@VCurrent@ctk@@V?$allocator@VCurrent@ctk@@@std@@$00@std@@U?$iterator@Urandom_access_iterator_tag@std@@VCurrent@ctk@@HPBV34@ABV34@@2@@std@@QBE?AV?$_Deque_const_iterator@VCurrent@ctk@@V?$allocator@VCurrent@ctk@@@std@@$00@2@XZ 10001f70 f i base_current.obj
 0001:00000f90       ?_Getmycont@_Iterator_base_aux@std@@QBEPBV_Container_base_aux@2@XZ 10001f90 f i base_current.obj
 0001:00000fc0       ?_Getcont@_Aux_cont@std@@QBEPBV_Container_base_aux@2@XZ 10001fc0 f i base_current.obj
 0001:00000fd0       ?_Has_container@_Iterator_base_aux@std@@QBE_NXZ 10001fd0 f i base_current.obj
 0001:00000ff0       ?empty@istr@ctk@@QBE_NXZ   10001ff0 f i base_current.obj
 0001:00001030       ?data@istr@ctk@@QBEPBDXZ   10002030 f i base_current.obj
 0001:00001050       ?size@istr@ctk@@QBEKXZ     10002050 f i base_current.obj
 0001:00001060       ??1?$stack@VCurrent@ctk@@V?$deque@VCurrent@ctk@@V?$allocator@VCurrent@ctk@@@std@@@std@@@ctk@@QAE@XZ 10002060 f i base_current.obj
 0001:000010b0       ??1?$stack@VCurrent@ctk@@V?$deque@VCurrent@ctk@@V?$allocator@VCurrent@ctk@@@std@@@std@@@std@@QAE@XZ 100020b0 f i base_current.obj
 0001:00001100       ?size@String@ctk@@QBEKXZ   10002100 f i base_current.obj
 0001:00001120       ??1String@ctk@@QAE@XZ      10002120 f i base_current.obj
 0001:00001170       ??6ctk@@YAAAV?$basic_ostream@DU?$char_traits@D@std@@@std@@AAV12@ABVString@0@@Z 10002170 f i base_current.obj
 0001:000011a0       ?StrLen@ctk@@YAKPBDK@Z     100021a0 f i base_current.obj
 0001:000011e0       ??0StringRef@ctk@@QAE@ABV01@@Z 100021e0 f i base_current.obj
 0001:00001220       ??0StringRef@ctk@@QAE@PADKK@Z 10002220 f i base_current.obj
 0001:00001250       ??1StringRef@ctk@@QAE@XZ   10002250 f i base_current.obj
 0001:00001260       ??BStringRef@ctk@@QBE?AUistr@1@XZ 10002260 f i base_current.obj
 0001:00001290       ?data@StringRef@ctk@@QBEPBEXZ 10002290 f i base_current.obj
 0001:000012a0       ?size@StringRef@ctk@@QBEKXZ 100022a0 f i base_current.obj
 0001:000012c0       ??1?$deque@VCurrent@ctk@@V?$allocator@VCurrent@ctk@@@std@@@std@@QAE@XZ 100022c0 f i base_current.obj
 0001:00001320       ??1?$_Deque_val@VCurrent@ctk@@V?$allocator@VCurrent@ctk@@@std@@@std@@QAE@XZ 10002320 f i base_current.obj
 0001:00001370       ??1?$_Deque_map@VCurrent@ctk@@V?$allocator@VCurrent@ctk@@@std@@@std@@QAE@XZ 10002370 f i base_current.obj
 0001:000013c0       ?begin@?$deque@VCurrent@ctk@@V?$allocator@VCurrent@ctk@@@std@@@std@@QBE?AV?$_Deque_const_iterator@VCurrent@ctk@@V?$allocator@VCurrent@ctk@@@std@@$00@2@XZ 100023c0 f i base_current.obj
 0001:000013f0       ?end@?$deque@VCurrent@ctk@@V?$allocator@VCurrent@ctk@@@std@@@std@@QBE?AV?$_Deque_const_iterator@VCurrent@ctk@@V?$allocator@VCurrent@ctk@@@std@@$00@2@XZ 100023f0 f i base_current.obj
 0001:00001420       ?_Tidy@?$deque@VCurrent@ctk@@V?$allocator@VCurrent@ctk@@@std@@@std@@IAEXXZ 10002420 f i base_current.obj
 0001:000014e0       ??0?$_Deque_val@VCurrent@ctk@@V?$allocator@VCurrent@ctk@@@std@@@std@@IAE@V?$allocator@VCurrent@ctk@@@1@@Z 100024e0 f i base_current.obj
 0001:00001550       ??1?$_Container_base_aux_alloc_real@V?$allocator@VCurrent@ctk@@@std@@@std@@IAE@XZ 10002550 f i base_current.obj
 0001:000015b0       ??1_Container_base_aux@std@@QAE@XZ 100025b0 f i base_current.obj
 0001:000015c0       ??0?$allocator@VCurrent@ctk@@@std@@QAE@ABV01@@Z 100025c0 f i base_current.obj
 0001:000015d0       ?empty@?$deque@VCurrent@ctk@@V?$allocator@VCurrent@ctk@@@std@@@std@@QBE_NXZ 100025d0 f i base_current.obj
 0001:000015f0       ?pop_back@?$deque@VCurrent@ctk@@V?$allocator@VCurrent@ctk@@@std@@@std@@QAEXXZ 100025f0 f i base_current.obj
 0001:00001690       ??0?$_Deque_map@VCurrent@ctk@@V?$allocator@VCurrent@ctk@@@std@@@std@@IAE@V?$allocator@VCurrent@ctk@@@1@@Z 10002690 f i base_current.obj
 0001:00001700       ?deallocate@?$allocator@VCurrent@ctk@@@std@@QAEXPAVCurrent@ctk@@I@Z 10002700 f i base_current.obj
 0001:00001720       ?deallocate@?$allocator@V_Aux_cont@std@@@std@@QAEXPAV_Aux_cont@2@I@Z 10002720 f i base_current.obj
 0001:00001740       ?deallocate@?$allocator@PAVCurrent@ctk@@@std@@QAEXPAPAVCurrent@ctk@@I@Z 10002740 f i base_current.obj
 0001:00001760       ?destroy@?$allocator@PAVCurrent@ctk@@@std@@QAEXPAPAVCurrent@ctk@@@Z 10002760 f i base_current.obj
 0001:00001780       ??0?$_Deque_const_iterator@VCurrent@ctk@@V?$allocator@VCurrent@ctk@@@std@@$00@std@@QAE@IPBV_Container_base_aux@1@@Z 10002780 f i base_current.obj
 0001:000017f0       ?_Set_container@_Iterator_base_aux@std@@QAEXQBV_Container_base_aux@2@@Z 100027f0 f i base_current.obj
 0001:00001810       ??0?$_Ranit@VCurrent@ctk@@HPBV12@ABV12@@std@@QAE@XZ 10002810 f i base_current.obj
 0001:00001830       ??0?$_Iterator_with_base@Urandom_access_iterator_tag@std@@VCurrent@ctk@@HPBV34@ABV34@V_Iterator_base_aux@2@@std@@QAE@XZ 10002830 f i base_current.obj
 0001:00001850       ??0_Iterator_base_aux@std@@QAE@XZ 10002850 f i base_current.obj
 0001:00001870       ??0?$_Container_base_aux_alloc_real@V?$allocator@VCurrent@ctk@@@std@@@std@@IAE@V?$allocator@VCurrent@ctk@@@1@@Z 10002870 f i base_current.obj
 0001:00001930       ??2@YAPAXIPAX@Z            10002930 f i base_current.obj
 0001:00001940       ??3@YAXPAX0@Z              10002940 f i base_current.obj
 0001:00001950       ??0_Aux_cont@std@@QAE@QBV_Container_base_aux@1@@Z 10002950 f i base_current.obj
 0001:00001970       ??0_Container_base_aux@std@@QAE@XZ 10002970 f i base_current.obj
 0001:00001980       ?destroy@?$allocator@VCurrent@ctk@@@std@@QAEXPAVCurrent@ctk@@@Z 10002980 f i base_current.obj
 0001:000019a0       ?allocate@?$allocator@V_Aux_cont@std@@@std@@QAEPAV_Aux_cont@2@I@Z 100029a0 f i base_current.obj
 0001:000019c0       ??$?6VString@ctk@@@ctk@@YAAAVString@0@AAV10@ABV10@@Z 100029c0 f i base_current.obj
 0001:000019e0       ??$?0VCurrent@ctk@@@?$allocator@PAVCurrent@ctk@@@std@@QAE@ABV?$allocator@VCurrent@ctk@@@1@@Z 100029e0 f i base_current.obj
 0001:000019f0       ??$_Destroy@PAVCurrent@ctk@@@std@@YAXPAPAVCurrent@ctk@@@Z 100029f0 f i base_current.obj
 0001:00001a00       ??$?0VCurrent@ctk@@@?$allocator@V_Aux_cont@std@@@std@@QAE@ABV?$allocator@VCurrent@ctk@@@1@@Z 10002a00 f i base_current.obj
 0001:00001a10       ??$_Destroy@VCurrent@ctk@@@std@@YAXPAVCurrent@ctk@@@Z 10002a10 f i base_current.obj
 0001:00001a20       ??$_Allocate@V_Aux_cont@std@@@std@@YAPAV_Aux_cont@0@IPAV10@@Z 10002a20 f i base_current.obj
 0001:00001a70       ??0bad_alloc@std@@QAE@PBD@Z 10002a70 f i base_current.obj
 0001:00001ad0       ??1bad_alloc@std@@UAE@XZ   10002ad0 f i base_current.obj
 0001:00001b30       ??_Gbad_alloc@std@@UAEPAXI@Z 10002b30 f i base_current.obj
 0001:00001b30       ??_Ebad_alloc@std@@UAEPAXI@Z 10002b30 f i base_current.obj
 0001:00001b60       ??0bad_alloc@std@@QAE@ABV01@@Z 10002b60 f i base_current.obj
 0001:00001bc0       ??_GCurrent@ctk@@QAEPAXI@Z 10002bc0 f i base_current.obj
 0001:00001bf0       ??D?$_Deque_const_iterator@VCurrent@ctk@@V?$allocator@VCurrent@ctk@@@std@@$00@std@@QBEABVCurrent@ctk@@XZ 10002bf0 f i base_current.obj
 0001:00001ca0       ??8?$_Deque_const_iterator@VCurrent@ctk@@V?$allocator@VCurrent@ctk@@@std@@$00@std@@QBE_NABV01@@Z 10002ca0 f i base_current.obj
 0001:00001d00       ?_Same_container@_Iterator_base_aux@std@@QBE_NABV12@@Z 10002d00 f i base_current.obj
 0001:00001d20       ??0Bit@ctk@@QAE@XZ         10002d20 f i base_func.obj
 0001:00001d40       ??0Bit@ctk@@QAE@_N@Z       10002d40 f i base_func.obj
 0001:00001d60       ??0Bit@ctk@@QAE@ABVString@1@@Z 10002d60 f i base_func.obj
 0001:00001d80       ?fromString@Bit@ctk@@QAEAAV12@ABVString@2@@Z 10002d80 f i base_func.obj
 0001:00001dc0       ?toString@Bit@ctk@@QBE?AVString@2@XZ 10002dc0 f i base_func.obj
 0001:00001e60       ??4Bit@ctk@@QAEAAV01@_N@Z  10002e60 f i base_func.obj
 0001:00001e80       ??BBit@ctk@@QAEAA_NXZ      10002e80 f i base_func.obj
 0001:00001e90       ??BBit@ctk@@QBE_NXZ        10002e90 f i base_func.obj
 0001:00001ea0       ?value@Bit@ctk@@QAEAA_NXZ  10002ea0 f i base_func.obj
 0001:00001eb0       ?value@Bit@ctk@@QBE_NXZ    10002eb0 f i base_func.obj
 0001:00001ec0       ?dump@Bit@ctk@@QBEAAV?$basic_ostream@DU?$char_traits@D@std@@@std@@AAV34@@Z 10002ec0 f i base_func.obj
 0001:00001f00       ??4Bit@ctk@@QAEAAV01@ABV01@@Z 10002f00 f i base_func.obj
 0001:00001f20       ??0Wchar@ctk@@QAE@XZ       10002f20 f i base_func.obj
 0001:00001f40       ??0Wchar@ctk@@QAE@_W@Z     10002f40 f i base_func.obj
 0001:00001f60       ??0Wchar@ctk@@QAE@ABVString@1@@Z 10002f60 f i base_func.obj
 0001:00001f80       ?fromString@Wchar@ctk@@QAEAAV12@ABVString@2@@Z 10002f80 f i base_func.obj
 0001:00001fc0       ?toString@Wchar@ctk@@QBE?AVString@2@XZ 10002fc0 f i base_func.obj
 0001:00002060       ??4Wchar@ctk@@QAEAAV01@_W@Z 10003060 f i base_func.obj
 0001:00002080       ??BWchar@ctk@@QAEAA_WXZ    10003080 f i base_func.obj
 0001:00002090       ??BWchar@ctk@@QBE_WXZ      10003090 f i base_func.obj
 0001:000020b0       ?value@Wchar@ctk@@QAEAA_WXZ 100030b0 f i base_func.obj
 0001:000020c0       ?value@Wchar@ctk@@QBE_WXZ  100030c0 f i base_func.obj
 0001:000020e0       ??4Wchar@ctk@@QAEAAV01@ABV01@@Z 100030e0 f i base_func.obj
 0001:00002100       ??0Short@ctk@@QAE@XZ       10003100 f i base_func.obj
 0001:00002120       ??0Short@ctk@@QAE@F@Z      10003120 f i base_func.obj
 0001:00002140       ??0Short@ctk@@QAE@EE@Z     10003140 f i base_func.obj
 0001:00002180       ??0Short@ctk@@QAE@ABVString@1@@Z 10003180 f i base_func.obj
 0001:000021a0       ?fromString@Short@ctk@@QAEAAV12@ABVString@2@@Z 100031a0 f i base_func.obj
 0001:000021c0       ?toString@Short@ctk@@QBE?AVString@2@XZ 100031c0 f i base_func.obj
 0001:00002250       ??4Short@ctk@@QAEAAV01@F@Z 10003250 f i base_func.obj
 0001:00002270       ??GShort@ctk@@QBE?AV01@XZ  10003270 f i base_func.obj
 0001:000022a0       ??BShort@ctk@@QAEAAFXZ     100032a0 f i base_func.obj
 0001:000022b0       ??BShort@ctk@@QBEFXZ       100032b0 f i base_func.obj
 0001:000022d0       ?value@Short@ctk@@QAEAAFXZ 100032d0 f i base_func.obj
 0001:000022e0       ?value@Short@ctk@@QBEFXZ   100032e0 f i base_func.obj
 0001:00002300       ?low@Short@ctk@@QAEAAV12@E@Z 10003300 f i base_func.obj
 0001:00002340       ?high@Short@ctk@@QAEAAV12@E@Z 10003340 f i base_func.obj
 0001:00002380       ?low@Short@ctk@@QBEEXZ     10003380 f i base_func.obj
 0001:000023a0       ?high@Short@ctk@@QBEEXZ    100033a0 f i base_func.obj
 0001:000023c0       ?dump@Short@ctk@@QBEAAV?$basic_ostream@DU?$char_traits@D@std@@@std@@AAV34@@Z 100033c0 f i base_func.obj
 0001:00002400       ??4Short@ctk@@QAEAAV01@ABV01@@Z 10003400 f i base_func.obj
 0001:00002420       ??0Ushort@ctk@@QAE@XZ      10003420 f i base_func.obj
 0001:00002440       ??0Ushort@ctk@@QAE@G@Z     10003440 f i base_func.obj
 0001:00002460       ??0Ushort@ctk@@QAE@EE@Z    10003460 f i base_func.obj
 0001:000024a0       ??0Ushort@ctk@@QAE@ABVString@1@@Z 100034a0 f i base_func.obj
 0001:000024c0       ?fromString@Ushort@ctk@@QAEAAV12@ABVString@2@@Z 100034c0 f i base_func.obj
 0001:000024e0       ?toString@Ushort@ctk@@QBE?AVString@2@XZ 100034e0 f i base_func.obj
 0001:00002570       ??4Ushort@ctk@@QAEAAV01@G@Z 10003570 f i base_func.obj
 0001:00002590       ??BUshort@ctk@@QAEAAGXZ    10003590 f i base_func.obj
 0001:000025a0       ??BUshort@ctk@@QBEGXZ      100035a0 f i base_func.obj
 0001:000025c0       ?value@Ushort@ctk@@QAEAAGXZ 100035c0 f i base_func.obj
 0001:000025d0       ?value@Ushort@ctk@@QBEGXZ  100035d0 f i base_func.obj
 0001:000025f0       ?low@Ushort@ctk@@QAEAAV12@E@Z 100035f0 f i base_func.obj
 0001:00002630       ?high@Ushort@ctk@@QAEAAV12@E@Z 10003630 f i base_func.obj
 0001:00002670       ?low@Ushort@ctk@@QBEEXZ    10003670 f i base_func.obj
 0001:00002690       ?high@Ushort@ctk@@QBEEXZ   10003690 f i base_func.obj
 0001:000026b0       ?dump@Ushort@ctk@@QBEAAV?$basic_ostream@DU?$char_traits@D@std@@@std@@AAV34@@Z 100036b0 f i base_func.obj
 0001:000026f0       ??4Ushort@ctk@@QAEAAV01@ABV01@@Z 100036f0 f i base_func.obj
 0001:00002710       ??0Long@ctk@@QAE@XZ        10003710 f i base_func.obj
 0001:00002730       ??0Long@ctk@@QAE@J@Z       10003730 f i base_func.obj
 0001:00002750       ??0Long@ctk@@QAE@GG@Z      10003750 f i base_func.obj
 0001:00002780       ??0Long@ctk@@QAE@ABVString@1@@Z 10003780 f i base_func.obj
 0001:000027a0       ?fromString@Long@ctk@@QAEAAV12@ABVString@2@@Z 100037a0 f i base_func.obj
 0001:000027c0       ?toString@Long@ctk@@QBE?AVString@2@XZ 100037c0 f i base_func.obj
 0001:00002850       ??4Long@ctk@@QAEAAV01@J@Z  10003850 f i base_func.obj
 0001:00002870       ??GLong@ctk@@QBE?AV01@XZ   10003870 f i base_func.obj
 0001:00002890       ??BLong@ctk@@QAEAAJXZ      10003890 f i base_func.obj
 0001:000028a0       ??BLong@ctk@@QBEJXZ        100038a0 f i base_func.obj
 0001:000028b0       ?value@Long@ctk@@QAEAAJXZ  100038b0 f i base_func.obj
 0001:000028c0       ?value@Long@ctk@@QBEJXZ    100038c0 f i base_func.obj
 0001:000028d0       ?low@Long@ctk@@QAEAAV12@G@Z 100038d0 f i base_func.obj
 0001:00002910       ?high@Long@ctk@@QAEAAV12@G@Z 10003910 f i base_func.obj
 0001:00002950       ?low@Long@ctk@@QBEGXZ      10003950 f i base_func.obj
 0001:00002970       ?high@Long@ctk@@QBEGXZ     10003970 f i base_func.obj
 0001:00002990       ?dump@Long@ctk@@QBEAAV?$basic_ostream@DU?$char_traits@D@std@@@std@@AAV34@@Z 10003990 f i base_func.obj
 0001:000029d0       ??4Long@ctk@@QAEAAV01@ABV01@@Z 100039d0 f i base_func.obj
 0001:000029f0       ??0Ulong@ctk@@QAE@XZ       100039f0 f i base_func.obj
 0001:00002a10       ??0Ulong@ctk@@QAE@K@Z      10003a10 f i base_func.obj
 0001:00002a30       ??0Ulong@ctk@@QAE@GG@Z     10003a30 f i base_func.obj
 0001:00002a60       ??0Ulong@ctk@@QAE@ABVString@1@@Z 10003a60 f i base_func.obj
 0001:00002a80       ?fromString@Ulong@ctk@@QAEAAV12@ABVString@2@@Z 10003a80 f i base_func.obj
 0001:00002aa0       ?toString@Ulong@ctk@@QBE?AVString@2@XZ 10003aa0 f i base_func.obj
 0001:00002b30       ??4Ulong@ctk@@QAEAAV01@K@Z 10003b30 f i base_func.obj
 0001:00002b50       ??BUlong@ctk@@QAEAAKXZ     10003b50 f i base_func.obj
 0001:00002b60       ??BUlong@ctk@@QBEKXZ       10003b60 f i base_func.obj
 0001:00002b70       ?value@Ulong@ctk@@QAEAAKXZ 10003b70 f i base_func.obj
 0001:00002b80       ?value@Ulong@ctk@@QBEKXZ   10003b80 f i base_func.obj
 0001:00002b90       ?low@Ulong@ctk@@QAEAAV12@G@Z 10003b90 f i base_func.obj
 0001:00002bd0       ?high@Ulong@ctk@@QAEAAV12@G@Z 10003bd0 f i base_func.obj
 0001:00002c10       ?low@Ulong@ctk@@QBEGXZ     10003c10 f i base_func.obj
 0001:00002c30       ?high@Ulong@ctk@@QBEGXZ    10003c30 f i base_func.obj
 0001:00002c50       ?dump@Ulong@ctk@@QBEAAV?$basic_ostream@DU?$char_traits@D@std@@@std@@AAV34@@Z 10003c50 f i base_func.obj
 0001:00002c90       ??4Ulong@ctk@@QAEAAV01@ABV01@@Z 10003c90 f i base_func.obj
 0001:00002cb0       ??0Longlong@ctk@@QAE@XZ    10003cb0 f i base_func.obj
 0001:00002cd0       ??0Longlong@ctk@@QAE@_J@Z  10003cd0 f i base_func.obj
 0001:00002cf0       ??0Longlong@ctk@@QAE@KK@Z  10003cf0 f i base_func.obj
 0001:00002d30       ??0Longlong@ctk@@QAE@ABVString@1@@Z 10003d30 f i base_func.obj
 0001:00002d50       ?fromString@Longlong@ctk@@QAEAAV12@ABVString@2@@Z 10003d50 f i base_func.obj
 0001:00002d70       ?toString@Longlong@ctk@@QBE?AVString@2@XZ 10003d70 f i base_func.obj
 0001:00002e00       ??4Longlong@ctk@@QAEAAV01@_J@Z 10003e00 f i base_func.obj
 0001:00002e20       ??GLonglong@ctk@@QBE?AV01@XZ 10003e20 f i base_func.obj
 0001:00002e50       ??BLonglong@ctk@@QAEAA_JXZ 10003e50 f i base_func.obj
 0001:00002e60       ??BLonglong@ctk@@QBE_JXZ   10003e60 f i base_func.obj
 0001:00002e80       ?value@Longlong@ctk@@QAEAA_JXZ 10003e80 f i base_func.obj
 0001:00002e90       ?value@Longlong@ctk@@QBE_JXZ 10003e90 f i base_func.obj
 0001:00002eb0       ?low@Longlong@ctk@@QAEAAV12@K@Z 10003eb0 f i base_func.obj
 0001:00002ef0       ?high@Longlong@ctk@@QAEAAV12@K@Z 10003ef0 f i base_func.obj
 0001:00002f40       ?low@Longlong@ctk@@QBEKXZ  10003f40 f i base_func.obj
 0001:00002f60       ?high@Longlong@ctk@@QBEKXZ 10003f60 f i base_func.obj
 0001:00002f80       ?dump@Longlong@ctk@@QBEAAV?$basic_ostream@DU?$char_traits@D@std@@@std@@AAV34@@Z 10003f80 f i base_func.obj
 0001:00002fc0       ??4Longlong@ctk@@QAEAAV01@ABV01@@Z 10003fc0 f i base_func.obj
 0001:00002fe0       ??1DecodeException@pml@ctk@@UAE@XZ 10003fe0 f i base_func.obj
 0001:00003030       ??0DecodeException@pml@ctk@@QAE@ABU012@@Z 10004030 f i base_func.obj
 0001:00003090       ??4DecodeException@pml@ctk@@QAEAAU012@ABU012@@Z 10004090 f i base_func.obj
 0001:000030b0       ??_GDecodeException@pml@ctk@@UAEPAXI@Z 100040b0 f i base_func.obj
 0001:000030e0       ??_EDecodeException@pml@ctk@@UAEPAXI@Z 100040e0 f i base_func.obj
 0001:00003150       ??1File@pml@ctk@@QAE@XZ    10004150 f i base_func.obj
 0001:000031a0       ??0File@pml@ctk@@QAE@ABU012@@Z 100041a0 f i base_func.obj
 0001:00003200       ??4File@pml@ctk@@QAEAAU012@ABU012@@Z 10004200 f i base_func.obj
 0001:00003220       ??0ShowPattern@pml@ctk@@QAE@H@Z 10004220 f i base_func.obj
 0001:00003240       ??4ShowPattern@pml@ctk@@QAEAAV012@H@Z 10004240 f i base_func.obj
 0001:00003260       ?reset@ShowPattern@pml@ctk@@QAEAAV123@H@Z 10004260 f i base_func.obj
 0001:00003280       ?show_name@ShowPattern@pml@ctk@@QAEAAV123@_N@Z 10004280 f i base_func.obj
 0001:000032c0       ?show_type@ShowPattern@pml@ctk@@QAEAAV123@_N@Z 100042c0 f i base_func.obj
 0001:00003300       ?show_value@ShowPattern@pml@ctk@@QAEAAV123@_N@Z 10004300 f i base_func.obj
 0001:00003340       ?show_path@ShowPattern@pml@ctk@@QAEAAV123@_N@Z 10004340 f i base_func.obj
 0001:00003380       ?show_name@ShowPattern@pml@ctk@@QBE_NXZ 10004380 f i base_func.obj
 0001:000033a0       ?show_type@ShowPattern@pml@ctk@@QBE_NXZ 100043a0 f i base_func.obj
 0001:000033c0       ?show_value@ShowPattern@pml@ctk@@QBE_NXZ 100043c0 f i base_func.obj
 0001:000033e0       ?show_path@ShowPattern@pml@ctk@@QBE_NXZ 100043e0 f i base_func.obj
 0001:00003400       ?data@ShowPattern@pml@ctk@@QBEHXZ 10004400 f i base_func.obj
 0001:00003410       ??4ShowPattern@pml@ctk@@QAEAAV012@ABV012@@Z 10004410 f i base_func.obj
 0001:00003430       ??_FShowPattern@pml@ctk@@QAEXXZ 10004430 f i base_func.obj
 0001:00003450       ??0ShowMode@pml@ctk@@QAE@H@Z 10004450 f i base_func.obj
 0001:00003470       ??4ShowMode@pml@ctk@@QAEAAV012@H@Z 10004470 f i base_func.obj
 0001:00003490       ??8ShowMode@pml@ctk@@QBE_NH@Z 10004490 f i base_func.obj
 0001:000034b0       ?set@ShowMode@pml@ctk@@QAEAAV123@H@Z 100044b0 f i base_func.obj
 0001:000034d0       ?get@ShowMode@pml@ctk@@QBEHXZ 100044d0 f i base_func.obj
 0001:000034e0       ??4ShowMode@pml@ctk@@QAEAAV012@ABV012@@Z 100044e0 f i base_func.obj
 0001:00003500       ??_FShowMode@pml@ctk@@QAEXXZ 10004500 f i base_func.obj
 0001:00003520       ??_FValueBase@ntv@pml@ctk@@QAEXXZ 10004520 f i base_func.obj
 0001:00003540       ?allNesessary@Unit@ntv@pml@ctk@@QBE_NXZ 10004540 f i base_func.obj
 0001:00003560       ?allNesessary@Unit@ntv@pml@ctk@@QAEAAV1234@_N@Z 10004560 f i base_func.obj
 0001:00003580       ??_FUnit@ntv@pml@ctk@@QAEXXZ 10004580 f i base_func.obj
 0001:000035a0       ?isOutputStream@stream@pml@ctk@@QBE_NXZ 100045a0 f i base_func.obj
 0001:000035c0       ?isInputStream@stream@pml@ctk@@QBE_NXZ 100045c0 f i base_func.obj
 0001:000035e0       ?name@stream@pml@ctk@@QAEAAV123@ABUistr@3@@Z 100045e0 f i base_func.obj
 0001:00003610       ?type@stream@pml@ctk@@QAEAAV123@ABUistr@3@@Z 10004610 f i base_func.obj
 0001:00003640       ?value@stream@pml@ctk@@QAEAAV123@ABUistr@3@@Z 10004640 f i base_func.obj
 0001:00003670       ?name@stream@pml@ctk@@QBEABVString@3@XZ 10004670 f i base_func.obj
 0001:00003690       ?type@stream@pml@ctk@@QBEABVString@3@XZ 10004690 f i base_func.obj
 0001:000036b0       ?clear@stream@pml@ctk@@QAEAAV123@XZ 100046b0 f i base_func.obj
 0001:000036d0       ?allNesessary@stream@pml@ctk@@QBE_NXZ 100046d0 f i base_func.obj
 0001:000036f0       ?allNesessary@stream@pml@ctk@@QAEX_N@Z 100046f0 f i base_func.obj
 0001:00003710       ??1stream@pml@ctk@@QAE@XZ  10004710 f i base_func.obj
 0001:00003760       ??0stream@pml@ctk@@QAE@ABV012@@Z 10004760 f i base_func.obj
 0001:000037d0       ??4stream@pml@ctk@@QAEAAV012@ABV012@@Z 100047d0 f i base_func.obj
 0001:00003810       ??1ConfigFile@ctk@@QAE@XZ  10004810 f i base_func.obj
 0001:00003880       ??0ConfigFile@ctk@@QAE@ABV01@@Z 10004880 f i base_func.obj
 0001:00003930       ??0Mutex@ctk@@QAE@XZ       10004930 f i base_func.obj
 0001:00003990       ??1Mutex@ctk@@QAE@XZ       10004990 f i base_func.obj
 0001:000039e0       ?lock@Mutex@ctk@@QBEXXZ    100049e0 f i base_func.obj
 0001:00003a00       ?tryLock@Mutex@ctk@@QBE_NXZ 10004a00 f i base_func.obj
 0001:00003a30       ?unlock@Mutex@ctk@@QBEXXZ  10004a30 f i base_func.obj
 0001:00003a50       ?willUnlock@Mutex@ctk@@QBE_NXZ 10004a50 f i base_func.obj
 0001:00003a60       ?impl@Mutex@ctk@@QBEAAVACE_Thread_Mutex@@XZ 10004a60 f i base_func.obj
 0001:00003a70       ??0ThreadId@ctk@@QAE@I@Z   10004a70 f i base_func.obj
 0001:00003a90       ??BThreadId@ctk@@QBEIXZ    10004a90 f i base_func.obj
 0001:00003aa0       ??4ThreadId@ctk@@QAEAAU01@ABU01@@Z 10004aa0 f i base_func.obj
 0001:00003ac0       ??_FThreadId@ctk@@QAEXXZ   10004ac0 f i base_func.obj
 0001:00003ae0       ??1ThreadControl@ctk@@QAE@XZ 10004ae0 f i base_func.obj
 0001:00003b40       ??0ThreadOwner@ctk@@QAE@ABV01@@Z 10004b40 f i base_func.obj
 0001:00003bb0       ??4ThreadOwner@ctk@@QAEAAV01@ABV01@@Z 10004bb0 f i base_func.obj
 0001:00003be0       ??_FThreadOwner@ctk@@QAEXXZ 10004be0 f i base_func.obj
 0001:00003c00       ??_GThreadOwner@ctk@@UAEPAXI@Z 10004c00 f i base_func.obj
 0001:00003c30       ??_EThreadOwner@ctk@@UAEPAXI@Z 10004c30 f i base_func.obj
 0001:00003ca0       ??0ThreadInfo@ctk@@QAE@XZ  10004ca0 f i base_func.obj
 0001:00003d20       ??1ThreadInfo@ctk@@QAE@XZ  10004d20 f i base_func.obj
 0001:00003d90       ??0ThreadInfo@ctk@@QAE@ABU01@@Z 10004d90 f i base_func.obj
 0001:00003e30       ??4ThreadInfo@ctk@@QAEAAU01@ABU01@@Z 10004e30 f i base_func.obj
 0001:00003e90       ??_FListValue@ntv@pml@ctk@@QAEXXZ 10004e90 f i base_func.obj
 0001:00003eb0       ??1StringValue@ntv@pml@ctk@@UAE@XZ 10004eb0 f i base_func.obj
 0001:00003f10       ??_FStringValue@ntv@pml@ctk@@QAEXXZ 10004f10 f i base_func.obj
 0001:00003f30       ??0pmlType@pml@ctk@@QAE@ABV012@@Z 10004f30 f i base_func.obj
 0001:00003f50       ??4pmlType@pml@ctk@@QAEAAV012@ABV012@@Z 10004f50 f i base_func.obj
 0001:00003f60       ??_GpmlType@pml@ctk@@UAEPAXI@Z 10004f60 f i base_func.obj
 0001:00003f90       ??_EpmlType@pml@ctk@@UAEPAXI@Z 10004f90 f i base_func.obj
 0001:00004000       ??0pmlString@pml@ctk@@QAE@ABV012@@Z 10005000 f i base_func.obj
 0001:00004080       ??4pmlString@pml@ctk@@QAEAAV012@ABV012@@Z 10005080 f i base_func.obj
 0001:000040b0       ??_GpmlString@pml@ctk@@UAEPAXI@Z 100050b0 f i base_func.obj
 0001:000040e0       ??_EpmlString@pml@ctk@@UAEPAXI@Z 100050e0 f i base_func.obj
 0001:00004150       ??0pmlFile@pml@ctk@@QAE@ABV012@@Z 10005150 f i base_func.obj
 0001:000041d0       ??4pmlFile@pml@ctk@@QAEAAV012@ABV012@@Z 100051d0 f i base_func.obj
 0001:00004210       ??_GpmlFile@pml@ctk@@UAEPAXI@Z 10005210 f i base_func.obj
 0001:00004240       ??_EpmlFile@pml@ctk@@UAEPAXI@Z 10005240 f i base_func.obj
 0001:000042b0       ??4Base64@ctk@@QAEAAV01@ABV01@@Z 100052b0 f i base_func.obj
 0001:000042c0       ?what@XMLRuntimeException@xml@ctk@@UBEPBDXZ 100052c0 f i base_func.obj
 0001:000042d0       ??0XMLRuntimeException@xml@ctk@@QAE@ABV012@@Z 100052d0 f i base_func.obj
 0001:00004370       ??4XMLRuntimeException@xml@ctk@@QAEAAV012@ABV012@@Z 10005370 f i base_func.obj
 0001:000043c0       ??_GXMLRuntimeException@xml@ctk@@UAEPAXI@Z 100053c0 f i base_func.obj
 0001:000043f0       ??_EXMLRuntimeException@xml@ctk@@UAEPAXI@Z 100053f0 f i base_func.obj
 0001:00004460       ??1XMLParserCallback@xml@ctk@@UAE@XZ 10005460 f i base_func.obj
 0001:00004480       ?onNodeBegin@XMLParserCallback@xml@ctk@@UAEXPAVXMLParser@23@PAVXMLNode@23@@Z 10005480 f i base_func.obj
 0001:00004490       ?onNodeEnd@XMLParserCallback@xml@ctk@@UAEXPAVXMLParser@23@PAVXMLNode@23@@Z 10005490 f i base_func.obj
 0001:000044a0       ?onCDATAFound@XMLParserCallback@xml@ctk@@UAEXPAVXMLParser@23@PAVXMLNode@23@@Z 100054a0 f i base_func.obj
 0001:000044b0       ?onAttrFound@XMLParserCallback@xml@ctk@@UAEXPAVXMLParser@23@PAVXMLAttr@23@@Z 100054b0 f i base_func.obj
 0001:000044c0       ??0XMLParserCallback@xml@ctk@@QAE@XZ 100054c0 f i base_func.obj
 0001:000044e0       ??0XMLParserCallback@xml@ctk@@QAE@ABU012@@Z 100054e0 f i base_func.obj
 0001:00004500       ??4XMLParserCallback@xml@ctk@@QAEAAU012@ABU012@@Z 10005500 f i base_func.obj
 0001:00004510       ??_GXMLParserCallback@xml@ctk@@UAEPAXI@Z 10005510 f i base_func.obj
 0001:00004540       ??_EXMLParserCallback@xml@ctk@@UAEPAXI@Z 10005540 f i base_func.obj
 0001:000045b0       ??_FXMLAttr@xml@ctk@@QAEXXZ 100055b0 f i base_func.obj
 0001:000045e0       ??_FXMLNode@xml@ctk@@QAEXXZ 100055e0 f i base_func.obj
 0001:00004600       ??0XMLParser@xml@ctk@@QAE@ABV012@@Z 10005600 f i base_func.obj
 0001:00004710       ??4XMLParser@xml@ctk@@QAEAAV012@ABV012@@Z 10005710 f i base_func.obj
 0001:000047d0       ??_GXMLParser@xml@ctk@@UAEPAXI@Z 100057d0 f i base_func.obj
 0001:00004800       ??_EXMLParser@xml@ctk@@UAEPAXI@Z 10005800 f i base_func.obj
 0001:00004870       ??0?$map@VString@ctk@@V12@U?$less@VString@ctk@@@std@@V?$allocator@U?$pair@$$CBVString@ctk@@V12@@std@@@4@@std@@QAE@ABV01@@Z 10005870 f i base_func.obj
 0001:000048d0       ??1?$map@VString@ctk@@V12@U?$less@VString@ctk@@@std@@V?$allocator@U?$pair@$$CBVString@ctk@@V12@@std@@@4@@std@@QAE@XZ 100058d0 f i base_func.obj
 0001:00004920       ??4?$map@VString@ctk@@V12@U?$less@VString@ctk@@@std@@V?$allocator@U?$pair@$$CBVString@ctk@@V12@@std@@@4@@std@@QAEAAV01@ABV01@@Z 10005920 f i base_func.obj
 0001:00004940       ??0XMLInStream@xml@ctk@@QAE@ABV012@@Z 10005940 f i base_func.obj
 0001:000049e0       ??4XMLInStream@xml@ctk@@QAEAAV012@ABV012@@Z 100059e0 f i base_func.obj
 0001:00004a30       ??_DXMLInStream@xml@ctk@@QAEXXZ 10005a30 f i base_func.obj
 0001:00004a50       ??0XMLOutStream@xml@ctk@@QAE@ABV012@@Z 10005a50 f i base_func.obj
 0001:00004af0       ??4XMLOutStream@xml@ctk@@QAEAAV012@ABV012@@Z 10005af0 f i base_func.obj
 0001:00004b40       ??_DXMLOutStream@xml@ctk@@QAEXXZ 10005b40 f i base_func.obj
 0001:00004b60       ?attr@XMLStream@xml@ctk@@QAEAAVXMLAttr@23@ABUistr@3@@Z 10005b60 f i base_func.obj
 0001:00004bb0       ??RXMLStream@xml@ctk@@QAEAAVXMLAttr@12@ABUistr@2@@Z 10005bb0 f i base_func.obj
 0001:00004bd0       ?attr@XMLStream@xml@ctk@@QBEABVXMLAttr@23@ABUistr@3@@Z 10005bd0 f i base_func.obj
 0001:00004bf0       ??RXMLStream@xml@ctk@@QBEABVXMLAttr@12@ABUistr@2@@Z 10005bf0 f i base_func.obj
 0001:00004c10       ?child@XMLStream@xml@ctk@@QAEAAVXMLNode@23@ABUistr@3@@Z 10005c10 f i base_func.obj
 0001:00004c60       ??AXMLStream@xml@ctk@@QAEAAVXMLNode@12@ABUistr@2@@Z 10005c60 f i base_func.obj
 0001:00004c80       ?child@XMLStream@xml@ctk@@QBEABVXMLNode@23@ABUistr@3@@Z 10005c80 f i base_func.obj
 0001:00004ca0       ??AXMLStream@xml@ctk@@QBEABVXMLNode@12@ABUistr@2@@Z 10005ca0 f i base_func.obj
 0001:00004cc0       ??0XMLStream@xml@ctk@@QAE@ABV012@@Z 10005cc0 f i base_func.obj
 0001:00004db0       ??4XMLStream@xml@ctk@@QAEAAV012@ABV012@@Z 10005db0 f i base_func.obj
 0001:00004e00       ??_DXMLStream@xml@ctk@@QAEXXZ 10005e00 f i base_func.obj
 0001:00004e20       ?SafeStr@ctk@@YAPBDPBD@Z   10005e20 f   base_func.obj
 0001:00004e40       ?SafeStr@ctk@@YAPBEPBE@Z   10005e40 f   base_func.obj
 0001:00004e60       ??1?$Handle@UWinHandleWrapper@ctk@@@ctk@@QAE@XZ 10005e60 f i base_func.obj
 0001:00004e80       ?__SubRef@Shared@ctk@@QAEXXZ 10005e80 f i base_func.obj
 0001:00004ed0       ??0?$Pointer@VSimpleThread@ctk@@@ctk@@QAE@PAVSimpleThread@1@@Z 10005ed0 f i base_func.obj
 0001:00004ef0       ??0?$Pointer@VSimpleThread@ctk@@@ctk@@QAE@ABU01@@Z 10005ef0 f i base_func.obj
 0001:00004f10       ??1?$Pointer@VSimpleThread@ctk@@@ctk@@QAE@XZ 10005f10 f i base_func.obj
 0001:00004f20       ??4?$Pointer@VSimpleThread@ctk@@@ctk@@QAEAAU01@ABU01@@Z 10005f20 f i base_func.obj
 0001:00004f40       ??0?$Pointer@VXMLNode@xml@ctk@@@ctk@@QAE@ABU01@@Z 10005f40 f i base_func.obj
 0001:00004f60       ??1?$Pointer@VXMLNode@xml@ctk@@@ctk@@QAE@XZ 10005f60 f i base_func.obj
 0001:00004f70       ??4?$Pointer@VXMLNode@xml@ctk@@@ctk@@QAEAAU01@ABU01@@Z 10005f70 f i base_func.obj
 0001:00004f90       ??0?$_Tree@V?$_Tmap_traits@VString@ctk@@V12@U?$less@VString@ctk@@@std@@V?$allocator@U?$pair@$$CBVString@ctk@@V12@@std@@@4@$0A@@std@@@std@@QAE@ABV01@@Z 10005f90 f i base_func.obj
 0001:00005050       ??1?$_Tree@V?$_Tmap_traits@VString@ctk@@V12@U?$less@VString@ctk@@@std@@V?$allocator@U?$pair@$$CBVString@ctk@@V12@@std@@@4@$0A@@std@@@std@@QAE@XZ 10006050 f i base_func.obj
 0001:000050b0       ??4?$_Tree@V?$_Tmap_traits@VString@ctk@@V12@U?$less@VString@ctk@@@std@@V?$allocator@U?$pair@$$CBVString@ctk@@V12@@std@@@4@$0A@@std@@@std@@QAEAAV01@ABV01@@Z 100060b0 f i base_func.obj
 0001:00005120       ??0?$Pointer@UXMLParserCallback@xml@ctk@@@ctk@@QAE@ABU01@@Z 10006120 f i base_func.obj
 0001:00005140       ??1?$Pointer@UXMLParserCallback@xml@ctk@@@ctk@@QAE@XZ 10006140 f i base_func.obj
 0001:00005150       ??4?$Pointer@UXMLParserCallback@xml@ctk@@@ctk@@QAEAAU01@ABU01@@Z 10006150 f i base_func.obj
 0001:00005170       ??1?$_Tree_val@V?$_Tmap_traits@VString@ctk@@V12@U?$less@VString@ctk@@@std@@V?$allocator@U?$pair@$$CBVString@ctk@@V12@@std@@@4@$0A@@std@@@std@@QAE@XZ 10006170 f i base_func.obj
 0001:000051c0       ??1?$_Tree_ptr@V?$_Tmap_traits@VString@ctk@@V12@U?$less@VString@ctk@@@std@@V?$allocator@U?$pair@$$CBVString@ctk@@V12@@std@@@4@$0A@@std@@@std@@QAE@XZ 100061c0 f i base_func.obj
 0001:00005210       ??1?$_Tree_nod@V?$_Tmap_traits@VString@ctk@@V12@U?$less@VString@ctk@@@std@@V?$allocator@U?$pair@$$CBVString@ctk@@V12@@std@@@4@$0A@@std@@@std@@QAE@XZ 10006210 f i base_func.obj
 0001:00005260       ??1?$_Tmap_traits@VString@ctk@@V12@U?$less@VString@ctk@@@std@@V?$allocator@U?$pair@$$CBVString@ctk@@V12@@std@@@4@$0A@@std@@QAE@XZ 10006260 f i base_func.obj
 0001:000052b0       ?set@?$Pointer@VSimpleThread@ctk@@@ctk@@QAEAAU12@PAVSimpleThread@2@@Z 100062b0 f i base_func.obj
 0001:000052d0       ?set@?$Pointer@VXMLNode@xml@ctk@@@ctk@@QAEAAU12@PAVXMLNode@xml@2@@Z 100062d0 f i base_func.obj
 0001:000052f0       ?begin@?$_Tree@V?$_Tmap_traits@VString@ctk@@V12@U?$less@VString@ctk@@@std@@V?$allocator@U?$pair@$$CBVString@ctk@@V12@@std@@@4@$0A@@std@@@std@@QAE?AViterator@12@XZ 100062f0 f i base_func.obj
 0001:00005320       ?end@?$_Tree@V?$_Tmap_traits@VString@ctk@@V12@U?$less@VString@ctk@@@std@@V?$allocator@U?$pair@$$CBVString@ctk@@V12@@std@@@4@$0A@@std@@@std@@QAE?AViterator@12@XZ 10006320 f i base_func.obj
 0001:00005350       ?get_allocator@?$_Tree@V?$_Tmap_traits@VString@ctk@@V12@U?$less@VString@ctk@@@std@@V?$allocator@U?$pair@$$CBVString@ctk@@V12@@std@@@4@$0A@@std@@@std@@QBE?AV?$allocator@U?$pair@$$CBVString@ctk@@V12@@std@@@2@XZ 10006350 f i base_func.obj
 0001:00005370       ?key_comp@?$_Tree@V?$_Tmap_traits@VString@ctk@@V12@U?$less@VString@ctk@@@std@@V?$allocator@U?$pair@$$CBVString@ctk@@V12@@std@@@4@$0A@@std@@@std@@QBE?AU?$less@VString@ctk@@@2@XZ 10006370 f i base_func.obj
 0001:00005380       ?erase@?$_Tree@V?$_Tmap_traits@VString@ctk@@V12@U?$less@VString@ctk@@@std@@V?$allocator@U?$pair@$$CBVString@ctk@@V12@@std@@@4@$0A@@std@@@std@@QAE?AViterator@12@Vconst_iterator@12@0@Z 10006380 f i base_func.obj
 0001:00005430       ?_Copy@?$_Tree@V?$_Tmap_traits@VString@ctk@@V12@U?$less@VString@ctk@@@std@@V?$allocator@U?$pair@$$CBVString@ctk@@V12@@std@@@4@$0A@@std@@@std@@IAEXABV12@@Z 10006430 f i base_func.obj
 0001:000054f0       ?_Init@?$_Tree@V?$_Tmap_traits@VString@ctk@@V12@U?$less@VString@ctk@@@std@@V?$allocator@U?$pair@$$CBVString@ctk@@V12@@std@@@4@$0A@@std@@@std@@IAEXXZ 100064f0 f i base_func.obj
 0001:00005560       ?_Tidy@?$_Tree@V?$_Tmap_traits@VString@ctk@@V12@U?$less@VString@ctk@@@std@@V?$allocator@U?$pair@$$CBVString@ctk@@V12@@std@@@4@$0A@@std@@@std@@IAEXXZ 10006560 f i base_func.obj
 0001:00005630       ??0?$_Tree_val@V?$_Tmap_traits@VString@ctk@@V12@U?$less@VString@ctk@@@std@@V?$allocator@U?$pair@$$CBVString@ctk@@V12@@std@@@4@$0A@@std@@@std@@IAE@ABU?$less@VString@ctk@@@1@V?$allocator@U?$pair@$$CBVString@ctk@@V12@@std@@@1@@Z 10006630 f i base_func.obj
 0001:000056b0       ??1?$_Container_base_aux_alloc_real@V?$allocator@U?$pair@$$CBVString@ctk@@V12@@std@@@std@@@std@@IAE@XZ 100066b0 f i base_func.obj
 0001:00005710       ?set@?$Pointer@UXMLParserCallback@xml@ctk@@@ctk@@QAEAAU12@PAUXMLParserCallback@xml@2@@Z 10006710 f i base_func.obj
 0001:00005730       ?_Isnil@?$_Tree@V?$_Tmap_traits@VString@ctk@@V12@U?$less@VString@ctk@@@std@@V?$allocator@U?$pair@$$CBVString@ctk@@V12@@std@@@4@$0A@@std@@@std@@KAAADPAU_Node@?$_Tree_nod@V?$_Tmap_traits@VString@ctk@@V12@U?$less@VString@ctk@@@std@@V?$allocator@U?$pair@$$CBVString@ctk@@V12@@std@@@4@$0A@@std@@@2@@Z 10006730 f i base_func.obj
 0001:00005740       ?_Left@?$_Tree@V?$_Tmap_traits@VString@ctk@@V12@U?$less@VString@ctk@@@std@@V?$allocator@U?$pair@$$CBVString@ctk@@V12@@std@@@4@$0A@@std@@@std@@KAAAPAU_Node@?$_Tree_nod@V?$_Tmap_traits@VString@ctk@@V12@U?$less@VString@ctk@@@std@@V?$allocator@U?$pair@$$CBVString@ctk@@V12@@std@@@4@$0A@@std@@@2@PAU342@@Z 10006740 f i base_func.obj
 0001:00005750       ?_Parent@?$_Tree@V?$_Tmap_traits@VString@ctk@@V12@U?$less@VString@ctk@@@std@@V?$allocator@U?$pair@$$CBVString@ctk@@V12@@std@@@4@$0A@@std@@@std@@KAAAPAU_Node@?$_Tree_nod@V?$_Tmap_traits@VString@ctk@@V12@U?$less@VString@ctk@@@std@@V?$allocator@U?$pair@$$CBVString@ctk@@V12@@std@@@4@$0A@@std@@@2@PAU342@@Z 10006750 f i base_func.obj
 0001:00005760       ?_Right@?$_Tree@V?$_Tmap_traits@VString@ctk@@V12@U?$less@VString@ctk@@@std@@V?$allocator@U?$pair@$$CBVString@ctk@@V12@@std@@@4@$0A@@std@@@std@@KAAAPAU_Node@?$_Tree_nod@V?$_Tmap_traits@VString@ctk@@V12@U?$less@VString@ctk@@@std@@V?$allocator@U?$pair@$$CBVString@ctk@@V12@@std@@@4@$0A@@std@@@2@PAU342@@Z 10006760 f i base_func.obj
 0001:00005770       ?_Make_iter@?$_Tree@V?$_Tmap_traits@VString@ctk@@V12@U?$less@VString@ctk@@@std@@V?$allocator@U?$pair@$$CBVString@ctk@@V12@@std@@@4@$0A@@std@@@std@@QBE?AViterator@12@Vconst_iterator@12@@Z 10006770 f i base_func.obj
 0001:000057a0       ?size@?$_Tree@V?$_Tmap_traits@VString@ctk@@V12@U?$less@VString@ctk@@@std@@V?$allocator@U?$pair@$$CBVString@ctk@@V12@@std@@@4@$0A@@std@@@std@@QBEIXZ 100067a0 f i base_func.obj
 0001:000057c0       ?erase@?$_Tree@V?$_Tmap_traits@VString@ctk@@V12@U?$less@VString@ctk@@@std@@V?$allocator@U?$pair@$$CBVString@ctk@@V12@@std@@@4@$0A@@std@@@std@@QAE?AViterator@12@Vconst_iterator@12@@Z 100067c0 f i base_func.obj
 0001:00005fa0       ?clear@?$_Tree@V?$_Tmap_traits@VString@ctk@@V12@U?$less@VString@ctk@@@std@@V?$allocator@U?$pair@$$CBVString@ctk@@V12@@std@@@4@$0A@@std@@@std@@QAEXXZ 10006fa0 f i base_func.obj
 0001:00006000       ?_Copy@?$_Tree@V?$_Tmap_traits@VString@ctk@@V12@U?$less@VString@ctk@@@std@@V?$allocator@U?$pair@$$CBVString@ctk@@V12@@std@@@4@$0A@@std@@@std@@IAEPAU_Node@?$_Tree_nod@V?$_Tmap_traits@VString@ctk@@V12@U?$less@VString@ctk@@@std@@V?$allocator@U?$pair@$$CBVString@ctk@@V12@@std@@@4@$0A@@std@@@2@PAU342@0@Z 10007000 f i base_func.obj
 0001:00006150       ?_Lmost@?$_Tree@V?$_Tmap_traits@VString@ctk@@V12@U?$less@VString@ctk@@@std@@V?$allocator@U?$pair@$$CBVString@ctk@@V12@@std@@@4@$0A@@std@@@std@@IBEAAPAU_Node@?$_Tree_nod@V?$_Tmap_traits@VString@ctk@@V12@U?$less@VString@ctk@@@std@@V?$allocator@U?$pair@$$CBVString@ctk@@V12@@std@@@4@$0A@@std@@@2@XZ 10007150 f i base_func.obj
 0001:00006170       ?_Max@?$_Tree@V?$_Tmap_traits@VString@ctk@@V12@U?$less@VString@ctk@@@std@@V?$allocator@U?$pair@$$CBVString@ctk@@V12@@std@@@4@$0A@@std@@@std@@KAPAU_Node@?$_Tree_nod@V?$_Tmap_traits@VString@ctk@@V12@U?$less@VString@ctk@@@std@@V?$allocator@U?$pair@$$CBVString@ctk@@V12@@std@@@4@$0A@@std@@@2@PAU342@@Z 10007170 f i base_func.obj
 0001:000061b0       ?_Min@?$_Tree@V?$_Tmap_traits@VString@ctk@@V12@U?$less@VString@ctk@@@std@@V?$allocator@U?$pair@$$CBVString@ctk@@V12@@std@@@4@$0A@@std@@@std@@KAPAU_Node@?$_Tree_nod@V?$_Tmap_traits@VString@ctk@@V12@U?$less@VString@ctk@@@std@@V?$allocator@U?$pair@$$CBVString@ctk@@V12@@std@@@4@$0A@@std@@@2@PAU342@@Z 100071b0 f i base_func.obj
 0001:000061f0       ?_Rmost@?$_Tree@V?$_Tmap_traits@VString@ctk@@V12@U?$less@VString@ctk@@@std@@V?$allocator@U?$pair@$$CBVString@ctk@@V12@@std@@@4@$0A@@std@@@std@@IBEAAPAU_Node@?$_Tree_nod@V?$_Tmap_traits@VString@ctk@@V12@U?$less@VString@ctk@@@std@@V?$allocator@U?$pair@$$CBVString@ctk@@V12@@std@@@4@$0A@@std@@@2@XZ 100071f0 f i base_func.obj
 0001:00006210       ?_Root@?$_Tree@V?$_Tmap_traits@VString@ctk@@V12@U?$less@VString@ctk@@@std@@V?$allocator@U?$pair@$$CBVString@ctk@@V12@@std@@@4@$0A@@std@@@std@@IBEAAPAU_Node@?$_Tree_nod@V?$_Tmap_traits@VString@ctk@@V12@U?$less@VString@ctk@@@std@@V?$allocator@U?$pair@$$CBVString@ctk@@V12@@std@@@4@$0A@@std@@@2@XZ 10007210 f i base_func.obj
 0001:00006230       ?_Buynode@?$_Tree@V?$_Tmap_traits@VString@ctk@@V12@U?$less@VString@ctk@@@std@@V?$allocator@U?$pair@$$CBVString@ctk@@V12@@std@@@4@$0A@@std@@@std@@IAEPAU_Node@?$_Tree_nod@V?$_Tmap_traits@VString@ctk@@V12@U?$less@VString@ctk@@@std@@V?$allocator@U?$pair@$$CBVString@ctk@@V12@@std@@@4@$0A@@std@@@2@XZ 10007230 f i base_func.obj
 0001:000063a0       ??0?$_Tree_ptr@V?$_Tmap_traits@VString@ctk@@V12@U?$less@VString@ctk@@@std@@V?$allocator@U?$pair@$$CBVString@ctk@@V12@@std@@@4@$0A@@std@@@std@@IAE@ABU?$less@VString@ctk@@@1@V?$allocator@U?$pair@$$CBVString@ctk@@V12@@std@@@1@@Z 100073a0 f i base_func.obj
 0001:00006420       ??0?$allocator@U?$pair@$$CBVString@ctk@@V12@@std@@@std@@QAE@ABV01@@Z 10007420 f i base_func.obj
 0001:00006430       ?deallocate@?$allocator@U_Node@?$_Tree_nod@V?$_Tmap_traits@VString@ctk@@V12@U?$less@VString@ctk@@@std@@V?$allocator@U?$pair@$$CBVString@ctk@@V12@@std@@@4@$0A@@std@@@std@@@std@@QAEXPAU_Node@?$_Tree_nod@V?$_Tmap_traits@VString@ctk@@V12@U?$less@VString@ctk@@@std@@V?$allocator@U?$pair@$$CBVString@ctk@@V12@@std@@@4@$0A@@std@@@2@I@Z 10007430 f i base_func.obj
 0001:00006450       ?destroy@?$allocator@PAU_Node@?$_Tree_nod@V?$_Tmap_traits@VString@ctk@@V12@U?$less@VString@ctk@@@std@@V?$allocator@U?$pair@$$CBVString@ctk@@V12@@std@@@4@$0A@@std@@@std@@@std@@QAEXPAPAU_Node@?$_Tree_nod@V?$_Tmap_traits@VString@ctk@@V12@U?$less@VString@ctk@@@std@@V?$allocator@U?$pair@$$CBVString@ctk@@V12@@std@@@4@$0A@@std@@@2@@Z 10007450 f i base_func.obj
 0001:00006470       ??0iterator@?$_Tree@V?$_Tmap_traits@VString@ctk@@V12@U?$less@VString@ctk@@@std@@V?$allocator@U?$pair@$$CBVString@ctk@@V12@@std@@@4@$0A@@std@@@std@@QAE@PAU_Node@?$_Tree_nod@V?$_Tmap_traits@VString@ctk@@V12@U?$less@VString@ctk@@@std@@V?$allocator@U?$pair@$$CBVString@ctk@@V12@@std@@@4@$0A@@std@@@2@PBV12@@Z 10007470 f i base_func.obj
 0001:00006490       ??Econst_iterator@?$_Tree@V?$_Tmap_traits@VString@ctk@@V12@U?$less@VString@ctk@@@std@@V?$allocator@U?$pair@$$CBVString@ctk@@V12@@std@@@4@$0A@@std@@@std@@QAE?AV012@H@Z 10007490 f i base_func.obj
 0001:000064d0       ??8const_iterator@?$_Tree@V?$_Tmap_traits@VString@ctk@@V12@U?$less@VString@ctk@@@std@@V?$allocator@U?$pair@$$CBVString@ctk@@V12@@std@@@4@$0A@@std@@@std@@QBE_NABV012@@Z 100074d0 f i base_func.obj
 0001:00006520       ??9const_iterator@?$_Tree@V?$_Tmap_traits@VString@ctk@@V12@U?$less@VString@ctk@@@std@@V?$allocator@U?$pair@$$CBVString@ctk@@V12@@std@@@4@$0A@@std@@@std@@QBE_NABV012@@Z 10007520 f i base_func.obj
 0001:00006550       ?_Color@?$_Tree@V?$_Tmap_traits@VString@ctk@@V12@U?$less@VString@ctk@@@std@@V?$allocator@U?$pair@$$CBVString@ctk@@V12@@std@@@4@$0A@@std@@@std@@KAAADPAU_Node@?$_Tree_nod@V?$_Tmap_traits@VString@ctk@@V12@U?$less@VString@ctk@@@std@@V?$allocator@U?$pair@$$CBVString@ctk@@V12@@std@@@4@$0A@@std@@@2@@Z 10007550 f i base_func.obj
 0001:00006560       ?_Myval@?$_Tree@V?$_Tmap_traits@VString@ctk@@V12@U?$less@VString@ctk@@@std@@V?$allocator@U?$pair@$$CBVString@ctk@@V12@@std@@@4@$0A@@std@@@std@@KAAAU?$pair@$$CBVString@ctk@@V12@@2@PAU_Node@?$_Tree_nod@V?$_Tmap_traits@VString@ctk@@V12@U?$less@VString@ctk@@@std@@V?$allocator@U?$pair@$$CBVString@ctk@@V12@@std@@@4@$0A@@std@@@2@@Z 10007560 f i base_func.obj
 0001:00006570       ?_Erase@?$_Tree@V?$_Tmap_traits@VString@ctk@@V12@U?$less@VString@ctk@@@std@@V?$allocator@U?$pair@$$CBVString@ctk@@V12@@std@@@4@$0A@@std@@@std@@IAEXPAU_Node@?$_Tree_nod@V?$_Tmap_traits@VString@ctk@@V12@U?$less@VString@ctk@@@std@@V?$allocator@U?$pair@$$CBVString@ctk@@V12@@std@@@4@$0A@@std@@@2@@Z 10007570 f i base_func.obj
 0001:000065f0       ?_Lrotate@?$_Tree@V?$_Tmap_traits@VString@ctk@@V12@U?$less@VString@ctk@@@std@@V?$allocator@U?$pair@$$CBVString@ctk@@V12@@std@@@4@$0A@@std@@@std@@IAEXPAU_Node@?$_Tree_nod@V?$_Tmap_traits@VString@ctk@@V12@U?$less@VString@ctk@@@std@@V?$allocator@U?$pair@$$CBVString@ctk@@V12@@std@@@4@$0A@@std@@@2@@Z 100075f0 f i base_func.obj
 0001:00006720       ?_Rrotate@?$_Tree@V?$_Tmap_traits@VString@ctk@@V12@U?$less@VString@ctk@@@std@@V?$allocator@U?$pair@$$CBVString@ctk@@V12@@std@@@4@$0A@@std@@@std@@IAEXPAU_Node@?$_Tree_nod@V?$_Tmap_traits@VString@ctk@@V12@U?$less@VString@ctk@@@std@@V?$allocator@U?$pair@$$CBVString@ctk@@V12@@std@@@4@$0A@@std@@@2@@Z 10007720 f i base_func.obj
 0001:00006850       ?_Buynode@?$_Tree@V?$_Tmap_traits@VString@ctk@@V12@U?$less@VString@ctk@@@std@@V?$allocator@U?$pair@$$CBVString@ctk@@V12@@std@@@4@$0A@@std@@@std@@IAEPAU_Node@?$_Tree_nod@V?$_Tmap_traits@VString@ctk@@V12@U?$less@VString@ctk@@@std@@V?$allocator@U?$pair@$$CBVString@ctk@@V12@@std@@@4@$0A@@std@@@2@PAU342@00ABU?$pair@$$CBVString@ctk@@V12@@2@D@Z 10007850 f i base_func.obj
 0001:00006930       ??0?$_Tree_nod@V?$_Tmap_traits@VString@ctk@@V12@U?$less@VString@ctk@@@std@@V?$allocator@U?$pair@$$CBVString@ctk@@V12@@std@@@4@$0A@@std@@@std@@IAE@ABU?$less@VString@ctk@@@1@V?$allocator@U?$pair@$$CBVString@ctk@@V12@@std@@@1@@Z 10007930 f i base_func.obj
 0001:000069b0       ?allocate@?$allocator@U_Node@?$_Tree_nod@V?$_Tmap_traits@VString@ctk@@V12@U?$less@VString@ctk@@@std@@V?$allocator@U?$pair@$$CBVString@ctk@@V12@@std@@@4@$0A@@std@@@std@@@std@@QAEPAU_Node@?$_Tree_nod@V?$_Tmap_traits@VString@ctk@@V12@U?$less@VString@ctk@@@std@@V?$allocator@U?$pair@$$CBVString@ctk@@V12@@std@@@4@$0A@@std@@@2@I@Z 100079b0 f i base_func.obj
 0001:000069d0       ?destroy@?$allocator@U_Node@?$_Tree_nod@V?$_Tmap_traits@VString@ctk@@V12@U?$less@VString@ctk@@@std@@V?$allocator@U?$pair@$$CBVString@ctk@@V12@@std@@@4@$0A@@std@@@std@@@std@@QAEXPAU_Node@?$_Tree_nod@V?$_Tmap_traits@VString@ctk@@V12@U?$less@VString@ctk@@@std@@V?$allocator@U?$pair@$$CBVString@ctk@@V12@@std@@@4@$0A@@std@@@2@@Z 100079d0 f i base_func.obj
 0001:000069f0       ?construct@?$allocator@PAU_Node@?$_Tree_nod@V?$_Tmap_traits@VString@ctk@@V12@U?$less@VString@ctk@@@std@@V?$allocator@U?$pair@$$CBVString@ctk@@V12@@std@@@4@$0A@@std@@@std@@@std@@QAEXPAPAU_Node@?$_Tree_nod@V?$_Tmap_traits@VString@ctk@@V12@U?$less@VString@ctk@@@std@@V?$allocator@U?$pair@$$CBVString@ctk@@V12@@std@@@4@$0A@@std@@@2@ABQAU342@@Z 100079f0 f i base_func.obj
 0001:00006a10       ??0const_iterator@?$_Tree@V?$_Tmap_traits@VString@ctk@@V12@U?$less@VString@ctk@@@std@@V?$allocator@U?$pair@$$CBVString@ctk@@V12@@std@@@4@$0A@@std@@@std@@QAE@PAU_Node@?$_Tree_nod@V?$_Tmap_traits@VString@ctk@@V12@U?$less@VString@ctk@@@std@@V?$allocator@U?$pair@$$CBVString@ctk@@V12@@std@@@4@$0A@@std@@@2@PBV12@@Z 10007a10 f i base_func.obj
 0001:00006a50       ??Econst_iterator@?$_Tree@V?$_Tmap_traits@VString@ctk@@V12@U?$less@VString@ctk@@@std@@V?$allocator@U?$pair@$$CBVString@ctk@@V12@@std@@@4@$0A@@std@@@std@@QAEAAV012@XZ 10007a50 f i base_func.obj
 0001:00006a70       ?_Mynode@const_iterator@?$_Tree@V?$_Tmap_traits@VString@ctk@@V12@U?$less@VString@ctk@@@std@@V?$allocator@U?$pair@$$CBVString@ctk@@V12@@std@@@4@$0A@@std@@@std@@QBEPAU_Node@?$_Tree_nod@V?$_Tmap_traits@VString@ctk@@V12@U?$less@VString@ctk@@@std@@V?$allocator@U?$pair@$$CBVString@ctk@@V12@@std@@@4@$0A@@std@@@3@XZ 10007a70 f i base_func.obj
 0001:00006a90       ??0?$_Bidit@U?$pair@$$CBVString@ctk@@V12@@std@@HPBU12@ABU12@@std@@QAE@XZ 10007a90 f i base_func.obj
 0001:00006ab0       ??0?$_Iterator_with_base@Ubidirectional_iterator_tag@std@@U?$pair@$$CBVString@ctk@@V12@@2@HPBU32@ABU32@V_Iterator_base_aux@2@@std@@QAE@XZ 10007ab0 f i base_func.obj
 0001:00006ad0       ??0?$_Tmap_traits@VString@ctk@@V12@U?$less@VString@ctk@@@std@@V?$allocator@U?$pair@$$CBVString@ctk@@V12@@std@@@4@$0A@@std@@QAE@U?$less@VString@ctk@@@1@V?$allocator@U?$pair@$$CBVString@ctk@@V12@@std@@@1@@Z 10007ad0 f i base_func.obj
 0001:00006b40       ?_Inc@const_iterator@?$_Tree@V?$_Tmap_traits@VString@ctk@@V12@U?$less@VString@ctk@@@std@@V?$allocator@U?$pair@$$CBVString@ctk@@V12@@std@@@4@$0A@@std@@@std@@QAEXXZ 10007b40 f i base_func.obj
 0001:00006c20       ??0_Node@?$_Tree_nod@V?$_Tmap_traits@VString@ctk@@V12@U?$less@VString@ctk@@@std@@V?$allocator@U?$pair@$$CBVString@ctk@@V12@@std@@@4@$0A@@std@@@std@@QAE@PAU012@00ABU?$pair@$$CBVString@ctk@@V12@@2@D@Z 10007c20 f i base_func.obj
 0001:00006cb0       ??0?$pair@$$CBVString@ctk@@V12@@std@@QAE@ABU01@@Z 10007cb0 f i base_func.obj
 0001:00006d20       ??1?$pair@$$CBVString@ctk@@V12@@std@@QAE@XZ 10007d20 f i base_func.obj
 0001:00006d80       ??0?$_Container_base_aux_alloc_real@V?$allocator@U?$pair@$$CBVString@ctk@@V12@@std@@@std@@@std@@IAE@V?$allocator@U?$pair@$$CBVString@ctk@@V12@@std@@@1@@Z 10007d80 f i base_func.obj
 0001:00006e40       ??$?5F@ctk@@YA_NABVString@0@AAF@Z 10007e40 f i base_func.obj
 0001:00006f00       ??$?6F@ctk@@YAAAVString@0@AAV10@ABF@Z 10007f00 f i base_func.obj
 0001:00006f20       ??$?5J@ctk@@YA_NABVString@0@AAJ@Z 10007f20 f i base_func.obj
 0001:00006fe0       ??$?6J@ctk@@YAAAVString@0@AAV10@ABJ@Z 10007fe0 f i base_func.obj
 0001:00007000       ??$print@F@ctk@@YA?AU?$print__@F@0@FHD_N@Z 10008000 f i base_func.obj
 0001:00007030       ??$?6F@ctk@@YAAAV?$basic_ostream@DU?$char_traits@D@std@@@std@@AAV12@ABU?$print__@F@0@@Z 10008030 f i base_func.obj
 0001:00007100       ??$print@G@ctk@@YA?AU?$print__@G@0@GHD_N@Z 10008100 f i base_func.obj
 0001:00007130       ??$?6G@ctk@@YAAAV?$basic_ostream@DU?$char_traits@D@std@@@std@@AAV12@ABU?$print__@G@0@@Z 10008130 f i base_func.obj
 0001:00007200       ??$print@J@ctk@@YA?AU?$print__@J@0@JHD_N@Z 10008200 f i base_func.obj
 0001:00007230       ??$?6J@ctk@@YAAAV?$basic_ostream@DU?$char_traits@D@std@@@std@@AAV12@ABU?$print__@J@0@@Z 10008230 f i base_func.obj
 0001:00007300       ??$?5K@ctk@@YA_NABVString@0@AAK@Z 10008300 f i base_func.obj
 0001:000073c0       ??$?6K@ctk@@YAAAVString@0@AAV10@ABK@Z 100083c0 f i base_func.obj
 0001:000073e0       ??$print@K@ctk@@YA?AU?$print__@K@0@KHD_N@Z 100083e0 f i base_func.obj
 0001:00007410       ??$?6K@ctk@@YAAAV?$basic_ostream@DU?$char_traits@D@std@@@std@@AAV12@ABU?$print__@K@0@@Z 10008410 f i base_func.obj
 0001:000074e0       ??$?5_J@ctk@@YA_NABVString@0@AA_J@Z 100084e0 f i base_func.obj
 0001:000075a0       ??$?6_J@ctk@@YAAAVString@0@AAV10@AB_J@Z 100085a0 f i base_func.obj
 0001:000075c0       ??$print@_J@ctk@@YA?AU?$print__@_J@0@_JHD_N@Z 100085c0 f i base_func.obj
 0001:000075f0       ??$?6_J@ctk@@YAAAV?$basic_ostream@DU?$char_traits@D@std@@@std@@AAV12@ABU?$print__@_J@0@@Z 100085f0 f i base_func.obj
 0001:000076d0       ??$destroy_this@VShared@ctk@@@ctk@@YAXPAVShared@0@PBDI1@Z 100086d0 f i base_func.obj
 0001:000076f0       ??$?0U?$pair@$$CBVString@ctk@@V12@@std@@@?$allocator@PAU_Node@?$_Tree_nod@V?$_Tmap_traits@VString@ctk@@V12@U?$less@VString@ctk@@@std@@V?$allocator@U?$pair@$$CBVString@ctk@@V12@@std@@@4@$0A@@std@@@std@@@std@@QAE@ABV?$allocator@U?$pair@$$CBVString@ctk@@V12@@std@@@1@@Z 100086f0 f i base_func.obj
 0001:00007700       ??$_Destroy@PAU_Node@?$_Tree_nod@V?$_Tmap_traits@VString@ctk@@V12@U?$less@VString@ctk@@@std@@V?$allocator@U?$pair@$$CBVString@ctk@@V12@@std@@@4@$0A@@std@@@std@@@std@@YAXPAPAU_Node@?$_Tree_nod@V?$_Tmap_traits@VString@ctk@@V12@U?$less@VString@ctk@@@std@@V?$allocator@U?$pair@$$CBVString@ctk@@V12@@std@@@4@$0A@@std@@@0@@Z 10008700 f i base_func.obj
 0001:00007710       ??$?0U?$pair@$$CBVString@ctk@@V12@@std@@@?$allocator@U_Node@?$_Tree_nod@V?$_Tmap_traits@VString@ctk@@V12@U?$less@VString@ctk@@@std@@V?$allocator@U?$pair@$$CBVString@ctk@@V12@@std@@@4@$0A@@std@@@std@@@std@@QAE@ABV?$allocator@U?$pair@$$CBVString@ctk@@V12@@std@@@1@@Z 10008710 f i base_func.obj
 0001:00007720       ??$_Allocate@U_Node@?$_Tree_nod@V?$_Tmap_traits@VString@ctk@@V12@U?$less@VString@ctk@@@std@@V?$allocator@U?$pair@$$CBVString@ctk@@V12@@std@@@4@$0A@@std@@@std@@@std@@YAPAU_Node@?$_Tree_nod@V?$_Tmap_traits@VString@ctk@@V12@U?$less@VString@ctk@@@std@@V?$allocator@U?$pair@$$CBVString@ctk@@V12@@std@@@4@$0A@@std@@@0@IPAU120@@Z 10008720 f i base_func.obj
 0001:00007770       ??$_Destroy@U_Node@?$_Tree_nod@V?$_Tmap_traits@VString@ctk@@V12@U?$less@VString@ctk@@@std@@V?$allocator@U?$pair@$$CBVString@ctk@@V12@@std@@@4@$0A@@std@@@std@@@std@@YAXPAU_Node@?$_Tree_nod@V?$_Tmap_traits@VString@ctk@@V12@U?$less@VString@ctk@@@std@@V?$allocator@U?$pair@$$CBVString@ctk@@V12@@std@@@4@$0A@@std@@@0@@Z 10008770 f i base_func.obj
 0001:00007780       ??$_Construct@PAU_Node@?$_Tree_nod@V?$_Tmap_traits@VString@ctk@@V12@U?$less@VString@ctk@@@std@@V?$allocator@U?$pair@$$CBVString@ctk@@V12@@std@@@4@$0A@@std@@@std@@PAU123@@std@@YAXPAPAU_Node@?$_Tree_nod@V?$_Tmap_traits@VString@ctk@@V12@U?$less@VString@ctk@@@std@@V?$allocator@U?$pair@$$CBVString@ctk@@V12@@std@@@4@$0A@@std@@@0@ABQAU120@@Z 10008780 f i base_func.obj
 0001:000077c0       ??$?0U?$pair@$$CBVString@ctk@@V12@@std@@@?$allocator@V_Aux_cont@std@@@std@@QAE@ABV?$allocator@U?$pair@$$CBVString@ctk@@V12@@std@@@1@@Z 100087c0 f i base_func.obj
 0001:000077d0       ??_G_Node@?$_Tree_nod@V?$_Tmap_traits@VString@ctk@@V12@U?$less@VString@ctk@@@std@@V?$allocator@U?$pair@$$CBVString@ctk@@V12@@std@@@4@$0A@@std@@@std@@QAEPAXI@Z 100087d0 f i base_func.obj
 0001:00007800       ??1_Node@?$_Tree_nod@V?$_Tmap_traits@VString@ctk@@V12@U?$less@VString@ctk@@@std@@V?$allocator@U?$pair@$$CBVString@ctk@@V12@@std@@@4@$0A@@std@@@std@@QAE@XZ 10008800 f i base_func.obj
 0001:00007850       ??0?$print__@F@ctk@@QAE@FHD_N@Z 10008850 f i base_func.obj
 0001:00007890       ??0?$print__@G@ctk@@QAE@GHD_N@Z 10008890 f i base_func.obj
 0001:000078d0       ??0?$print__@J@ctk@@QAE@JHD_N@Z 100088d0 f i base_func.obj
 0001:00007910       ??0?$print__@K@ctk@@QAE@KHD_N@Z 10008910 f i base_func.obj
 0001:00007950       ??0?$print__@_J@ctk@@QAE@_JHD_N@Z 10008950 f i base_func.obj
 0001:00007990       ??$?YF@String@ctk@@QAEAAV01@ABF@Z 10008990 f i base_func.obj
 0001:00007a70       ??$?YJ@String@ctk@@QAEAAV01@ABJ@Z 10008a70 f i base_func.obj
 0001:00007b50       ??$Print@F@ctk@@YAAAV?$basic_ostream@DU?$char_traits@D@std@@@std@@AAV12@F@Z 10008b50 f i base_func.obj
 0001:00007b70       ??$Print@G@ctk@@YAAAV?$basic_ostream@DU?$char_traits@D@std@@@std@@AAV12@G@Z 10008b70 f i base_func.obj
 0001:00007b90       ??$Print@J@ctk@@YAAAV?$basic_ostream@DU?$char_traits@D@std@@@std@@AAV12@J@Z 10008b90 f i base_func.obj
 0001:00007bb0       ??$?YK@String@ctk@@QAEAAV01@ABK@Z 10008bb0 f i base_func.obj
 0001:00007c90       ??$Print@K@ctk@@YAAAV?$basic_ostream@DU?$char_traits@D@std@@@std@@AAV12@K@Z 10008c90 f i base_func.obj
 0001:00007cb0       ??$?Y_J@String@ctk@@QAEAAV01@AB_J@Z 10008cb0 f i base_func.obj
 0001:00007d90       ??$Print@_J@ctk@@YAAAV?$basic_ostream@DU?$char_traits@D@std@@@std@@AAV12@_J@Z 10008d90 f i base_func.obj
 0001:00007db0       ??$destroy@VShared@ctk@@@ctk@@YAXAAPAVShared@0@PBDI1@Z 10008db0 f i base_func.obj
 0001:00007df0       ??$destroy_pop_maybe@VShared@ctk@@@ctk@@YAXPAVShared@0@PBDI1@Z 10008df0 f i base_func.obj
 0001:00007e20       ??$destroy_no_mlc@VShared@ctk@@@ctk@@YAXAAPAVShared@0@PBDI1@Z 10008e20 f i base_func.obj
 0001:00007e70       ??0out_of_range@std@@QAE@ABV?$basic_string@DU?$char_traits@D@std@@V?$allocator@D@2@@1@@Z 10008e70 f i base_func.obj
 0001:00007ed0       ??0logic_error@std@@QAE@ABV?$basic_string@DU?$char_traits@D@std@@V?$allocator@D@2@@1@@Z 10008ed0 f i base_func.obj
 0001:00007f40       ??1logic_error@std@@UAE@XZ 10008f40 f i base_func.obj
 0001:00007fb0       ?what@logic_error@std@@UBEPBDXZ 10008fb0 f i base_func.obj
 0001:00007fd0       ??_Elogic_error@std@@UAEPAXI@Z 10008fd0 f i base_func.obj
 0001:00007fd0       ??_Glogic_error@std@@UAEPAXI@Z 10008fd0 f i base_func.obj
 0001:00008000       ??1out_of_range@std@@UAE@XZ 10009000 f i base_func.obj
 0001:00008060       ??_Gout_of_range@std@@UAEPAXI@Z 10009060 f i base_func.obj
 0001:00008060       ??_Eout_of_range@std@@UAEPAXI@Z 10009060 f i base_func.obj
 0001:00008090       ??0out_of_range@std@@QAE@ABV01@@Z 10009090 f i base_func.obj
 0001:000080f0       ??0logic_error@std@@QAE@ABV01@@Z 100090f0 f i base_func.obj
 0001:00008170       ?dec@std@@YAAAVios_base@1@AAV21@@Z 10009170 f i base_func.obj
 0001:00008190       ?hex@std@@YAAAVios_base@1@AAV21@@Z 10009190 f i base_func.obj
 0001:000081b0       ?empty@String@ctk@@QBE_NXZ 100091b0 f i base_func.obj
 0001:000081d0       ??0Exception@ctk@@QAE@ABU01@@Z 100091d0 f i base_func.obj
 0001:000082b0       ??0Current@ctk@@QAE@ABV01@@Z 100092b0 f i base_func.obj
 0001:00008330       ??0CallStack@ctk@@QAE@ABV01@@Z 10009330 f i base_func.obj
 0001:000083a0       ??0?$stack@VCurrent@ctk@@V?$deque@VCurrent@ctk@@V?$allocator@VCurrent@ctk@@@std@@@std@@@ctk@@QAE@ABV01@@Z 100093a0 f i base_func.obj
 0001:00008400       ??0?$stack@VCurrent@ctk@@V?$deque@VCurrent@ctk@@V?$allocator@VCurrent@ctk@@@std@@@std@@@std@@QAE@ABV01@@Z 10009400 f i base_func.obj
 0001:00008460       ??4Exception@ctk@@QAEAAU01@ABU01@@Z 10009460 f i base_func.obj
 0001:000084f0       ??4Current@ctk@@QAEAAV01@ABV01@@Z 100094f0 f i base_func.obj
 0001:00008540       ??4CallStack@ctk@@QAEAAV01@ABV01@@Z 10009540 f i base_func.obj
 0001:00008570       ??4?$stack@VCurrent@ctk@@V?$deque@VCurrent@ctk@@V?$allocator@VCurrent@ctk@@@std@@@std@@@ctk@@QAEAAV01@ABV01@@Z 10009570 f i base_func.obj
 0001:00008590       ??4?$stack@VCurrent@ctk@@V?$deque@VCurrent@ctk@@V?$allocator@VCurrent@ctk@@@std@@@std@@@std@@QAEAAV01@ABV01@@Z 10009590 f i base_func.obj
 0001:000085b0       ??_EException@ctk@@UAEPAXI@Z 100095b0 f i base_func.obj
 0001:00008620       ??0?$deque@VCurrent@ctk@@V?$allocator@VCurrent@ctk@@@std@@@std@@QAE@ABV01@@Z 10009620 f i base_func.obj
 0001:00008730       ??4?$deque@VCurrent@ctk@@V?$allocator@VCurrent@ctk@@@std@@@std@@QAEAAV01@ABV01@@Z 10009730 f i base_func.obj
 0001:000088d0       ?begin@?$deque@VCurrent@ctk@@V?$allocator@VCurrent@ctk@@@std@@@std@@QAE?AV?$_Deque_iterator@VCurrent@ctk@@V?$allocator@VCurrent@ctk@@@std@@$00@2@XZ 100098d0 f i base_func.obj
 0001:00008900       ?end@?$deque@VCurrent@ctk@@V?$allocator@VCurrent@ctk@@@std@@@std@@QAE?AV?$_Deque_iterator@VCurrent@ctk@@V?$allocator@VCurrent@ctk@@@std@@$00@2@XZ 10009900 f i base_func.obj
 0001:00008930       ?erase@?$deque@VCurrent@ctk@@V?$allocator@VCurrent@ctk@@@std@@@std@@QAE?AV?$_Deque_iterator@VCurrent@ctk@@V?$allocator@VCurrent@ctk@@@std@@$00@2@V?$_Deque_const_iterator@VCurrent@ctk@@V?$allocator@VCurrent@ctk@@@std@@$00@2@0@Z 10009930 f i base_func.obj
 0001:00008a60       ?clear@?$deque@VCurrent@ctk@@V?$allocator@VCurrent@ctk@@@std@@@std@@QAEXXZ 10009a60 f i base_func.obj
 0001:00008a80       ??H?$_Deque_const_iterator@VCurrent@ctk@@V?$allocator@VCurrent@ctk@@@std@@$00@std@@QBE?AV01@H@Z 10009a80 f i base_func.obj
 0001:00008ac0       ?_Make_iter@?$deque@VCurrent@ctk@@V?$allocator@VCurrent@ctk@@@std@@@std@@QBE?AV?$_Deque_iterator@VCurrent@ctk@@V?$allocator@VCurrent@ctk@@@std@@$00@2@V?$_Deque_const_iterator@VCurrent@ctk@@V?$allocator@VCurrent@ctk@@@std@@$00@2@@Z 10009ac0 f i base_func.obj
 0001:00008ae0       ?pop_front@?$deque@VCurrent@ctk@@V?$allocator@VCurrent@ctk@@@std@@@std@@QAEXXZ 10009ae0 f i base_func.obj
 0001:00008b80       ??0?$_Deque_iterator@VCurrent@ctk@@V?$allocator@VCurrent@ctk@@@std@@$00@std@@QAE@IPBV_Container_base_aux@1@@Z 10009b80 f i base_func.obj
 0001:00008ba0       ??H?$_Deque_iterator@VCurrent@ctk@@V?$allocator@VCurrent@ctk@@@std@@$00@std@@QBE?AV01@H@Z 10009ba0 f i base_func.obj
 0001:00008be0       ??G?$_Deque_iterator@VCurrent@ctk@@V?$allocator@VCurrent@ctk@@@std@@$00@std@@QBEHABV?$_Deque_const_iterator@VCurrent@ctk@@V?$allocator@VCurrent@ctk@@@std@@$00@1@@Z 10009be0 f i base_func.obj
 0001:00008c00       ??Y?$_Deque_const_iterator@VCurrent@ctk@@V?$allocator@VCurrent@ctk@@@std@@$00@std@@QAEAAV01@H@Z 10009c00 f i base_func.obj
 0001:00008ca0       ??Y?$_Deque_iterator@VCurrent@ctk@@V?$allocator@VCurrent@ctk@@@std@@$00@std@@QAEAAV01@H@Z 10009ca0 f i base_func.obj
 0001:00008cc0       ??G?$_Deque_const_iterator@VCurrent@ctk@@V?$allocator@VCurrent@ctk@@@std@@$00@std@@QBEHABV01@@Z 10009cc0 f i base_func.obj
 0001:00008d40       ??$?6U?$char_traits@D@std@@@std@@YAAAV?$basic_ostream@DU?$char_traits@D@std@@@0@AAV10@PBD@Z 10009d40 f i base_func.obj
 0001:00008fd0       ??0sentry@?$basic_ostream@DU?$char_traits@D@std@@@std@@QAE@AAV12@@Z 10009fd0 f i base_func.obj
 0001:00009090       ??1sentry@?$basic_ostream@DU?$char_traits@D@std@@@std@@QAE@XZ 1000a090 f i base_func.obj
 0001:00009100       ??Bsentry@?$basic_ostream@DU?$char_traits@D@std@@@std@@QBE_NXZ 1000a100 f i base_func.obj
 0001:00009120       ??0_Sentry_base@?$basic_ostream@DU?$char_traits@D@std@@@std@@QAE@AAV12@@Z 1000a120 f i base_func.obj
 0001:00009170       ??1_Sentry_base@?$basic_ostream@DU?$char_traits@D@std@@@std@@QAE@XZ 1000a170 f i base_func.obj
 0001:000091c0       ??$setfill@D@std@@YA?AU?$_Fillobj@D@0@D@Z 1000a1c0 f i base_func.obj
 0001:000091e0       ??$?6DU?$char_traits@D@std@@@std@@YAAAV?$basic_ostream@DU?$char_traits@D@std@@@0@AAV10@ABU?$_Fillobj@D@0@@Z 1000a1e0 f i base_func.obj
 0001:00009200       ??$?6DU?$char_traits@D@std@@H@std@@YAAAV?$basic_ostream@DU?$char_traits@D@std@@@0@AAV10@ABU?$_Smanip@H@0@@Z 1000a200 f i base_func.obj
 0001:00009240       ??$?5G@ctk@@YA_NABVString@0@AAG@Z 1000a240 f i base_func.obj
 0001:00009300       ??$?6G@ctk@@YAAAVString@0@AAV10@ABG@Z 1000a300 f i base_func.obj
 0001:00009320       ??$insert@V?$_Deque_const_iterator@VCurrent@ctk@@V?$allocator@VCurrent@ctk@@@std@@$00@std@@@?$deque@VCurrent@ctk@@V?$allocator@VCurrent@ctk@@@std@@@std@@QAEXV?$_Deque_const_iterator@VCurrent@ctk@@V?$allocator@VCurrent@ctk@@@std@@$00@1@00@Z 1000a320 f i base_func.obj
 0001:00009370       ??$copy@V?$_Deque_const_iterator@VCurrent@ctk@@V?$allocator@VCurrent@ctk@@@std@@$00@std@@V?$_Deque_iterator@VCurrent@ctk@@V?$allocator@VCurrent@ctk@@@std@@$00@2@@std@@YA?AV?$_Deque_iterator@VCurrent@ctk@@V?$allocator@VCurrent@ctk@@@std@@$00@0@V?$_Deque_const_iterator@VCurrent@ctk@@V?$allocator@VCurrent@ctk@@@std@@$00@0@0V10@@Z 1000a370 f i base_func.obj
 0001:00009400       ??$copy_backward@V?$_Deque_iterator@VCurrent@ctk@@V?$allocator@VCurrent@ctk@@@std@@$00@std@@V12@@std@@YA?AV?$_Deque_iterator@VCurrent@ctk@@V?$allocator@VCurrent@ctk@@@std@@$00@0@V10@00@Z 1000a400 f i base_func.obj
 0001:00009490       ??$copy@V?$_Deque_iterator@VCurrent@ctk@@V?$allocator@VCurrent@ctk@@@std@@$00@std@@V12@@std@@YA?AV?$_Deque_iterator@VCurrent@ctk@@V?$allocator@VCurrent@ctk@@@std@@$00@0@V10@00@Z 1000a490 f i base_func.obj
 0001:00009520       ??$swap@D@std@@YAXAAD0@Z   1000a520 f i base_func.obj
 0001:00009550       ??0?$_Fillobj@D@std@@QAE@D@Z 1000a550 f i base_func.obj
 0001:00009570       ??$?YG@String@ctk@@QAEAAV01@ABG@Z 1000a570 f i base_func.obj
 0001:00009650       ??$_Iter_cat@V?$_Deque_const_iterator@VCurrent@ctk@@V?$allocator@VCurrent@ctk@@@std@@$00@std@@@std@@YA?AUrandom_access_iterator_tag@0@ABV?$_Deque_const_iterator@VCurrent@ctk@@V?$allocator@VCurrent@ctk@@@std@@$00@0@@Z 1000a650 f i base_func.obj
 0001:00009660       ??$_Insert@V?$_Deque_const_iterator@VCurrent@ctk@@V?$allocator@VCurrent@ctk@@@std@@$00@std@@@?$deque@VCurrent@ctk@@V?$allocator@VCurrent@ctk@@@std@@@std@@QAEXV?$_Deque_const_iterator@VCurrent@ctk@@V?$allocator@VCurrent@ctk@@@std@@$00@1@00Uinput_iterator_tag@1@@Z 1000a660 f i base_func.obj
 0001:000098b0       ??$_Checked_base@V?$_Deque_const_iterator@VCurrent@ctk@@V?$allocator@VCurrent@ctk@@@std@@$00@std@@@std@@YA?AV?$_Deque_const_iterator@VCurrent@ctk@@V?$allocator@VCurrent@ctk@@@std@@$0A@@0@AAV?$_Deque_const_iterator@VCurrent@ctk@@V?$allocator@VCurrent@ctk@@@std@@$00@0@@Z 1000a8b0 f i base_func.obj
 0001:000098d0       ??$_Iter_random@V?$_Deque_const_iterator@VCurrent@ctk@@V?$allocator@VCurrent@ctk@@@std@@$00@std@@V?$_Deque_iterator@VCurrent@ctk@@V?$allocator@VCurrent@ctk@@@std@@$00@2@@std@@YA?AUrandom_access_iterator_tag@0@ABV?$_Deque_const_iterator@VCurrent@ctk@@V?$allocator@VCurrent@ctk@@@std@@$00@0@ABV?$_Deque_iterator@VCurrent@ctk@@V?$allocator@VCurrent@ctk@@@std@@$00@0@@Z 1000a8d0 f i base_func.obj
 0001:000098e0       ??$_Ptr_cat@V?$_Deque_const_iterator@VCurrent@ctk@@V?$allocator@VCurrent@ctk@@@std@@$00@std@@V?$_Deque_iterator@VCurrent@ctk@@V?$allocator@VCurrent@ctk@@@std@@$00@2@@std@@YA?AU_Nonscalar_ptr_iterator_tag@0@AAV?$_Deque_const_iterator@VCurrent@ctk@@V?$allocator@VCurrent@ctk@@@std@@$00@0@AAV?$_Deque_iterator@VCurrent@ctk@@V?$allocator@VCurrent@ctk@@@std@@$00@0@@Z 1000a8e0 f i base_func.obj
 0001:000098f0       ??$_Copy_opt@V?$_Deque_const_iterator@VCurrent@ctk@@V?$allocator@VCurrent@ctk@@@std@@$0A@@std@@V?$_Deque_iterator@VCurrent@ctk@@V?$allocator@VCurrent@ctk@@@std@@$00@2@@std@@YA?AV?$_Deque_iterator@VCurrent@ctk@@V?$allocator@VCurrent@ctk@@@std@@$00@0@V?$_Deque_const_iterator@VCurrent@ctk@@V?$allocator@VCurrent@ctk@@@std@@$0A@@0@0V10@Urandom_access_iterator_tag@0@U_Nonscalar_ptr_iterator_tag@0@U_Range_checked_iterator_tag@0@@Z 1000a8f0 f i base_func.obj
 0001:00009970       ??$_Checked_base@V?$_Deque_iterator@VCurrent@ctk@@V?$allocator@VCurrent@ctk@@@std@@$00@std@@@std@@YA?AV?$_Deque_iterator@VCurrent@ctk@@V?$allocator@VCurrent@ctk@@@std@@$0A@@0@AAV?$_Deque_iterator@VCurrent@ctk@@V?$allocator@VCurrent@ctk@@@std@@$00@0@@Z 1000a970 f i base_func.obj
 0001:00009990       ??$_Iter_random@V?$_Deque_iterator@VCurrent@ctk@@V?$allocator@VCurrent@ctk@@@std@@$00@std@@V12@@std@@YA?AUrandom_access_iterator_tag@0@ABV?$_Deque_iterator@VCurrent@ctk@@V?$allocator@VCurrent@ctk@@@std@@$00@0@0@Z 1000a990 f i base_func.obj
 0001:000099a0       ??$_Ptr_cat@V?$_Deque_iterator@VCurrent@ctk@@V?$allocator@VCurrent@ctk@@@std@@$00@std@@V12@@std@@YA?AU_Nonscalar_ptr_iterator_tag@0@AAV?$_Deque_iterator@VCurrent@ctk@@V?$allocator@VCurrent@ctk@@@std@@$00@0@0@Z 1000a9a0 f i base_func.obj
 0001:000099b0       ??$_Copy_backward_opt@V?$_Deque_iterator@VCurrent@ctk@@V?$allocator@VCurrent@ctk@@@std@@$0A@@std@@V?$_Deque_iterator@VCurrent@ctk@@V?$allocator@VCurrent@ctk@@@std@@$00@2@@std@@YA?AV?$_Deque_iterator@VCurrent@ctk@@V?$allocator@VCurrent@ctk@@@std@@$00@0@V?$_Deque_iterator@VCurrent@ctk@@V?$allocator@VCurrent@ctk@@@std@@$0A@@0@0V10@Urandom_access_iterator_tag@0@U_Nonscalar_ptr_iterator_tag@0@U_Range_checked_iterator_tag@0@@Z 1000a9b0 f i base_func.obj
 0001:00009a30       ??$_Copy_opt@V?$_Deque_iterator@VCurrent@ctk@@V?$allocator@VCurrent@ctk@@@std@@$0A@@std@@V?$_Deque_iterator@VCurrent@ctk@@V?$allocator@VCurrent@ctk@@@std@@$00@2@@std@@YA?AV?$_Deque_iterator@VCurrent@ctk@@V?$allocator@VCurrent@ctk@@@std@@$00@0@V?$_Deque_iterator@VCurrent@ctk@@V?$allocator@VCurrent@ctk@@@std@@$0A@@0@0V10@Urandom_access_iterator_tag@0@U_Nonscalar_ptr_iterator_tag@0@U_Range_checked_iterator_tag@0@@Z 1000aa30 f i base_func.obj
 0001:00009ab0       ?push_front@?$deque@VCurrent@ctk@@V?$allocator@VCurrent@ctk@@@std@@@std@@QAEXABVCurrent@ctk@@@Z 1000aab0 f i base_func.obj
 0001:00009b90       ?push_back@?$deque@VCurrent@ctk@@V?$allocator@VCurrent@ctk@@@std@@@std@@QAEXABVCurrent@ctk@@@Z 1000ab90 f i base_func.obj
 0001:00009c70       ?_Reverse@?$deque@VCurrent@ctk@@V?$allocator@VCurrent@ctk@@@std@@@std@@QAEXII@Z 1000ac70 f i base_func.obj
 0001:00009ce0       ??G?$_Deque_iterator@VCurrent@ctk@@V?$allocator@VCurrent@ctk@@@std@@$00@std@@QBE?AV01@H@Z 1000ace0 f i base_func.obj
 0001:00009d20       ??E?$_Deque_const_iterator@VCurrent@ctk@@V?$allocator@VCurrent@ctk@@@std@@$00@std@@QAEAAV01@XZ 1000ad20 f i base_func.obj
 0001:00009da0       ??9?$_Deque_const_iterator@VCurrent@ctk@@V?$allocator@VCurrent@ctk@@@std@@$00@std@@QBE_NABV01@@Z 1000ada0 f i base_func.obj
 0001:00009dd0       ??G?$_Deque_const_iterator@VCurrent@ctk@@V?$allocator@VCurrent@ctk@@@std@@$0A@@std@@QBEHABV01@@Z 1000add0 f i base_func.obj
 0001:00009e50       ??G?$_Deque_iterator@VCurrent@ctk@@V?$allocator@VCurrent@ctk@@@std@@$0A@@std@@QBEHABV?$_Deque_const_iterator@VCurrent@ctk@@V?$allocator@VCurrent@ctk@@@std@@$0A@@1@@Z 1000ae50 f i base_func.obj
 0001:00009e70       ?_Growmap@?$deque@VCurrent@ctk@@V?$allocator@VCurrent@ctk@@@std@@@std@@IAEXI@Z 1000ae70 f i base_func.obj
 0001:0000a090       ?allocate@?$allocator@VCurrent@ctk@@@std@@QAEPAVCurrent@ctk@@I@Z 1000b090 f i base_func.obj
 0001:0000a0b0       ?construct@?$allocator@VCurrent@ctk@@@std@@QAEXPAVCurrent@ctk@@ABV34@@Z 1000b0b0 f i base_func.obj
 0001:0000a0d0       ??Z?$_Deque_iterator@VCurrent@ctk@@V?$allocator@VCurrent@ctk@@@std@@$00@std@@QAEAAV01@H@Z 1000b0d0 f i base_func.obj
 0001:0000a0f0       ??A?$_Deque_iterator@VCurrent@ctk@@V?$allocator@VCurrent@ctk@@@std@@$00@std@@QBEAAVCurrent@ctk@@H@Z 1000b0f0 f i base_func.obj
 0001:0000a120       ?max_size@?$deque@VCurrent@ctk@@V?$allocator@VCurrent@ctk@@@std@@@std@@QBEIXZ 1000b120 f i base_func.obj
 0001:0000a140       ?_Xlen@?$deque@VCurrent@ctk@@V?$allocator@VCurrent@ctk@@@std@@@std@@KAXXZ 1000b140 f i base_func.obj
 0001:0000a1c0       ??0length_error@std@@QAE@ABV?$basic_string@DU?$char_traits@D@std@@V?$allocator@D@2@@1@@Z 1000b1c0 f i base_func.obj
 0001:0000a220       ??1length_error@std@@UAE@XZ 1000b220 f i base_func.obj
 0001:0000a280       ??_Glength_error@std@@UAEPAXI@Z 1000b280 f i base_func.obj
 0001:0000a280       ??_Elength_error@std@@UAEPAXI@Z 1000b280 f i base_func.obj
 0001:0000a2b0       ?allocate@?$allocator@PAVCurrent@ctk@@@std@@QAEPAPAVCurrent@ctk@@I@Z 1000b2b0 f i base_func.obj
 0001:0000a2d0       ??D?$_Deque_iterator@VCurrent@ctk@@V?$allocator@VCurrent@ctk@@@std@@$00@std@@QBEAAVCurrent@ctk@@XZ 1000b2d0 f i base_func.obj
 0001:0000a2f0       ??0length_error@std@@QAE@ABV01@@Z 1000b2f0 f i base_func.obj
 0001:0000a350       ?max_size@?$allocator@VCurrent@ctk@@@std@@QBEIXZ 1000b350 f i base_func.obj
 0001:0000a380       ??$_Checked_base@V?$_Deque_const_iterator@VCurrent@ctk@@V?$allocator@VCurrent@ctk@@@std@@$00@std@@U_Different_checked_iterator_base_type_tag@2@@std@@YA?AV?$_Deque_const_iterator@VCurrent@ctk@@V?$allocator@VCurrent@ctk@@@std@@$0A@@0@AAV?$_Deque_const_iterator@VCurrent@ctk@@V?$allocator@VCurrent@ctk@@@std@@$00@0@U_Different_checked_iterator_base_type_tag@0@@Z 1000b380 f i base_func.obj
 0001:0000a3a0       ??$_Copy_opt@V?$_Deque_const_iterator@VCurrent@ctk@@V?$allocator@VCurrent@ctk@@@std@@$0A@@std@@V?$_Deque_iterator@VCurrent@ctk@@V?$allocator@VCurrent@ctk@@@std@@$0A@@2@Uforward_iterator_tag@2@@std@@YA?AV?$_Deque_iterator@VCurrent@ctk@@V?$allocator@VCurrent@ctk@@@std@@$0A@@0@V?$_Deque_const_iterator@VCurrent@ctk@@V?$allocator@VCurrent@ctk@@@std@@$0A@@0@0V10@Uforward_iterator_tag@0@U_Nonscalar_ptr_iterator_tag@0@U_Range_checked_iterator_tag@0@@Z 1000b3a0 f i base_func.obj
 0001:0000a400       ??$_Checked_base@V?$_Deque_iterator@VCurrent@ctk@@V?$allocator@VCurrent@ctk@@@std@@$00@std@@U_Different_checked_iterator_base_type_tag@2@@std@@YA?AV?$_Deque_iterator@VCurrent@ctk@@V?$allocator@VCurrent@ctk@@@std@@$0A@@0@AAV?$_Deque_iterator@VCurrent@ctk@@V?$allocator@VCurrent@ctk@@@std@@$00@0@U_Different_checked_iterator_base_type_tag@0@@Z 1000b400 f i base_func.obj
 0001:0000a420       ??$_Copy_backward_opt@V?$_Deque_iterator@VCurrent@ctk@@V?$allocator@VCurrent@ctk@@@std@@$0A@@std@@V12@Uforward_iterator_tag@2@@std@@YA?AV?$_Deque_iterator@VCurrent@ctk@@V?$allocator@VCurrent@ctk@@@std@@$0A@@0@V10@00Uforward_iterator_tag@0@U_Nonscalar_ptr_iterator_tag@0@U_Range_checked_iterator_tag@0@@Z 1000b420 f i base_func.obj
 0001:0000a480       ??$_Copy_opt@V?$_Deque_iterator@VCurrent@ctk@@V?$allocator@VCurrent@ctk@@@std@@$0A@@std@@V12@Uforward_iterator_tag@2@@std@@YA?AV?$_Deque_iterator@VCurrent@ctk@@V?$allocator@VCurrent@ctk@@@std@@$0A@@0@V10@00Uforward_iterator_tag@0@U_Nonscalar_ptr_iterator_tag@0@U_Range_checked_iterator_tag@0@@Z 1000b480 f i base_func.obj
 0001:0000a4e0       ??$_Swap_adl@VCurrent@ctk@@@std@@YAXAAVCurrent@ctk@@0@Z 1000b4e0 f i base_func.obj
 0001:0000a500       ??$unchecked_uninitialized_copy@PAPAVCurrent@ctk@@PAPAV12@V?$allocator@PAVCurrent@ctk@@@std@@@stdext@@YAPAPAVCurrent@ctk@@PAPAV12@00AAV?$allocator@PAVCurrent@ctk@@@std@@@Z 1000b500 f i base_func.obj
 0001:0000a560       ??$unchecked_uninitialized_fill_n@PAPAVCurrent@ctk@@IPAV12@V?$allocator@PAVCurrent@ctk@@@std@@@stdext@@YAXPAPAVCurrent@ctk@@IABQAV12@AAV?$allocator@PAVCurrent@ctk@@@std@@@Z 1000b560 f i base_func.obj
 0001:0000a5b0       ??$_Destroy_range@V?$allocator@PAVCurrent@ctk@@@std@@@std@@YAXPAPAVCurrent@ctk@@0AAV?$allocator@PAVCurrent@ctk@@@0@@Z 1000b5b0 f i base_func.obj
 0001:0000a5f0       ??$_Allocate@VCurrent@ctk@@@std@@YAPAVCurrent@ctk@@IPAV12@@Z 1000b5f0 f i base_func.obj
 0001:0000a640       ??$_Construct@VCurrent@ctk@@V12@@std@@YAXPAVCurrent@ctk@@ABV12@@Z 1000b640 f i base_func.obj
 0001:0000a6c0       ??$_Allocate@PAVCurrent@ctk@@@std@@YAPAPAVCurrent@ctk@@IPAPAV12@@Z 1000b6c0 f i base_func.obj
 0001:0000a710       ?_Checked_iterator_base@?$_Deque_iterator@VCurrent@ctk@@V?$allocator@VCurrent@ctk@@@std@@$00@std@@QBE?AV?$_Deque_iterator@VCurrent@ctk@@V?$allocator@VCurrent@ctk@@@std@@$0A@@2@XZ 1000b710 f i base_func.obj
 0001:0000a750       ?_Checked_iterator_base@?$_Deque_const_iterator@VCurrent@ctk@@V?$allocator@VCurrent@ctk@@@std@@$00@std@@QBE?AV?$_Deque_const_iterator@VCurrent@ctk@@V?$allocator@VCurrent@ctk@@@std@@$0A@@2@XZ 1000b750 f i base_func.obj
 0001:0000a790       ??D?$_Deque_const_iterator@VCurrent@ctk@@V?$allocator@VCurrent@ctk@@@std@@$0A@@std@@QBEABVCurrent@ctk@@XZ 1000b790 f i base_func.obj
 0001:0000a840       ??E?$_Deque_const_iterator@VCurrent@ctk@@V?$allocator@VCurrent@ctk@@@std@@$0A@@std@@QAEAAV01@XZ 1000b840 f i base_func.obj
 0001:0000a8b0       ??9?$_Deque_const_iterator@VCurrent@ctk@@V?$allocator@VCurrent@ctk@@@std@@$0A@@std@@QBE_NABV01@@Z 1000b8b0 f i base_func.obj
 0001:0000a8e0       ??D?$_Deque_iterator@VCurrent@ctk@@V?$allocator@VCurrent@ctk@@@std@@$0A@@std@@QBEAAVCurrent@ctk@@XZ 1000b8e0 f i base_func.obj
 0001:0000a900       ??E?$_Deque_iterator@VCurrent@ctk@@V?$allocator@VCurrent@ctk@@@std@@$0A@@std@@QAEAAV01@XZ 1000b900 f i base_func.obj
 0001:0000a920       ??F?$_Deque_iterator@VCurrent@ctk@@V?$allocator@VCurrent@ctk@@@std@@$0A@@std@@QAEAAV01@XZ 1000b920 f i base_func.obj
 0001:0000a940       ??0?$_Deque_const_iterator@VCurrent@ctk@@V?$allocator@VCurrent@ctk@@@std@@$0A@@std@@QAE@IPBV_Container_base_aux@1@@Z 1000b940 f i base_func.obj
 0001:0000a9a0       ??F?$_Deque_const_iterator@VCurrent@ctk@@V?$allocator@VCurrent@ctk@@@std@@$0A@@std@@QAEAAV01@XZ 1000b9a0 f i base_func.obj
 0001:0000aa00       ??8?$_Deque_const_iterator@VCurrent@ctk@@V?$allocator@VCurrent@ctk@@@std@@$0A@@std@@QBE_NABV01@@Z 1000ba00 f i base_func.obj
 0001:0000aa50       ??0?$_Deque_iterator@VCurrent@ctk@@V?$allocator@VCurrent@ctk@@@std@@$0A@@std@@QAE@IPBV_Container_base_aux@1@@Z 1000ba50 f i base_func.obj
 0001:0000aa70       ??$swap@VCurrent@ctk@@@std@@YAXAAVCurrent@ctk@@0@Z 1000ba70 f i base_func.obj
 0001:0000ab00       ??$_Checked_base@PAPAVCurrent@ctk@@@std@@YAPAPAVCurrent@ctk@@AAPAPAV12@@Z 1000bb00 f i base_func.obj
 0001:0000ab20       ??$_Ptr_cat@PAPAVCurrent@ctk@@PAPAV12@@std@@YA?AU_Scalar_ptr_iterator_tag@0@AAPAPAVCurrent@ctk@@0@Z 1000bb20 f i base_func.obj
 0001:0000ab30       ??$_Uninit_copy@PAPAVCurrent@ctk@@PAPAV12@V?$allocator@PAVCurrent@ctk@@@std@@@std@@YAPAPAVCurrent@ctk@@PAPAV12@00AAV?$allocator@PAVCurrent@ctk@@@0@U_Scalar_ptr_iterator_tag@0@U_Range_checked_iterator_tag@0@@Z 1000bb30 f i base_func.obj
 0001:0000ab80       ??$_Uninit_fill_n@PAPAVCurrent@ctk@@IPAV12@V?$allocator@PAVCurrent@ctk@@@std@@@std@@YAXPAPAVCurrent@ctk@@IABQAV12@AAV?$allocator@PAVCurrent@ctk@@@0@U_Scalar_ptr_iterator_tag@0@U_Range_checked_iterator_tag@0@@Z 1000bb80 f i base_func.obj
 0001:0000aba0       ??$_Destroy_range@V?$allocator@PAVCurrent@ctk@@@std@@@std@@YAXPAPAVCurrent@ctk@@0AAV?$allocator@PAVCurrent@ctk@@@0@U_Scalar_ptr_iterator_tag@0@@Z 1000bba0 f i base_func.obj
 0001:0000abb0       ??$_Checked_base@PAPAVCurrent@ctk@@@std@@YAPAPAVCurrent@ctk@@AAPAPAV12@U_Unchanged_checked_iterator_base_type_tag@0@@Z 1000bbb0 f i base_func.obj
 0001:0000abc0       ??$unchecked_fill_n@PAPAVCurrent@ctk@@IPAV12@@stdext@@YAXPAPAVCurrent@ctk@@IABQAV12@@Z 1000bbc0 f i base_func.obj
 0001:0000ac00       ??$_Iter_cat@PAPAVCurrent@ctk@@@std@@YA?AUrandom_access_iterator_tag@0@ABQAPAVCurrent@ctk@@@Z 1000bc00 f i base_func.obj
 0001:0000ac10       ??$_Fill_n@PAPAVCurrent@ctk@@IPAV12@@std@@YAXPAPAVCurrent@ctk@@IABQAV12@Urandom_access_iterator_tag@0@U_Range_checked_iterator_tag@0@@Z 1000bc10 f i base_func.obj
 0001:0000ac50       ??$_Fill_n@PAPAVCurrent@ctk@@IPAV12@@std@@YAXPAPAVCurrent@ctk@@IABQAV12@U_Range_checked_iterator_tag@0@@Z 1000bc50 f i base_func.obj
 0001:0000ac80       ?closing@System@ctk@@SA_NXZ 1000bc80 f   base_system.obj
 0001:0000ac90       ?close@System@ctk@@SAXXZ   1000bc90 f   base_system.obj
 0001:0000aca0       ??0Bytes@ctk@@QAE@XZ       1000bca0 f   base_type_bytes.obj
 0001:0000acc0       ??0Bytes@ctk@@QAE@K@Z      1000bcc0 f   base_type_bytes.obj
 0001:0000acf0       ??0Bytes@ctk@@QAE@ABV01@@Z 1000bcf0 f   base_type_bytes.obj
 0001:0000ad20       ??0Bytes@ctk@@QAE@Uistr@1@@Z 1000bd20 f   base_type_bytes.obj
 0001:0000ad50       ??1Bytes@ctk@@QAE@XZ       1000bd50 f   base_type_bytes.obj
 0001:0000ad70       ?init@Bytes@ctk@@QAEXK@Z   1000bd70 f   base_type_bytes.obj
 0001:0000ada0       ?clear@Bytes@ctk@@QAEXXZ   1000bda0 f   base_type_bytes.obj
 0001:0000adc0       ?resize@Bytes@ctk@@QAEXK@Z 1000bdc0 f   base_type_bytes.obj
 0001:0000ae80       ??BBytes@ctk@@QBE?AUistr@1@XZ 1000be80 f   base_type_bytes.obj
 0001:0000aeb0       ??BBytes@ctk@@QAE?AUostr@1@XZ 1000beb0 f   base_type_bytes.obj
 0001:0000aee0       ??4Bytes@ctk@@QAEAAV01@ABV01@@Z 1000bee0 f   base_type_bytes.obj
 0001:0000af00       ??4Bytes@ctk@@QAEAAV01@Uistr@1@@Z 1000bf00 f   base_type_bytes.obj
 0001:0000af30       ??YBytes@ctk@@QAEAAV01@Uistr@1@@Z 1000bf30 f   base_type_bytes.obj
 0001:0000af60       ?assign@Bytes@ctk@@QAEAAV12@ABV12@@Z 1000bf60 f   base_type_bytes.obj
 0001:0000af80       ?assign@Bytes@ctk@@QAEAAV12@Uistr@2@@Z 1000bf80 f   base_type_bytes.obj
 0001:0000afb0       ?append@Bytes@ctk@@QAEAAV12@Uistr@2@@Z 1000bfb0 f   base_type_bytes.obj
 0001:0000b020       ?swap@Bytes@ctk@@QAEXAAV12@@Z 1000c020 f   base_type_bytes.obj
 0001:0000b070       ?begin@Bytes@ctk@@QBEPBEXZ 1000c070 f   base_type_bytes.obj
 0001:0000b090       ?end@Bytes@ctk@@QBEPBEXZ   1000c090 f   base_type_bytes.obj
 0001:0000b0c0       ?buffer@Bytes@ctk@@QAEPAEXZ 1000c0c0 f   base_type_bytes.obj
 0001:0000b0d0       ?max_size@Bytes@ctk@@QBEKXZ 1000c0d0 f   base_type_bytes.obj
 0001:0000b0f0       ?size@Bytes@ctk@@QAEXK@Z   1000c0f0 f   base_type_bytes.obj
 0001:0000b110       ?c_str@Bytes@ctk@@QBEPBDXZ 1000c110 f   base_type_bytes.obj
 0001:0000b130       ?data@Bytes@ctk@@QBEPBEXZ  1000c130 f   base_type_bytes.obj
 0001:0000b140       ?size@Bytes@ctk@@QBEKXZ    1000c140 f   base_type_bytes.obj
 0001:0000b160       ?empty@Bytes@ctk@@QBE_NXZ  1000c160 f   base_type_bytes.obj
 0001:0000b180       ?alloc@Bytes@ctk@@AAEXK@Z  1000c180 f   base_type_bytes.obj
 0001:0000b1c0       ?free@Bytes@ctk@@AAEXXZ    1000c1c0 f   base_type_bytes.obj
 0001:0000b1f0       ?reset@Bytes@ctk@@AAEXXZ   1000c1f0 f   base_type_bytes.obj
 0001:0000b220       ?set@Bytes@ctk@@AAEXABV12@@Z 1000c220 f   base_type_bytes.obj
 0001:0000b250       ?set@Bytes@ctk@@AAEXUistr@2@@Z 1000c250 f   base_type_bytes.obj
 0001:0000b280       ?set@Bytes@ctk@@AAEXPBEK@Z 1000c280 f   base_type_bytes.obj
 0001:0000b2a0       ?set@Bytes@ctk@@AAEXPBDK@Z 1000c2a0 f   base_type_bytes.obj
 0001:0000b2f0       ?copy@Bytes@ctk@@AAEXKUistr@2@@Z 1000c2f0 f   base_type_bytes.obj
 0001:0000b320       ?copy@Bytes@ctk@@AAEXKPBDK@Z 1000c320 f   base_type_bytes.obj
 0001:0000b350       ?advance@Bytes@ctk@@AAEXK@Z 1000c350 f   base_type_bytes.obj
 0001:0000b370       ??$swap@PAE@std@@YAXAAPAE0@Z 1000c370 f i base_type_bytes.obj
 0001:0000b3a0       ??$swap@K@std@@YAXAAK0@Z   1000c3a0 f i base_type_bytes.obj
 0001:0000b3d0       ??$allocate_a@E@ctk@@YAPAEPBDI0K@Z 1000c3d0 f i base_type_bytes.obj
 0001:0000b410       ??$destroy_a@E@ctk@@YAXAAPAEPBDI1@Z 1000c410 f i base_type_bytes.obj
 0001:0000b450       ??$allocate_a_no_mlc@E@ctk@@YAPAEPBDI0K@Z 1000c450 f i base_type_bytes.obj
 0001:0000b480       ??$allocate_push_maybe@E@ctk@@YAPAEPAEPBDI1@Z 1000c480 f i base_type_bytes.obj
 0001:0000b4b0       ??$destroy_pop_maybe@E@ctk@@YAXPAEPBDI1@Z 1000c4b0 f i base_type_bytes.obj
 0001:0000b4e0       ??$destroy_a_no_mlc@E@ctk@@YAXAAPAEPBDI1@Z 1000c4e0 f i base_type_bytes.obj
 0001:0000b520       ??_U@YAPAXIPBDI0@Z         1000c520 f i base_type_bytes.obj
 0001:0000b540       ??0istr@ctk@@QAE@XZ        1000c540 f   base_type_istr.obj
 0001:0000b570       ??0istr@ctk@@QAE@PBDK@Z    1000c570 f   base_type_istr.obj
 0001:0000b5d0       ??0istr@ctk@@QAE@PBEK@Z    1000c5d0 f   base_type_istr.obj
 0001:0000b630       ??0istr@ctk@@QAE@ABV?$basic_string@DU?$char_traits@D@std@@V?$allocator@D@2@@std@@@Z 1000c630 f   base_type_istr.obj
 0001:0000b660       ??0istr@ctk@@QAE@ABU01@@Z  1000c660 f   base_type_istr.obj
 0001:0000b690       ??0istr@ctk@@QAE@U01@K@Z   1000c690 f   base_type_istr.obj
 0001:0000b6c0       ??4istr@ctk@@QAEAAU01@ABU01@@Z 1000c6c0 f   base_type_istr.obj
 0001:0000b700       ??8istr@ctk@@QBE_NABU01@@Z 1000c700 f   base_type_istr.obj
 0001:0000b720       ??Mistr@ctk@@QBE_NABU01@@Z 1000c720 f   base_type_istr.obj
 0001:0000b750       ??Oistr@ctk@@QBE_NABU01@@Z 1000c750 f   base_type_istr.obj
 0001:0000b780       ??9istr@ctk@@QBE_NABU01@@Z 1000c780 f   base_type_istr.obj
 0001:0000b7a0       ??Nistr@ctk@@QBE_NABU01@@Z 1000c7a0 f   base_type_istr.obj
 0001:0000b7d0       ??Pistr@ctk@@QBE_NABU01@@Z 1000c7d0 f   base_type_istr.obj
 0001:0000b800       ?compare@istr@ctk@@QBEHABU12@@Z 1000c800 f   base_type_istr.obj
 0001:0000b890       ?substr@istr@ctk@@QBE?AU12@KK@Z 1000c890 f   base_type_istr.obj
 0001:0000b8f0       ?leftstr@istr@ctk@@QBE?AU12@K@Z 1000c8f0 f   base_type_istr.obj
 0001:0000b920       ?rightstr@istr@ctk@@QBE?AU12@K@Z 1000c920 f   base_type_istr.obj
 0001:0000b980       ?removeLeft@istr@ctk@@QBE?AU12@K@Z 1000c980 f   base_type_istr.obj
 0001:0000b9b0       ?removeRight@istr@ctk@@QBE?AU12@K@Z 1000c9b0 f   base_type_istr.obj
 0001:0000b9e0       ?removeLeft@istr@ctk@@QBE?AU12@ABU12@@Z 1000c9e0 f   base_type_istr.obj
 0001:0000ba10       ?removeRight@istr@ctk@@QBE?AU12@ABU12@@Z 1000ca10 f   base_type_istr.obj
 0001:0000ba40       ?beginWith@istr@ctk@@QBE_NU12@@Z 1000ca40 f   base_type_istr.obj
 0001:0000ba70       ?endWith@istr@ctk@@QBE_NU12@@Z 1000ca70 f   base_type_istr.obj
 0001:0000baa0       ?dump@istr@ctk@@QBEAAV?$basic_ostream@DU?$char_traits@D@std@@@std@@AAV34@@Z 1000caa0 f   base_type_istr.obj
 0001:0000bb10       ??6ctk@@YAAAV?$basic_ostream@DU?$char_traits@D@std@@@std@@AAV12@ABUistr@0@@Z 1000cb10 f   base_type_istr.obj
 0001:0000bb50       ??$Min@KK@ctk@@YAKKK@Z     1000cb50 f i base_type_istr.obj
 0001:0000bb80       ??0iwstr@ctk@@QAE@XZ       1000cb80 f   base_type_iwstr.obj
 0001:0000bbb0       ??0iwstr@ctk@@QAE@PB_WK@Z  1000cbb0 f   base_type_iwstr.obj
 0001:0000bc00       ??0iwstr@ctk@@QAE@ABV?$basic_string@_WU?$char_traits@_W@std@@V?$allocator@_W@2@@std@@@Z 1000cc00 f   base_type_iwstr.obj
 0001:0000bc30       ??0iwstr@ctk@@QAE@ABU01@@Z 1000cc30 f   base_type_iwstr.obj
 0001:0000bc60       ??0iwstr@ctk@@QAE@ABU01@K@Z 1000cc60 f   base_type_iwstr.obj
 0001:0000bca0       ??4iwstr@ctk@@QAEAAU01@ABU01@@Z 1000cca0 f   base_type_iwstr.obj
 0001:0000bce0       ??8iwstr@ctk@@QBE_NABU01@@Z 1000cce0 f   base_type_iwstr.obj
 0001:0000bd00       ??Miwstr@ctk@@QBE_NABU01@@Z 1000cd00 f   base_type_iwstr.obj
 0001:0000bd30       ??Oiwstr@ctk@@QBE_NABU01@@Z 1000cd30 f   base_type_iwstr.obj
 0001:0000bd60       ??9iwstr@ctk@@QBE_NABU01@@Z 1000cd60 f   base_type_iwstr.obj
 0001:0000bd80       ??Niwstr@ctk@@QBE_NABU01@@Z 1000cd80 f   base_type_iwstr.obj
 0001:0000bdb0       ??Piwstr@ctk@@QBE_NABU01@@Z 1000cdb0 f   base_type_iwstr.obj
 0001:0000bde0       ?compare@iwstr@ctk@@QBEHABU12@@Z 1000cde0 f   base_type_iwstr.obj
 0001:0000be70       ?substr@iwstr@ctk@@QBE?AU12@KK@Z 1000ce70 f   base_type_iwstr.obj
 0001:0000bee0       ?leftstr@iwstr@ctk@@QBE?AU12@K@Z 1000cee0 f   base_type_iwstr.obj
 0001:0000bf10       ?rightstr@iwstr@ctk@@QBE?AU12@K@Z 1000cf10 f   base_type_iwstr.obj
 0001:0000bf70       ?removeLeft@iwstr@ctk@@QBE?AU12@K@Z 1000cf70 f   base_type_iwstr.obj
 0001:0000bfb0       ?removeRight@iwstr@ctk@@QBE?AU12@K@Z 1000cfb0 f   base_type_iwstr.obj
 0001:0000bfe0       ?removeLeft@iwstr@ctk@@QBE?AU12@ABU12@@Z 1000cfe0 f   base_type_iwstr.obj
 0001:0000c010       ?removeRight@iwstr@ctk@@QBE?AU12@ABU12@@Z 1000d010 f   base_type_iwstr.obj
 0001:0000c040       ?trimLeft@iwstr@ctk@@QBE?AU12@XZ 1000d040 f   base_type_iwstr.obj
 0001:0000c0b0       ?beginWith@iwstr@ctk@@QBE_NU12@@Z 1000d0b0 f   base_type_iwstr.obj
 0001:0000c0e0       ?dump@iwstr@ctk@@QBEAAV?$basic_ostream@DU?$char_traits@D@std@@@std@@AAV34@@Z 1000d0e0 f   base_type_iwstr.obj
 0001:0000c190       ??6ctk@@YAAAV?$basic_ostream@DU?$char_traits@D@std@@@std@@AAV12@ABUiwstr@0@@Z 1000d190 f   base_type_iwstr.obj
 0001:0000c230       ?empty@iwstr@ctk@@QBE_NXZ  1000d230 f i base_type_iwstr.obj
 0001:0000c270       ?data@iwstr@ctk@@QBEPB_WXZ 1000d270 f i base_type_iwstr.obj
 0001:0000c290       ?size@iwstr@ctk@@QBEKXZ    1000d290 f i base_type_iwstr.obj
 0001:0000c2a0       ?StrLen@ctk@@YAKPB_WK@Z    1000d2a0 f i base_type_iwstr.obj
 0001:0000c2e0       ??0ostr@ctk@@QAE@XZ        1000d2e0 f   base_type_ostr.obj
 0001:0000c310       ??0ostr@ctk@@QAE@ABU01@@Z  1000d310 f   base_type_ostr.obj
 0001:0000c340       ??0ostr@ctk@@QAE@PADK@Z    1000d340 f   base_type_ostr.obj
 0001:0000c370       ??0ostr@ctk@@QAE@PAEK@Z    1000d370 f   base_type_ostr.obj
 0001:0000c3a0       ??4ostr@ctk@@QAEAAU01@ABU01@@Z 1000d3a0 f   base_type_ostr.obj
 0001:0000c3c0       ??4ostr@ctk@@QAEAAU01@PBD@Z 1000d3c0 f   base_type_ostr.obj
 0001:0000c3e0       ??4ostr@ctk@@QAEAAU01@PBE@Z 1000d3e0 f   base_type_ostr.obj
 0001:0000c400       ??4ostr@ctk@@QAEAAU01@Uistr@1@@Z 1000d400 f   base_type_ostr.obj
 0001:0000c430       ??Bostr@ctk@@QBE?AUistr@1@XZ 1000d430 f   base_type_ostr.obj
 0001:0000c460       ?substr@ostr@ctk@@QBE?AU12@KK@Z 1000d460 f   base_type_ostr.obj
 0001:0000c4c0       ?leftstr@ostr@ctk@@QBE?AU12@K@Z 1000d4c0 f   base_type_ostr.obj
 0001:0000c4f0       ?rightstr@ostr@ctk@@QBE?AU12@K@Z 1000d4f0 f   base_type_ostr.obj
 0001:0000c550       ?size@ostr@ctk@@QBEKXZ     1000d550 f   base_type_ostr.obj
 0001:0000c570       ?sizeN@ostr@ctk@@QBEKXZ    1000d570 f   base_type_ostr.obj
 0001:0000c590       ?sizeN@ostr@ctk@@QBEKK@Z   1000d590 f   base_type_ostr.obj
 0001:0000c5b0       ?clear@ostr@ctk@@QAEAAU12@XZ 1000d5b0 f   base_type_ostr.obj
 0001:0000c5d0       ?reset@ostr@ctk@@QAEAAU12@XZ 1000d5d0 f   base_type_ostr.obj
 0001:0000c610       ?assign@ostr@ctk@@QAEAAU12@ABU12@@Z 1000d610 f   base_type_ostr.obj
 0001:0000c650       ?assign@ostr@ctk@@QAEAAU12@PBE@Z 1000d650 f   base_type_ostr.obj
 0001:0000c670       ?assign@ostr@ctk@@QAEAAU12@PBD@Z 1000d670 f   base_type_ostr.obj
 0001:0000c6a0       ?assign@ostr@ctk@@QAEAAU12@PBEK@Z 1000d6a0 f   base_type_ostr.obj
 0001:0000c6c0       ?assign@ostr@ctk@@QAEAAU12@PBDK@Z 1000d6c0 f   base_type_ostr.obj
 0001:0000c730       ?assign@ostr@ctk@@QAEAAU12@Uistr@2@@Z 1000d730 f   base_type_ostr.obj
 0001:0000c760       ?dump@ostr@ctk@@QBEAAV?$basic_ostream@DU?$char_traits@D@std@@@std@@AAV34@@Z 1000d760 f   base_type_ostr.obj
 0001:0000c7e0       ?max_size@ostr@ctk@@QBEKXZ 1000d7e0 f i base_type_ostr.obj
 0001:0000c7f0       ?data@ostr@ctk@@QBEPBDXZ   1000d7f0 f i base_type_ostr.obj
 0001:0000c810       ??0String@ctk@@QAE@XZ      1000d810 f   base_type_string.obj
 0001:0000c860       ??0String@ctk@@QAE@ABV01@@Z 1000d860 f   base_type_string.obj
 0001:0000c8c0       ??0String@ctk@@QAE@ABV?$basic_string@DU?$char_traits@D@std@@V?$allocator@D@2@@std@@@Z 1000d8c0 f   base_type_string.obj
 0001:0000c920       ??0String@ctk@@QAE@ABV?$basic_string@_WU?$char_traits@_W@std@@V?$allocator@_W@2@@std@@@Z 1000d920 f   base_type_string.obj
 0001:0000c990       ??0String@ctk@@QAE@Uistr@1@@Z 1000d990 f   base_type_string.obj
 0001:0000ca00       ??0String@ctk@@QAE@Uiwstr@1@@Z 1000da00 f   base_type_string.obj
 0001:0000ca70       ??0String@ctk@@QAE@PBD@Z   1000da70 f   base_type_string.obj
 0001:0000cad0       ??0String@ctk@@QAE@PBE@Z   1000dad0 f   base_type_string.obj
 0001:0000cb30       ??0String@ctk@@QAE@PB_W@Z  1000db30 f   base_type_string.obj
 0001:0000cbc0       ??0String@ctk@@QAE@PBDI@Z  1000dbc0 f   base_type_string.obj
 0001:0000cc20       ??0String@ctk@@QAE@PBEI@Z  1000dc20 f   base_type_string.obj
 0001:0000cc80       ??7String@ctk@@QBE_NXZ     1000dc80 f   base_type_string.obj
 0001:0000cca0       ??BString@ctk@@QBEPAXXZ    1000dca0 f   base_type_string.obj
 0001:0000ccd0       ??BString@ctk@@QBE?AV?$basic_string@_WU?$char_traits@_W@std@@V?$allocator@_W@2@@std@@XZ 1000dcd0 f   base_type_string.obj
 0001:0000cd70       ??4String@ctk@@QAEAAV01@ABV01@@Z 1000dd70 f   base_type_string.obj
 0001:0000cda0       ??4String@ctk@@QAEAAV01@ABV?$basic_string@DU?$char_traits@D@std@@V?$allocator@D@2@@std@@@Z 1000dda0 f   base_type_string.obj
 0001:0000cdc0       ??4String@ctk@@QAEAAV01@ABV?$basic_string@_WU?$char_traits@_W@std@@V?$allocator@_W@2@@std@@@Z 1000ddc0 f   base_type_string.obj
 0001:0000ce60       ??4String@ctk@@QAEAAV01@Uistr@1@@Z 1000de60 f   base_type_string.obj
 0001:0000ceb0       ??4String@ctk@@QAEAAV01@Uiwstr@1@@Z 1000deb0 f   base_type_string.obj
 0001:0000cf40       ??4String@ctk@@QAEAAV01@PBD@Z 1000df40 f   base_type_string.obj
 0001:0000cf70       ??4String@ctk@@QAEAAV01@PBE@Z 1000df70 f   base_type_string.obj
 0001:0000cfa0       ??4String@ctk@@QAEAAV01@PB_W@Z 1000dfa0 f   base_type_string.obj
 0001:0000d030       ??YString@ctk@@QAEAAV01@ABV01@@Z 1000e030 f   base_type_string.obj
 0001:0000d050       ??YString@ctk@@QAEAAV01@ABV?$basic_string@DU?$char_traits@D@std@@V?$allocator@D@2@@std@@@Z 1000e050 f   base_type_string.obj
 0001:0000d070       ??YString@ctk@@QAEAAV01@ABV?$basic_string@_WU?$char_traits@_W@std@@V?$allocator@_W@2@@std@@@Z 1000e070 f   base_type_string.obj
 0001:0000d0a0       ??YString@ctk@@QAEAAV01@ABUistr@1@@Z 1000e0a0 f   base_type_string.obj
 0001:0000d0e0       ??YString@ctk@@QAEAAV01@ABUiwstr@1@@Z 1000e0e0 f   base_type_string.obj
 0001:0000d170       ??YString@ctk@@QAEAAV01@ABQAD@Z 1000e170 f   base_type_string.obj
 0001:0000d1a0       ??YString@ctk@@QAEAAV01@ABQAE@Z 1000e1a0 f   base_type_string.obj
 0001:0000d1d0       ??YString@ctk@@QAEAAV01@ABQA_W@Z 1000e1d0 f   base_type_string.obj
 0001:0000d260       ??YString@ctk@@QAEAAV01@ABQBD@Z 1000e260 f   base_type_string.obj
 0001:0000d290       ??YString@ctk@@QAEAAV01@ABQBE@Z 1000e290 f   base_type_string.obj
 0001:0000d2c0       ??YString@ctk@@QAEAAV01@ABQB_W@Z 1000e2c0 f   base_type_string.obj
 0001:0000d350       ??YString@ctk@@QAEAAV01@ABD@Z 1000e350 f   base_type_string.obj
 0001:0000d370       ??YString@ctk@@QAEAAV01@ABE@Z 1000e370 f   base_type_string.obj
 0001:0000d390       ?clear@String@ctk@@QAEAAV12@XZ 1000e390 f   base_type_string.obj
 0001:0000d3b0       ?trimLeftRight@String@ctk@@QAEAAV12@D@Z 1000e3b0 f   base_type_string.obj
 0001:0000d430       ?null@String@ctk@@SAABV12@XZ 1000e430 f   base_type_string.obj
 0001:0000d4b0       ?ansiFromUtf8@String@ctk@@QAEXABUistr@2@@Z 1000e4b0 f   base_type_string.obj
 0001:0000d4d0       ?ansiToUtf8@String@ctk@@QBEXAAVBytes@2@@Z 1000e4d0 f   base_type_string.obj
 0001:0000d500       ?ansiToUtf8@ctk@@YAXABUistr@1@AAVBytes@1@@Z 1000e500 f   base_type_string.obj
 0001:0000d6c0       ?utf8ToAnsi@ctk@@YAXABUistr@1@AAVString@1@@Z 1000e6c0 f   base_type_string.obj
 0001:0000d870       ?utf8ToWstring@ctk@@YAXABUistr@1@AAV?$basic_string@_WU?$char_traits@_W@std@@V?$allocator@_W@2@@std@@@Z 1000e870 f   base_type_string.obj
 0001:0000d9a0       ?wstringToUtf8@ctk@@YAXABUiwstr@1@AAVBytes@1@@Z 1000e9a0 f   base_type_string.obj
 0001:0000dae0       ?ansiToWstring@ctk@@YAXABUistr@1@AAV?$basic_string@_WU?$char_traits@_W@std@@V?$allocator@_W@2@@std@@@Z 1000eae0 f   base_type_string.obj
 0001:0000dbe0       ?wstringToAnsi@ctk@@YAXABUiwstr@1@AAVString@1@@Z 1000ebe0 f   base_type_string.obj
 0001:0000dd10       ?to_str@ctk@@YA?AV?$AutoPtr@D@1@PBD@Z 1000ed10 f   base_type_string.obj
 0001:0000de00       ?to_str@ctk@@YA?AV?$AutoPtr@D@1@PB_W@Z 1000ee00 f   base_type_string.obj
 0001:0000df30       ?to_utf8str@ctk@@YA?AV?$AutoPtr@D@1@PB_W@Z 1000ef30 f   base_type_string.obj
 0001:0000e060       ?to_wstr@ctk@@YA?AV?$AutoPtr@_W@1@PBD@Z 1000f060 f   base_type_string.obj
 0001:0000e180       ?to_wstr@ctk@@YA?AV?$AutoPtr@_W@1@PB_W@Z 1000f180 f   base_type_string.obj
 0001:0000e270       ?toUtf8@ctk@@YA?AVBytes@1@Uwstr@1@@Z 1000f270 f   base_type_string.obj
 0001:0000e2f0       ?toAnsi@ctk@@YA?AVString@1@Uwstr@1@@Z 1000f2f0 f   base_type_string.obj
 0001:0000e380       ?toWstring@ctk@@YA?AV?$basic_string@_WU?$char_traits@_W@std@@V?$allocator@_W@2@@std@@Uwstr@1@@Z 1000f380 f   base_type_string.obj
 0001:0000e400       ?toUtf8@ctk@@YA?AVBytes@1@Uansi@1@@Z 1000f400 f   base_type_string.obj
 0001:0000e480       ?toAnsi@ctk@@YA?AVString@1@Uansi@1@@Z 1000f480 f   base_type_string.obj
 0001:0000e4f0       ?toWstring@ctk@@YA?AV?$basic_string@_WU?$char_traits@_W@std@@V?$allocator@_W@2@@std@@Uansi@1@@Z 1000f4f0 f   base_type_string.obj
 0001:0000e580       ?toUtf8@ctk@@YA?AVBytes@1@Uutf8@1@@Z 1000f580 f   base_type_string.obj
 0001:0000e5f0       ?toAnsi@ctk@@YA?AVString@1@Uutf8@1@@Z 1000f5f0 f   base_type_string.obj
 0001:0000e680       ?toWstring@ctk@@YA?AV?$basic_string@_WU?$char_traits@_W@std@@V?$allocator@_W@2@@std@@Uutf8@1@@Z 1000f680 f   base_type_string.obj
 0001:0000e710       ?test_string@test@@YAXXZ   1000f710 f   base_type_string.obj
 0001:0000e8d0       ??0?$AutoPtr@D@ctk@@QAE@PAD@Z 1000f8d0 f i base_type_string.obj
 0001:0000e930       ??0?$AutoPtr@D@ctk@@QAE@AAV01@@Z 1000f930 f i base_type_string.obj
 0001:0000e990       ??1?$AutoPtr@D@ctk@@QAE@XZ 1000f990 f i base_type_string.obj
 0001:0000ea00       ??4?$AutoPtr@D@ctk@@QAEAAV01@PAD@Z 1000fa00 f i base_type_string.obj
 0001:0000ea20       ?get@?$auto_ptr@D@std@@QBEPADXZ 1000fa20 f i base_type_string.obj
 0001:0000ea30       ??0?$AutoPtr@_W@ctk@@QAE@PA_W@Z 1000fa30 f i base_type_string.obj
 0001:0000ea90       ??0?$AutoPtr@_W@ctk@@QAE@AAV01@@Z 1000fa90 f i base_type_string.obj
 0001:0000eaf0       ??1?$AutoPtr@_W@ctk@@QAE@XZ 1000faf0 f i base_type_string.obj
 0001:0000eb60       ??4?$AutoPtr@_W@ctk@@QAEAAV01@PA_W@Z 1000fb60 f i base_type_string.obj
 0001:0000eb80       ?get@?$auto_ptr@_W@std@@QBEPA_WXZ 1000fb80 f i base_type_string.obj
 0001:0000eb90       ??0?$auto_ptr@D@std@@QAE@PAD@Z 1000fb90 f i base_type_string.obj
 0001:0000ebb0       ??0?$auto_ptr@D@std@@QAE@AAV01@@Z 1000fbb0 f i base_type_string.obj
 0001:0000ebd0       ??1?$auto_ptr@D@std@@QAE@XZ 1000fbd0 f i base_type_string.obj
 0001:0000ec00       ?reset@?$auto_ptr@D@std@@QAEXPAD@Z 1000fc00 f i base_type_string.obj
 0001:0000ec40       ??0?$auto_ptr@_W@std@@QAE@PA_W@Z 1000fc40 f i base_type_string.obj
 0001:0000ec60       ??0?$auto_ptr@_W@std@@QAE@AAV01@@Z 1000fc60 f i base_type_string.obj
 0001:0000ec80       ??1?$auto_ptr@_W@std@@QAE@XZ 1000fc80 f i base_type_string.obj
 0001:0000ecb0       ?reset@?$auto_ptr@_W@std@@QAEXPA_W@Z 1000fcb0 f i base_type_string.obj
 0001:0000ecf0       ?release@?$auto_ptr@D@std@@QAEPADXZ 1000fcf0 f i base_type_string.obj
 0001:0000ed20       ?release@?$auto_ptr@_W@std@@QAEPA_WXZ 1000fd20 f i base_type_string.obj
 0001:0000ed50       ??$allocate_a@_W@ctk@@YAPA_WPBDI0K@Z 1000fd50 f i base_type_string.obj
 0001:0000ed90       ??$allocate_a@D@ctk@@YAPADPBDI0K@Z 1000fd90 f i base_type_string.obj
 0001:0000edd0       ??$?6PAD@ctk@@YAAAVString@0@AAV10@ABQAD@Z 1000fdd0 f i base_type_string.obj
 0001:0000edf0       ??$destroy_pop@D@ctk@@YAXPADPBDI1@Z 1000fdf0 f i base_type_string.obj
 0001:0000ee20       ??$destroy_pop@_W@ctk@@YAXPA_WPBDI1@Z 1000fe20 f i base_type_string.obj
 0001:0000ee50       ??$allocate_a_no_mlc@_W@ctk@@YAPA_WPBDI0K@Z 1000fe50 f i base_type_string.obj
 0001:0000ee90       ??$allocate_push_maybe@_W@ctk@@YAPA_WPA_WPBDI1@Z 1000fe90 f i base_type_string.obj
 0001:0000eec0       ??$allocate_a_no_mlc@D@ctk@@YAPADPBDI0K@Z 1000fec0 f i base_type_string.obj
 0001:0000eef0       ??$allocate_push_maybe@D@ctk@@YAPADPADPBDI1@Z 1000fef0 f i base_type_string.obj
 0001:0000ef20       ??Biwstr@ctk@@QBE?AV?$basic_string@_WU?$char_traits@_W@std@@V?$allocator@_W@2@@std@@XZ 1000ff20 f i base_type_string.obj
 0001:0000ef90       ??BString@ctk@@QBE?AUistr@1@XZ 1000ff90 f i base_type_string.obj
 0001:0000efc0       ?data@String@ctk@@QBEPBDXZ 1000ffc0 f i base_type_string.obj
 0001:0000efe0       ??0Detail@Time@ctk@@QAE@XZ 1000ffe0 f   base_type_time.obj
 0001:0000f040       ??0Detail@Time@ctk@@QAE@ABV12@@Z 10010040 f   base_type_time.obj
 0001:0000f250       ??0Detail@Time@ctk@@QAE@ABUistr@2@PBD@Z 10010250 f   base_type_time.obj
 0001:0000f3a0       ?toString@Detail@Time@ctk@@QBEXUostr@3@PBD@Z 100103a0 f   base_type_time.obj
 0001:0000f410       ?toTime@Detail@Time@ctk@@QBE?AV23@XZ 10010410 f   base_type_time.obj
 0001:0000f520       ??0Time@ctk@@QAE@XZ        10010520 f   base_type_time.obj
 0001:0000f540       ?now@Time@ctk@@SA?AV12@W4Clock@12@@Z 10010540 f   base_type_time.obj
 0001:0000f660       ?seconds@Time@ctk@@SA?AV12@_J@Z 10010660 f   base_type_time.obj
 0001:0000f690       ?milliSeconds@Time@ctk@@SA?AV12@_J@Z 10010690 f   base_type_time.obj
 0001:0000f6c0       ?microSeconds@Time@ctk@@SA?AV12@_J@Z 100106c0 f   base_type_time.obj
 0001:0000f6e0       ??BTime@ctk@@QBE?AUtimeval@@XZ 100106e0 f   base_type_time.obj
 0001:0000f740       ?sleep@Time@ctk@@QBEXXZ    10010740 f   base_type_time.obj
 0001:0000f770       ?toSeconds@Time@ctk@@QBE_JXZ 10010770 f   base_type_time.obj
 0001:0000f7a0       ?toMilliSeconds@Time@ctk@@QBE_JXZ 100107a0 f   base_type_time.obj
 0001:0000f7d0       ?toMicroSeconds@Time@ctk@@QBE_JXZ 100107d0 f   base_type_time.obj
 0001:0000f7f0       ?toSecondsDouble@Time@ctk@@QBENXZ 100107f0 f   base_type_time.obj
 0001:0000f810       ?toMilliSecondsDouble@Time@ctk@@QBENXZ 10010810 f   base_type_time.obj
 0001:0000f830       ?toMicroSecondsDouble@Time@ctk@@QBENXZ 10010830 f   base_type_time.obj
 0001:0000f840       ?toFullDateTime@Time@ctk@@QBE?AVString@2@XZ 10010840 f   base_type_time.obj
 0001:0000f8d0       ?toDateTime@Time@ctk@@QBE?AVString@2@XZ 100108d0 f   base_type_time.obj
 0001:0000f960       ?toFullDateTime@Time@ctk@@QBEXAAVString@2@@Z 10010960 f   base_type_time.obj
 0001:0000fa00       ?toDateTime@Time@ctk@@QBEXAAVString@2@@Z 10010a00 f   base_type_time.obj
 0001:0000faa0       ?toFullDateTime@Time@ctk@@QBEXUostr@2@@Z 10010aa0 f   base_type_time.obj
 0001:0000fba0       ?toDateTime@Time@ctk@@QBEXUostr@2@@Z 10010ba0 f   base_type_time.obj
 0001:0000fcd0       ?toDuration@Time@ctk@@QBE?AVString@2@XZ 10010cd0 f   base_type_time.obj
 0001:000100e0       ?toString@Time@ctk@@QBE?AVString@2@XZ 100110e0 f   base_type_time.obj
 0001:00010270       ?fromString@Time@ctk@@QAEXABUistr@2@PBD@Z 10011270 f   base_type_time.obj
 0001:00010330       ?format@Time@ctk@@QBEXUostr@2@PBD@Z 10011330 f   base_type_time.obj
 0001:00010370       ?format@Time@ctk@@QBEXAAVString@2@PBD@Z 10011370 f   base_type_time.obj
 0001:00010410       ?format@Time@ctk@@QBE?AVString@2@PBD@Z 10011410 f   base_type_time.obj
 0001:000104a0       ??0Time@ctk@@AAE@_J@Z      100114a0 f   base_type_time.obj
 0001:000104c0       ??6ctk@@YAAAV?$basic_ostream@DU?$char_traits@D@std@@@std@@AAV12@ABVTime@0@@Z 100114c0 f   base_type_time.obj
 0001:00010540       ??0?$charray@$0EA@@ctk@@QAE@XZ 10011540 f i base_type_time.obj
 0001:00010560       ??0?$charray@$0EA@@ctk@@QAE@DK@Z 10011560 f i base_type_time.obj
 0001:00010610       ??1?$charray@$0EA@@ctk@@QAE@XZ 10011610 f i base_type_time.obj
 0001:00010620       ??B?$charray@$0EA@@ctk@@QBE?AUistr@1@XZ 10011620 f i base_type_time.obj
 0001:00010650       ??B?$charray@$0EA@@ctk@@QAE?AUostr@1@XZ 10011650 f i base_type_time.obj
 0001:00010680       ??A?$charray@$0EA@@ctk@@QAEAADK@Z 10011680 f i base_type_time.obj
 0001:000106a0       ?data@?$charray@$0EA@@ctk@@QBEPBDXZ 100116a0 f i base_type_time.obj
 0001:000106b0       ??B?$charray@$0EA@@ctk@@QAE?AVStringRef@1@XZ 100116b0 f i base_type_time.obj
 0001:00010730       ?buffer@?$charray@$0EA@@ctk@@QAEPADXZ 10011730 f i base_type_time.obj
 0001:00010740       ?size@?$charray@$0EA@@ctk@@QBEKXZ 10011740 f i base_type_time.obj
 0001:00010760       ?max_size@?$charray@$0EA@@ctk@@SAKXZ 10011760 f i base_type_time.obj
 0001:00010770       ??$?6$$BY0BF@$$CBD@ctk@@YAAAVString@0@AAV10@AAY0BF@$$CBD@Z 10011770 f i base_type_time.obj
 0001:00010790       ??$?6$$BY0BD@$$CBD@ctk@@YAAAVString@0@AAV10@AAY0BD@$$CBD@Z 10011790 f i base_type_time.obj
 0001:000107b0       ?gettimeofday@ACE_OS@@YA?AVACE_Time_Value@@XZ 100117b0 f i base_type_time.obj
 0001:000107e0       ??Aistr@ctk@@QBEABDK@Z     100117e0 f i base_type_time.obj
 0001:00010800       ?buffer@ostr@ctk@@QAEPADXZ 10011800 f i base_type_time.obj
 0001:00010820       ??HTime@ctk@@QBE?AV01@ABV01@@Z 10011820 f i base_type_time.obj
 0001:00010850       ??1InvalidDataException@ctk@@UAE@XZ 10011850 f i base_type_time.obj
 0001:000108a0       ??0InvalidDataException@ctk@@QAE@ABU01@@Z 100118a0 f i base_type_time.obj
 0001:00010900       ??_EInvalidDataException@ctk@@UAEPAXI@Z 10011900 f i base_type_time.obj
 0001:00010970       ??1ThreadSyscallException@ctk@@UAE@XZ 10011970 f i base_type_time.obj
 0001:000109c0       ??0ThreadSyscallException@ctk@@QAE@ABV01@@Z 100119c0 f i base_type_time.obj
 0001:00010a30       ??_EThreadSyscallException@ctk@@UAEPAXI@Z 10011a30 f i base_type_time.obj
 0001:00010aa0       ??$?6U?$char_traits@D@std@@@std@@YAAAV?$basic_ostream@DU?$char_traits@D@std@@@0@AAV10@D@Z 10011aa0 f i base_type_time.obj
 0001:00010d10       ??$?6$$BY02$$CBD@ctk@@YAAAVString@0@AAV10@AAY02$$CBD@Z 10011d10 f i base_type_time.obj
 0001:00010d30       ??0InitializeFrequency@?A0x401f6b79@@QAE@XZ 10011d30 f i base_type_time.obj
 0001:00010d70       ??6std@@YAAAV?$basic_ostream@DU?$char_traits@D@std@@@0@AAV10@ABVexception@0@@Z 10011d70 f   exception.obj
 0001:00010dc0       ??0Exception@ctk@@QAE@PBDI000@Z 10011dc0 f   exception.obj
 0001:00010eb0       ??1Exception@ctk@@UAE@XZ   10011eb0 f   exception.obj
 0001:00010f60       ?file@Exception@ctk@@QBEPBDXZ 10011f60 f   exception.obj
 0001:00010f80       ?line@Exception@ctk@@QBEIXZ 10011f80 f   exception.obj
 0001:00010fa0       ?func@Exception@ctk@@QBEPBDXZ 10011fa0 f   exception.obj
 0001:00010fc0       ?name@Exception@ctk@@QBEPBDXZ 10011fc0 f   exception.obj
 0001:00010fe0       ?msg@Exception@ctk@@QBEPBDXZ 10011fe0 f   exception.obj
 0001:00011000       ?info@Exception@ctk@@QBEABVCurrent@2@XZ 10012000 f   exception.obj
 0001:00011020       ?stack@Exception@ctk@@QBEABVCallStack@2@XZ 10012020 f   exception.obj
 0001:00011040       ?what@Exception@ctk@@UBEPBDXZ 10012040 f   exception.obj
 0001:00011170       ?dump@Exception@ctk@@UBEXAAV?$basic_ostream@DU?$char_traits@D@std@@@std@@@Z 10012170 f   exception.obj
 0001:00011230       ??0OutOfRangeException@ctk@@QAE@PBDI00@Z 10012230 f   exception.obj
 0001:000112a0       ??0EmptyDataException@ctk@@QAE@PBDI00@Z 100122a0 f   exception.obj
 0001:00011310       ??0InvalidDataException@ctk@@QAE@PBDI00@Z 10012310 f   exception.obj
 0001:00011380       ??0UnsupportedFunctionException@ctk@@QAE@PBDI00@Z 10012380 f   exception.obj
 0001:000113f0       ??0ToBeDoneException@ctk@@QAE@PBDI00@Z 100123f0 f   exception.obj
 0001:00011460       ??0NullPointerException@ctk@@QAE@PBDI00@Z 10012460 f   exception.obj
 0001:000114d0       ??0DuplicatedUnitException@ctk@@QAE@PBDI00@Z 100124d0 f   exception.obj
 0001:00011540       ??_EOutOfRangeException@ctk@@UAEPAXI@Z 10012540 f i exception.obj
 0001:000115b0       ??1OutOfRangeException@ctk@@UAE@XZ 100125b0 f i exception.obj
 0001:00011600       ??_EEmptyDataException@ctk@@UAEPAXI@Z 10012600 f i exception.obj
 0001:00011670       ??1EmptyDataException@ctk@@UAE@XZ 10012670 f i exception.obj
 0001:000116c0       ??_EUnsupportedFunctionException@ctk@@UAEPAXI@Z 100126c0 f i exception.obj
 0001:00011730       ??1UnsupportedFunctionException@ctk@@UAE@XZ 10012730 f i exception.obj
 0001:00011780       ??_EToBeDoneException@ctk@@UAEPAXI@Z 10012780 f i exception.obj
 0001:000117f0       ??1ToBeDoneException@ctk@@UAE@XZ 100127f0 f i exception.obj
 0001:00011840       ??_ENullPointerException@ctk@@UAEPAXI@Z 10012840 f i exception.obj
 0001:000118b0       ??1NullPointerException@ctk@@UAE@XZ 100128b0 f i exception.obj
 0001:00011900       ??_EDuplicatedUnitException@ctk@@UAEPAXI@Z 10012900 f i exception.obj
 0001:00011970       ??1DuplicatedUnitException@ctk@@UAE@XZ 10012970 f i exception.obj
 0001:000119c0       ??2@YAPAXIPBDI0@Z          100129c0 f   mlcheck.obj
 0001:000119e0       ??3@YAXPAXPBDI1@Z          100129e0 f   mlcheck.obj
 0001:00011a00       ??0MemLeakChecker@ctk@@AAE@XZ 10012a00 f   mlcheck.obj
 0001:00011a60       ??1MemLeakChecker@ctk@@AAE@XZ 10012a60 f   mlcheck.obj
 0001:00011ab0       ?destroy@MemLeakChecker@ctk@@SAXXZ 10012ab0 f   mlcheck.obj
 0001:00011b50       ?instance@MemLeakChecker@ctk@@SAAAPAV12@XZ 10012b50 f   mlcheck.obj
 0001:00011c00       ?mtxInstance@MemLeakChecker@ctk@@CAAAVMutex@2@XZ 10012c00 f   mlcheck.obj
 0001:00011c80       ?push@MemLeakChecker@ctk@@QAEXPAXPBDI1@Z 10012c80 f   mlcheck.obj
 0001:00011e50       ?pop@MemLeakChecker@ctk@@QAE_NPAXPBDI1@Z 10012e50 f   mlcheck.obj
 0001:000122b0       ?start@MemLeakChecker@ctk@@AAEXXZ 100132b0 f   mlcheck.obj
 0001:000122d0       ?stop@MemLeakChecker@ctk@@AAEXXZ 100132d0 f   mlcheck.obj
 0001:00012490       ?dumpOn@MemLeakChecker@ctk@@AAEXXZ 10013490 f   mlcheck.obj
 0001:000124b0       ?dumpOff@MemLeakChecker@ctk@@AAEXXZ 100134b0 f   mlcheck.obj
 0001:000124d0       ?dump@MemLeakChecker@ctk@@QBEAAV?$basic_ostream@DU?$char_traits@D@std@@@std@@AAV34@@Z 100134d0 f   mlcheck.obj
 0001:00012640       ?dump@MemLeakChecker@ctk@@QBEAAVdumper@2@AAV32@@Z 10013640 f   mlcheck.obj
 0001:00012a30       ??_GMemLeakChecker@ctk@@AAEPAXI@Z 10013a30 f i mlcheck.obj
 0001:00012a60       ??1?$map@VCurrent@ctk@@HU?$less@VCurrent@ctk@@@std@@V?$allocator@U?$pair@$$CBVCurrent@ctk@@H@std@@@4@@std@@QAE@XZ 10013a60 f i mlcheck.obj
 0001:00012ab0       ??1?$multimap@HVCurrent@ctk@@U?$less@H@std@@V?$allocator@U?$pair@$$CBHVCurrent@ctk@@@std@@@4@@std@@QAE@XZ 10013ab0 f i mlcheck.obj
 0001:00012b00       ??1?$pair@$$CBHVCurrent@ctk@@@std@@QAE@XZ 10013b00 f i mlcheck.obj
 0001:00012b50       ??0?$map@PAXVCurrent@ctk@@U?$less@PAX@std@@V?$allocator@U?$pair@QAXVCurrent@ctk@@@std@@@4@@std@@QAE@XZ 10013b50 f i mlcheck.obj
 0001:00012bb0       ??A?$map@PAXVCurrent@ctk@@U?$less@PAX@std@@V?$allocator@U?$pair@QAXVCurrent@ctk@@@std@@@4@@std@@QAEAAVCurrent@ctk@@ABQAX@Z 10013bb0 f i mlcheck.obj
 0001:00012d00       ?begin@?$_Tree@V?$_Tmap_traits@PAXVCurrent@ctk@@U?$less@PAX@std@@V?$allocator@U?$pair@QAXVCurrent@ctk@@@std@@@4@$0A@@std@@@std@@QBE?AVconst_iterator@12@XZ 10013d00 f i mlcheck.obj
 0001:00012d30       ?end@?$_Tree@V?$_Tmap_traits@PAXVCurrent@ctk@@U?$less@PAX@std@@V?$allocator@U?$pair@QAXVCurrent@ctk@@@std@@@4@$0A@@std@@@std@@QBE?AVconst_iterator@12@XZ 10013d30 f i mlcheck.obj
 0001:00012d60       ?empty@?$_Tree@V?$_Tmap_traits@PAXVCurrent@ctk@@U?$less@PAX@std@@V?$allocator@U?$pair@QAXVCurrent@ctk@@@std@@@4@$0A@@std@@@std@@QBE_NXZ 10013d60 f i mlcheck.obj
 0001:00012d80       ?find@?$_Tree@V?$_Tmap_traits@PAXVCurrent@ctk@@U?$less@PAX@std@@V?$allocator@U?$pair@QAXVCurrent@ctk@@@std@@@4@$0A@@std@@@std@@QAE?AViterator@12@ABQAX@Z 10013d80 f i mlcheck.obj
 0001:00012e20       ??Diterator@?$_Tree@V?$_Tmap_traits@PAXVCurrent@ctk@@U?$less@PAX@std@@V?$allocator@U?$pair@QAXVCurrent@ctk@@@std@@@4@$0A@@std@@@std@@QBEAAU?$pair@QAXVCurrent@ctk@@@2@XZ 10013e20 f i mlcheck.obj
 0001:00012e40       ??Dconst_iterator@?$_Tree@V?$_Tmap_traits@PAXVCurrent@ctk@@U?$less@PAX@std@@V?$allocator@U?$pair@QAXVCurrent@ctk@@@std@@@4@$0A@@std@@@std@@QBEABU?$pair@QAXVCurrent@ctk@@@2@XZ 10013e40 f i mlcheck.obj
 0001:00012e90       ??0?$Guard_T@VMutex@ctk@@@ctk@@QAE@ABVMutex@1@@Z 10013e90 f i mlcheck.obj
 0001:00012ec0       ??1?$Guard_T@VMutex@ctk@@@ctk@@QAE@XZ 10013ec0 f i mlcheck.obj
 0001:00012ee0       ??0?$map@VCurrent@ctk@@HU?$less@VCurrent@ctk@@@std@@V?$allocator@U?$pair@$$CBVCurrent@ctk@@H@std@@@4@@std@@QAE@XZ 10013ee0 f i mlcheck.obj
 0001:00012f40       ??A?$map@VCurrent@ctk@@HU?$less@VCurrent@ctk@@@std@@V?$allocator@U?$pair@$$CBVCurrent@ctk@@H@std@@@4@@std@@QAEAAHABVCurrent@ctk@@@Z 10013f40 f i mlcheck.obj
 0001:00013040       ??1?$_Tree@V?$_Tmap_traits@VCurrent@ctk@@HU?$less@VCurrent@ctk@@@std@@V?$allocator@U?$pair@$$CBVCurrent@ctk@@H@std@@@4@$0A@@std@@@std@@QAE@XZ 10014040 f i mlcheck.obj
 0001:000130a0       ?begin@?$_Tree@V?$_Tmap_traits@VCurrent@ctk@@HU?$less@VCurrent@ctk@@@std@@V?$allocator@U?$pair@$$CBVCurrent@ctk@@H@std@@@4@$0A@@std@@@std@@QAE?AViterator@12@XZ 100140a0 f i mlcheck.obj
 0001:000130d0       ?end@?$_Tree@V?$_Tmap_traits@VCurrent@ctk@@HU?$less@VCurrent@ctk@@@std@@V?$allocator@U?$pair@$$CBVCurrent@ctk@@H@std@@@4@$0A@@std@@@std@@QAE?AViterator@12@XZ 100140d0 f i mlcheck.obj
 0001:00013100       ??0?$multimap@HVCurrent@ctk@@U?$less@H@std@@V?$allocator@U?$pair@$$CBHVCurrent@ctk@@@std@@@4@@std@@QAE@XZ 10014100 f i mlcheck.obj
 0001:00013160       ?insert@?$multimap@HVCurrent@ctk@@U?$less@H@std@@V?$allocator@U?$pair@$$CBHVCurrent@ctk@@@std@@@4@@std@@QAE?AViterator@?$_Tree@V?$_Tmap_traits@HVCurrent@ctk@@U?$less@H@std@@V?$allocator@U?$pair@$$CBHVCurrent@ctk@@@std@@@4@$00@std@@@2@ABU?$pair@$$CBHVCurrent@ctk@@@2@@Z 10014160 f i mlcheck.obj
 0001:00013190       ??1?$_Tree@V?$_Tmap_traits@HVCurrent@ctk@@U?$less@H@std@@V?$allocator@U?$pair@$$CBHVCurrent@ctk@@@std@@@4@$00@std@@@std@@QAE@XZ 10014190 f i mlcheck.obj
 0001:000131f0       ??Dconst_iterator@?$_Tree@V?$_Tmap_traits@VCurrent@ctk@@HU?$less@VCurrent@ctk@@@std@@V?$allocator@U?$pair@$$CBVCurrent@ctk@@H@std@@@4@$0A@@std@@@std@@QBEABU?$pair@$$CBVCurrent@ctk@@H@2@XZ 100141f0 f i mlcheck.obj
 0001:00013240       ??Econst_iterator@?$_Tree@V?$_Tmap_traits@VCurrent@ctk@@HU?$less@VCurrent@ctk@@@std@@V?$allocator@U?$pair@$$CBVCurrent@ctk@@H@std@@@4@$0A@@std@@@std@@QAEAAV012@XZ 10014240 f i mlcheck.obj
 0001:00013260       ??9const_iterator@?$_Tree@V?$_Tmap_traits@VCurrent@ctk@@HU?$less@VCurrent@ctk@@@std@@V?$allocator@U?$pair@$$CBVCurrent@ctk@@H@std@@@4@$0A@@std@@@std@@QBE_NABV012@@Z 10014260 f i mlcheck.obj
 0001:00013290       ??0?$pair@$$CBHVCurrent@ctk@@@std@@QAE@ABHABVCurrent@ctk@@@Z 10014290 f i mlcheck.obj
 0001:00013300       ??1?$pair@$$CBVCurrent@ctk@@H@std@@QAE@XZ 10014300 f i mlcheck.obj
 0001:00013350       ??1?$_Tree_val@V?$_Tmap_traits@VCurrent@ctk@@HU?$less@VCurrent@ctk@@@std@@V?$allocator@U?$pair@$$CBVCurrent@ctk@@H@std@@@4@$0A@@std@@@std@@QAE@XZ 10014350 f i mlcheck.obj
 0001:000133a0       ??1?$_Tree_val@V?$_Tmap_traits@HVCurrent@ctk@@U?$less@H@std@@V?$allocator@U?$pair@$$CBHVCurrent@ctk@@@std@@@4@$00@std@@@std@@QAE@XZ 100143a0 f i mlcheck.obj
 0001:000133f0       ??1?$_Tree_ptr@V?$_Tmap_traits@VCurrent@ctk@@HU?$less@VCurrent@ctk@@@std@@V?$allocator@U?$pair@$$CBVCurrent@ctk@@H@std@@@4@$0A@@std@@@std@@QAE@XZ 100143f0 f i mlcheck.obj
 0001:00013440       ??1?$_Tree_ptr@V?$_Tmap_traits@HVCurrent@ctk@@U?$less@H@std@@V?$allocator@U?$pair@$$CBHVCurrent@ctk@@@std@@@4@$00@std@@@std@@QAE@XZ 10014440 f i mlcheck.obj
 0001:00013490       ??1?$_Tree_nod@V?$_Tmap_traits@VCurrent@ctk@@HU?$less@VCurrent@ctk@@@std@@V?$allocator@U?$pair@$$CBVCurrent@ctk@@H@std@@@4@$0A@@std@@@std@@QAE@XZ 10014490 f i mlcheck.obj
 0001:000134e0       ??1?$_Tree_nod@V?$_Tmap_traits@HVCurrent@ctk@@U?$less@H@std@@V?$allocator@U?$pair@$$CBHVCurrent@ctk@@@std@@@4@$00@std@@@std@@QAE@XZ 100144e0 f i mlcheck.obj
 0001:00013530       ??1?$_Tmap_traits@VCurrent@ctk@@HU?$less@VCurrent@ctk@@@std@@V?$allocator@U?$pair@$$CBVCurrent@ctk@@H@std@@@4@$0A@@std@@QAE@XZ 10014530 f i mlcheck.obj
 0001:00013580       ??1?$_Tmap_traits@HVCurrent@ctk@@U?$less@H@std@@V?$allocator@U?$pair@$$CBHVCurrent@ctk@@@std@@@4@$00@std@@QAE@XZ 10014580 f i mlcheck.obj
 0001:000135d0       ?_Key@?$_Tree@V?$_Tmap_traits@PAXVCurrent@ctk@@U?$less@PAX@std@@V?$allocator@U?$pair@QAXVCurrent@ctk@@@std@@@4@$0A@@std@@@std@@KAABQAXPAU_Node@?$_Tree_nod@V?$_Tmap_traits@PAXVCurrent@ctk@@U?$less@PAX@std@@V?$allocator@U?$pair@QAXVCurrent@ctk@@@std@@@4@$0A@@std@@@2@@Z 100145d0 f i mlcheck.obj
 0001:000135f0       ??0?$_Tree@V?$_Tmap_traits@PAXVCurrent@ctk@@U?$less@PAX@std@@V?$allocator@U?$pair@QAXVCurrent@ctk@@@std@@@4@$0A@@std@@@std@@QAE@ABU?$less@PAX@1@ABV?$allocator@U?$pair@QAXVCurrent@ctk@@@std@@@1@@Z 100145f0 f i mlcheck.obj
 0001:00013660       ?insert@?$_Tree@V?$_Tmap_traits@PAXVCurrent@ctk@@U?$less@PAX@std@@V?$allocator@U?$pair@QAXVCurrent@ctk@@@std@@@4@$0A@@std@@@std@@QAE?AViterator@12@Vconst_iterator@12@ABU?$pair@QAXVCurrent@ctk@@@2@@Z 10014660 f i mlcheck.obj
 0001:00013c80       ?lower_bound@?$_Tree@V?$_Tmap_traits@PAXVCurrent@ctk@@U?$less@PAX@std@@V?$allocator@U?$pair@QAXVCurrent@ctk@@@std@@@4@$0A@@std@@@std@@QAE?AViterator@12@ABQAX@Z 10014c80 f i mlcheck.obj
 0001:00013cb0       ??0?$allocator@U?$pair@QAXVCurrent@ctk@@@std@@@std@@QAE@XZ 10014cb0 f i mlcheck.obj
 0001:00013cc0       ??R?$less@PAX@std@@QBE_NABQAX0@Z 10014cc0 f i mlcheck.obj
 0001:00013ce0       ??0?$pair@QAXVCurrent@ctk@@@std@@QAE@ABQAXABVCurrent@ctk@@@Z 10014ce0 f i mlcheck.obj
 0001:00013d50       ?_Key@?$_Tree@V?$_Tmap_traits@VCurrent@ctk@@HU?$less@VCurrent@ctk@@@std@@V?$allocator@U?$pair@$$CBVCurrent@ctk@@H@std@@@4@$0A@@std@@@std@@KAABVCurrent@ctk@@PAU_Node@?$_Tree_nod@V?$_Tmap_traits@VCurrent@ctk@@HU?$less@VCurrent@ctk@@@std@@V?$allocator@U?$pair@$$CBVCurrent@ctk@@H@std@@@4@$0A@@std@@@2@@Z 10014d50 f i mlcheck.obj
 0001:00013d70       ?_Myval@?$_Tree@V?$_Tmap_traits@VCurrent@ctk@@HU?$less@VCurrent@ctk@@@std@@V?$allocator@U?$pair@$$CBVCurrent@ctk@@H@std@@@4@$0A@@std@@@std@@KAAAU?$pair@$$CBVCurrent@ctk@@H@2@PAU_Node@?$_Tree_nod@V?$_Tmap_traits@VCurrent@ctk@@HU?$less@VCurrent@ctk@@@std@@V?$allocator@U?$pair@$$CBVCurrent@ctk@@H@std@@@4@$0A@@std@@@2@@Z 10014d70 f i mlcheck.obj
 0001:00013d80       ??0?$_Tree@V?$_Tmap_traits@VCurrent@ctk@@HU?$less@VCurrent@ctk@@@std@@V?$allocator@U?$pair@$$CBVCurrent@ctk@@H@std@@@4@$0A@@std@@@std@@QAE@ABU?$less@VCurrent@ctk@@@1@ABV?$allocator@U?$pair@$$CBVCurrent@ctk@@H@std@@@1@@Z 10014d80 f i mlcheck.obj
 0001:00013df0       ?insert@?$_Tree@V?$_Tmap_traits@VCurrent@ctk@@HU?$less@VCurrent@ctk@@@std@@V?$allocator@U?$pair@$$CBVCurrent@ctk@@H@std@@@4@$0A@@std@@@std@@QAE?AViterator@12@Vconst_iterator@12@ABU?$pair@$$CBVCurrent@ctk@@H@2@@Z 10014df0 f i mlcheck.obj
 0001:00014410       ?lower_bound@?$_Tree@V?$_Tmap_traits@VCurrent@ctk@@HU?$less@VCurrent@ctk@@@std@@V?$allocator@U?$pair@$$CBVCurrent@ctk@@H@std@@@4@$0A@@std@@@std@@QAE?AViterator@12@ABVCurrent@ctk@@@Z 10015410 f i mlcheck.obj
 0001:00014440       ?_Lmost@?$_Tree@V?$_Tmap_traits@VCurrent@ctk@@HU?$less@VCurrent@ctk@@@std@@V?$allocator@U?$pair@$$CBVCurrent@ctk@@H@std@@@4@$0A@@std@@@std@@IBEAAPAU_Node@?$_Tree_nod@V?$_Tmap_traits@VCurrent@ctk@@HU?$less@VCurrent@ctk@@@std@@V?$allocator@U?$pair@$$CBVCurrent@ctk@@H@std@@@4@$0A@@std@@@2@XZ 10015440 f i mlcheck.obj
 0001:00014460       ?_Tidy@?$_Tree@V?$_Tmap_traits@VCurrent@ctk@@HU?$less@VCurrent@ctk@@@std@@V?$allocator@U?$pair@$$CBVCurrent@ctk@@H@std@@@4@$0A@@std@@@std@@IAEXXZ 10015460 f i mlcheck.obj
 0001:00014530       ??1?$_Container_base_aux_alloc_real@V?$allocator@U?$pair@$$CBVCurrent@ctk@@H@std@@@std@@@std@@IAE@XZ 10015530 f i mlcheck.obj
 0001:00014590       ??0?$allocator@U?$pair@$$CBVCurrent@ctk@@H@std@@@std@@QAE@XZ 10015590 f i mlcheck.obj
 0001:000145a0       ??R?$less@VCurrent@ctk@@@std@@QBE_NABVCurrent@ctk@@0@Z 100155a0 f i mlcheck.obj
 0001:000145c0       ??0?$_Tree@V?$_Tmap_traits@HVCurrent@ctk@@U?$less@H@std@@V?$allocator@U?$pair@$$CBHVCurrent@ctk@@@std@@@4@$00@std@@@std@@QAE@ABU?$less@H@1@ABV?$allocator@U?$pair@$$CBHVCurrent@ctk@@@std@@@1@@Z 100155c0 f i mlcheck.obj
 0001:00014630       ?insert@?$_Tree@V?$_Tmap_traits@HVCurrent@ctk@@U?$less@H@std@@V?$allocator@U?$pair@$$CBHVCurrent@ctk@@@std@@@4@$00@std@@@std@@QAE?AU?$pair@Viterator@?$_Tree@V?$_Tmap_traits@HVCurrent@ctk@@U?$less@H@std@@V?$allocator@U?$pair@$$CBHVCurrent@ctk@@@std@@@4@$00@std@@@std@@_N@2@ABU?$pair@$$CBHVCurrent@ctk@@@2@@Z 10015630 f i mlcheck.obj
 0001:00014800       ?_Tidy@?$_Tree@V?$_Tmap_traits@HVCurrent@ctk@@U?$less@H@std@@V?$allocator@U?$pair@$$CBHVCurrent@ctk@@@std@@@4@$00@std@@@std@@IAEXXZ 10015800 f i mlcheck.obj
 0001:000148d0       ??1?$_Container_base_aux_alloc_real@V?$allocator@U?$pair@$$CBHVCurrent@ctk@@@std@@@std@@@std@@IAE@XZ 100158d0 f i mlcheck.obj
 0001:00014930       ??0?$allocator@U?$pair@$$CBHVCurrent@ctk@@@std@@@std@@QAE@XZ 10015930 f i mlcheck.obj
 0001:00014940       ??8const_iterator@?$_Tree@V?$_Tmap_traits@VCurrent@ctk@@HU?$less@VCurrent@ctk@@@std@@V?$allocator@U?$pair@$$CBVCurrent@ctk@@H@std@@@4@$0A@@std@@@std@@QBE_NABV012@@Z 10015940 f i mlcheck.obj
 0001:00014990       ?_Inc@const_iterator@?$_Tree@V?$_Tmap_traits@VCurrent@ctk@@HU?$less@VCurrent@ctk@@@std@@V?$allocator@U?$pair@$$CBVCurrent@ctk@@H@std@@@4@$0A@@std@@@std@@QAEXXZ 10015990 f i mlcheck.obj
 0001:00014a70       ?_Mynode@const_iterator@?$_Tree@V?$_Tmap_traits@VCurrent@ctk@@HU?$less@VCurrent@ctk@@@std@@V?$allocator@U?$pair@$$CBVCurrent@ctk@@H@std@@@4@$0A@@std@@@std@@QBEPAU_Node@?$_Tree_nod@V?$_Tmap_traits@VCurrent@ctk@@HU?$less@VCurrent@ctk@@@std@@V?$allocator@U?$pair@$$CBVCurrent@ctk@@H@std@@@4@$0A@@std@@@3@XZ 10015a70 f i mlcheck.obj
 0001:00014a90       ??0iterator@?$_Tree@V?$_Tmap_traits@VCurrent@ctk@@HU?$less@VCurrent@ctk@@@std@@V?$allocator@U?$pair@$$CBVCurrent@ctk@@H@std@@@4@$0A@@std@@@std@@QAE@PAU_Node@?$_Tree_nod@V?$_Tmap_traits@VCurrent@ctk@@HU?$less@VCurrent@ctk@@@std@@V?$allocator@U?$pair@$$CBVCurrent@ctk@@H@std@@@4@$0A@@std@@@2@PBV12@@Z 10015a90 f i mlcheck.obj
 0001:00014ab0       ??Diterator@?$_Tree@V?$_Tmap_traits@VCurrent@ctk@@HU?$less@VCurrent@ctk@@@std@@V?$allocator@U?$pair@$$CBVCurrent@ctk@@H@std@@@4@$0A@@std@@@std@@QBEAAU?$pair@$$CBVCurrent@ctk@@H@2@XZ 10015ab0 f i mlcheck.obj
 0001:00014ad0       ??0?$pair@$$CBVCurrent@ctk@@H@std@@QAE@ABVCurrent@ctk@@ABH@Z 10015ad0 f i mlcheck.obj
 0001:00014b30       ?insert@?$_Tree@V?$_Tmap_traits@PAXVCurrent@ctk@@U?$less@PAX@std@@V?$allocator@U?$pair@QAXVCurrent@ctk@@@std@@@4@$0A@@std@@@std@@QAE?AU?$pair@Viterator@?$_Tree@V?$_Tmap_traits@PAXVCurrent@ctk@@U?$less@PAX@std@@V?$allocator@U?$pair@QAXVCurrent@ctk@@@std@@@4@$0A@@std@@@std@@_N@2@ABU?$pair@QAXVCurrent@ctk@@@2@@Z 10015b30 f i mlcheck.obj
 0001:00014d00       ?_Insert@?$_Tree@V?$_Tmap_traits@PAXVCurrent@ctk@@U?$less@PAX@std@@V?$allocator@U?$pair@QAXVCurrent@ctk@@@std@@@4@$0A@@std@@@std@@IAE?AViterator@12@_NPAU_Node@?$_Tree_nod@V?$_Tmap_traits@PAXVCurrent@ctk@@U?$less@PAX@std@@V?$allocator@U?$pair@QAXVCurrent@ctk@@@std@@@4@$0A@@std@@@2@ABU?$pair@QAXVCurrent@ctk@@@2@@Z 10015d00 f i mlcheck.obj
 0001:00015180       ?_Lbound@?$_Tree@V?$_Tmap_traits@PAXVCurrent@ctk@@U?$less@PAX@std@@V?$allocator@U?$pair@QAXVCurrent@ctk@@@std@@@4@$0A@@std@@@std@@IBEPAU_Node@?$_Tree_nod@V?$_Tmap_traits@PAXVCurrent@ctk@@U?$less@PAX@std@@V?$allocator@U?$pair@QAXVCurrent@ctk@@@std@@@4@$0A@@std@@@2@ABQAX@Z 10016180 f i mlcheck.obj
 0001:00015210       ?_Kfn@?$_Tmap_traits@PAXVCurrent@ctk@@U?$less@PAX@std@@V?$allocator@U?$pair@QAXVCurrent@ctk@@@std@@@4@$0A@@std@@SAABQAXABU?$pair@QAXVCurrent@ctk@@@2@@Z 10016210 f i mlcheck.obj
 0001:00015220       ??0const_iterator@?$_Tree@V?$_Tmap_traits@PAXVCurrent@ctk@@U?$less@PAX@std@@V?$allocator@U?$pair@QAXVCurrent@ctk@@@std@@@4@$0A@@std@@@std@@QAE@XZ 10016220 f i mlcheck.obj
 0001:00015240       ??Fconst_iterator@?$_Tree@V?$_Tmap_traits@PAXVCurrent@ctk@@U?$less@PAX@std@@V?$allocator@U?$pair@QAXVCurrent@ctk@@@std@@@4@$0A@@std@@@std@@QAEAAV012@XZ 10016240 f i mlcheck.obj
 0001:00015260       ?_Isnil@?$_Tree@V?$_Tmap_traits@VCurrent@ctk@@HU?$less@VCurrent@ctk@@@std@@V?$allocator@U?$pair@$$CBVCurrent@ctk@@H@std@@@4@$0A@@std@@@std@@KAAADPAU_Node@?$_Tree_nod@V?$_Tmap_traits@VCurrent@ctk@@HU?$less@VCurrent@ctk@@@std@@V?$allocator@U?$pair@$$CBVCurrent@ctk@@H@std@@@4@$0A@@std@@@2@@Z 10016260 f i mlcheck.obj
 0001:00015270       ?_Left@?$_Tree@V?$_Tmap_traits@VCurrent@ctk@@HU?$less@VCurrent@ctk@@@std@@V?$allocator@U?$pair@$$CBVCurrent@ctk@@H@std@@@4@$0A@@std@@@std@@KAAAPAU_Node@?$_Tree_nod@V?$_Tmap_traits@VCurrent@ctk@@HU?$less@VCurrent@ctk@@@std@@V?$allocator@U?$pair@$$CBVCurrent@ctk@@H@std@@@4@$0A@@std@@@2@PAU342@@Z 10016270 f i mlcheck.obj
 0001:00015280       ?_Parent@?$_Tree@V?$_Tmap_traits@VCurrent@ctk@@HU?$less@VCurrent@ctk@@@std@@V?$allocator@U?$pair@$$CBVCurrent@ctk@@H@std@@@4@$0A@@std@@@std@@KAAAPAU_Node@?$_Tree_nod@V?$_Tmap_traits@VCurrent@ctk@@HU?$less@VCurrent@ctk@@@std@@V?$allocator@U?$pair@$$CBVCurrent@ctk@@H@std@@@4@$0A@@std@@@2@PAU342@@Z 10016280 f i mlcheck.obj
 0001:00015290       ?_Right@?$_Tree@V?$_Tmap_traits@VCurrent@ctk@@HU?$less@VCurrent@ctk@@@std@@V?$allocator@U?$pair@$$CBVCurrent@ctk@@H@std@@@4@$0A@@std@@@std@@KAAAPAU_Node@?$_Tree_nod@V?$_Tmap_traits@VCurrent@ctk@@HU?$less@VCurrent@ctk@@@std@@V?$allocator@U?$pair@$$CBVCurrent@ctk@@H@std@@@4@$0A@@std@@@2@PAU342@@Z 10016290 f i mlcheck.obj
 0001:000152a0       ?size@?$_Tree@V?$_Tmap_traits@VCurrent@ctk@@HU?$less@VCurrent@ctk@@@std@@V?$allocator@U?$pair@$$CBVCurrent@ctk@@H@std@@@4@$0A@@std@@@std@@QBEIXZ 100162a0 f i mlcheck.obj
 0001:000152c0       ?insert@?$_Tree@V?$_Tmap_traits@VCurrent@ctk@@HU?$less@VCurrent@ctk@@@std@@V?$allocator@U?$pair@$$CBVCurrent@ctk@@H@std@@@4@$0A@@std@@@std@@QAE?AU?$pair@Viterator@?$_Tree@V?$_Tmap_traits@VCurrent@ctk@@HU?$less@VCurrent@ctk@@@std@@V?$allocator@U?$pair@$$CBVCurrent@ctk@@H@std@@@4@$0A@@std@@@std@@_N@2@ABU?$pair@$$CBVCurrent@ctk@@H@2@@Z 100162c0 f i mlcheck.obj
 0001:00015490       ?erase@?$_Tree@V?$_Tmap_traits@VCurrent@ctk@@HU?$less@VCurrent@ctk@@@std@@V?$allocator@U?$pair@$$CBVCurrent@ctk@@H@std@@@4@$0A@@std@@@std@@QAE?AViterator@12@Vconst_iterator@12@0@Z 10016490 f i mlcheck.obj
 0001:00015540       ?_Init@?$_Tree@V?$_Tmap_traits@VCurrent@ctk@@HU?$less@VCurrent@ctk@@@std@@V?$allocator@U?$pair@$$CBVCurrent@ctk@@H@std@@@4@$0A@@std@@@std@@IAEXXZ 10016540 f i mlcheck.obj
 0001:000155b0       ?_Insert@?$_Tree@V?$_Tmap_traits@VCurrent@ctk@@HU?$less@VCurrent@ctk@@@std@@V?$allocator@U?$pair@$$CBVCurrent@ctk@@H@std@@@4@$0A@@std@@@std@@IAE?AViterator@12@_NPAU_Node@?$_Tree_nod@V?$_Tmap_traits@VCurrent@ctk@@HU?$less@VCurrent@ctk@@@std@@V?$allocator@U?$pair@$$CBVCurrent@ctk@@H@std@@@4@$0A@@std@@@2@ABU?$pair@$$CBVCurrent@ctk@@H@2@@Z 100165b0 f i mlcheck.obj
 0001:00015a30       ?_Lbound@?$_Tree@V?$_Tmap_traits@VCurrent@ctk@@HU?$less@VCurrent@ctk@@@std@@V?$allocator@U?$pair@$$CBVCurrent@ctk@@H@std@@@4@$0A@@std@@@std@@IBEPAU_Node@?$_Tree_nod@V?$_Tmap_traits@VCurrent@ctk@@HU?$less@VCurrent@ctk@@@std@@V?$allocator@U?$pair@$$CBVCurrent@ctk@@H@std@@@4@$0A@@std@@@2@ABVCurrent@ctk@@@Z 10016a30 f i mlcheck.obj
 0001:00015ac0       ?_Min@?$_Tree@V?$_Tmap_traits@VCurrent@ctk@@HU?$less@VCurrent@ctk@@@std@@V?$allocator@U?$pair@$$CBVCurrent@ctk@@H@std@@@4@$0A@@std@@@std@@KAPAU_Node@?$_Tree_nod@V?$_Tmap_traits@VCurrent@ctk@@HU?$less@VCurrent@ctk@@@std@@V?$allocator@U?$pair@$$CBVCurrent@ctk@@H@std@@@4@$0A@@std@@@2@PAU342@@Z 10016ac0 f i mlcheck.obj
 0001:00015b00       ?_Rmost@?$_Tree@V?$_Tmap_traits@VCurrent@ctk@@HU?$less@VCurrent@ctk@@@std@@V?$allocator@U?$pair@$$CBVCurrent@ctk@@H@std@@@4@$0A@@std@@@std@@IBEAAPAU_Node@?$_Tree_nod@V?$_Tmap_traits@VCurrent@ctk@@HU?$less@VCurrent@ctk@@@std@@V?$allocator@U?$pair@$$CBVCurrent@ctk@@H@std@@@4@$0A@@std@@@2@XZ 10016b00 f i mlcheck.obj
 0001:00015b20       ??0?$_Tree_val@V?$_Tmap_traits@VCurrent@ctk@@HU?$less@VCurrent@ctk@@@std@@V?$allocator@U?$pair@$$CBVCurrent@ctk@@H@std@@@4@$0A@@std@@@std@@IAE@ABU?$less@VCurrent@ctk@@@1@V?$allocator@U?$pair@$$CBVCurrent@ctk@@H@std@@@1@@Z 10016b20 f i mlcheck.obj
 0001:00015ba0       ?_Kfn@?$_Tmap_traits@VCurrent@ctk@@HU?$less@VCurrent@ctk@@@std@@V?$allocator@U?$pair@$$CBVCurrent@ctk@@H@std@@@4@$0A@@std@@SAABVCurrent@ctk@@ABU?$pair@$$CBVCurrent@ctk@@H@2@@Z 10016ba0 f i mlcheck.obj
 0001:00015bb0       ??0?$allocator@U?$pair@$$CBVCurrent@ctk@@H@std@@@std@@QAE@ABV01@@Z 10016bb0 f i mlcheck.obj
 0001:00015bc0       ?deallocate@?$allocator@U_Node@?$_Tree_nod@V?$_Tmap_traits@VCurrent@ctk@@HU?$less@VCurrent@ctk@@@std@@V?$allocator@U?$pair@$$CBVCurrent@ctk@@H@std@@@4@$0A@@std@@@std@@@std@@QAEXPAU_Node@?$_Tree_nod@V?$_Tmap_traits@VCurrent@ctk@@HU?$less@VCurrent@ctk@@@std@@V?$allocator@U?$pair@$$CBVCurrent@ctk@@H@std@@@4@$0A@@std@@@2@I@Z 10016bc0 f i mlcheck.obj
 0001:00015be0       ?destroy@?$allocator@PAU_Node@?$_Tree_nod@V?$_Tmap_traits@VCurrent@ctk@@HU?$less@VCurrent@ctk@@@std@@V?$allocator@U?$pair@$$CBVCurrent@ctk@@H@std@@@4@$0A@@std@@@std@@@std@@QAEXPAPAU_Node@?$_Tree_nod@V?$_Tmap_traits@VCurrent@ctk@@HU?$less@VCurrent@ctk@@@std@@V?$allocator@U?$pair@$$CBVCurrent@ctk@@H@std@@@4@$0A@@std@@@2@@Z 10016be0 f i mlcheck.obj
 0001:00015c00       ?_Isnil@?$_Tree@V?$_Tmap_traits@HVCurrent@ctk@@U?$less@H@std@@V?$allocator@U?$pair@$$CBHVCurrent@ctk@@@std@@@4@$00@std@@@std@@KAAADPAU_Node@?$_Tree_nod@V?$_Tmap_traits@HVCurrent@ctk@@U?$less@H@std@@V?$allocator@U?$pair@$$CBHVCurrent@ctk@@@std@@@4@$00@std@@@2@@Z 10016c00 f i mlcheck.obj
 0001:00015c10       ?_Key@?$_Tree@V?$_Tmap_traits@HVCurrent@ctk@@U?$less@H@std@@V?$allocator@U?$pair@$$CBHVCurrent@ctk@@@std@@@4@$00@std@@@std@@KAABHPAU_Node@?$_Tree_nod@V?$_Tmap_traits@HVCurrent@ctk@@U?$less@H@std@@V?$allocator@U?$pair@$$CBHVCurrent@ctk@@@std@@@4@$00@std@@@2@@Z 10016c10 f i mlcheck.obj
 0001:00015c30       ?_Left@?$_Tree@V?$_Tmap_traits@HVCurrent@ctk@@U?$less@H@std@@V?$allocator@U?$pair@$$CBHVCurrent@ctk@@@std@@@4@$00@std@@@std@@KAAAPAU_Node@?$_Tree_nod@V?$_Tmap_traits@HVCurrent@ctk@@U?$less@H@std@@V?$allocator@U?$pair@$$CBHVCurrent@ctk@@@std@@@4@$00@std@@@2@PAU342@@Z 10016c30 f i mlcheck.obj
 0001:00015c40       ?_Parent@?$_Tree@V?$_Tmap_traits@HVCurrent@ctk@@U?$less@H@std@@V?$allocator@U?$pair@$$CBHVCurrent@ctk@@@std@@@4@$00@std@@@std@@KAAAPAU_Node@?$_Tree_nod@V?$_Tmap_traits@HVCurrent@ctk@@U?$less@H@std@@V?$allocator@U?$pair@$$CBHVCurrent@ctk@@@std@@@4@$00@std@@@2@PAU342@@Z 10016c40 f i mlcheck.obj
 0001:00015c50       ?_Right@?$_Tree@V?$_Tmap_traits@HVCurrent@ctk@@U?$less@H@std@@V?$allocator@U?$pair@$$CBHVCurrent@ctk@@@std@@@4@$00@std@@@std@@KAAAPAU_Node@?$_Tree_nod@V?$_Tmap_traits@HVCurrent@ctk@@U?$less@H@std@@V?$allocator@U?$pair@$$CBHVCurrent@ctk@@@std@@@4@$00@std@@@2@PAU342@@Z 10016c50 f i mlcheck.obj
 0001:00015c60       ?begin@?$_Tree@V?$_Tmap_traits@HVCurrent@ctk@@U?$less@H@std@@V?$allocator@U?$pair@$$CBHVCurrent@ctk@@@std@@@4@$00@std@@@std@@QAE?AViterator@12@XZ 10016c60 f i mlcheck.obj
 0001:00015c90       ?end@?$_Tree@V?$_Tmap_traits@HVCurrent@ctk@@U?$less@H@std@@V?$allocator@U?$pair@$$CBHVCurrent@ctk@@@std@@@4@$00@std@@@std@@QAE?AViterator@12@XZ 10016c90 f i mlcheck.obj
 0001:00015cc0       ?erase@?$_Tree@V?$_Tmap_traits@HVCurrent@ctk@@U?$less@H@std@@V?$allocator@U?$pair@$$CBHVCurrent@ctk@@@std@@@4@$00@std@@@std@@QAE?AViterator@12@Vconst_iterator@12@0@Z 10016cc0 f i mlcheck.obj
 0001:00015d70       ?_Init@?$_Tree@V?$_Tmap_traits@HVCurrent@ctk@@U?$less@H@std@@V?$allocator@U?$pair@$$CBHVCurrent@ctk@@@std@@@4@$00@std@@@std@@IAEXXZ 10016d70 f i mlcheck.obj
 0001:00015de0       ?_Insert@?$_Tree@V?$_Tmap_traits@HVCurrent@ctk@@U?$less@H@std@@V?$allocator@U?$pair@$$CBHVCurrent@ctk@@@std@@@4@$00@std@@@std@@IAE?AViterator@12@_NPAU_Node@?$_Tree_nod@V?$_Tmap_traits@HVCurrent@ctk@@U?$less@H@std@@V?$allocator@U?$pair@$$CBHVCurrent@ctk@@@std@@@4@$00@std@@@2@ABU?$pair@$$CBHVCurrent@ctk@@@2@@Z 10016de0 f i mlcheck.obj
 0001:00016260       ?_Root@?$_Tree@V?$_Tmap_traits@HVCurrent@ctk@@U?$less@H@std@@V?$allocator@U?$pair@$$CBHVCurrent@ctk@@@std@@@4@$00@std@@@std@@IBEAAPAU_Node@?$_Tree_nod@V?$_Tmap_traits@HVCurrent@ctk@@U?$less@H@std@@V?$allocator@U?$pair@$$CBHVCurrent@ctk@@@std@@@4@$00@std@@@2@XZ 10017260 f i mlcheck.obj
 0001:00016280       ??0?$_Tree_val@V?$_Tmap_traits@HVCurrent@ctk@@U?$less@H@std@@V?$allocator@U?$pair@$$CBHVCurrent@ctk@@@std@@@4@$00@std@@@std@@IAE@ABU?$less@H@1@V?$allocator@U?$pair@$$CBHVCurrent@ctk@@@std@@@1@@Z 10017280 f i mlcheck.obj
 0001:00016300       ?_Kfn@?$_Tmap_traits@HVCurrent@ctk@@U?$less@H@std@@V?$allocator@U?$pair@$$CBHVCurrent@ctk@@@std@@@4@$00@std@@SAABHABU?$pair@$$CBHVCurrent@ctk@@@2@@Z 10017300 f i mlcheck.obj
 0001:00016310       ??0?$allocator@U?$pair@$$CBHVCurrent@ctk@@@std@@@std@@QAE@ABV01@@Z 10017310 f i mlcheck.obj
 0001:00016320       ??R?$less@H@std@@QBE_NABH0@Z 10017320 f i mlcheck.obj
 0001:00016340       ?deallocate@?$allocator@U_Node@?$_Tree_nod@V?$_Tmap_traits@HVCurrent@ctk@@U?$less@H@std@@V?$allocator@U?$pair@$$CBHVCurrent@ctk@@@std@@@4@$00@std@@@std@@@std@@QAEXPAU_Node@?$_Tree_nod@V?$_Tmap_traits@HVCurrent@ctk@@U?$less@H@std@@V?$allocator@U?$pair@$$CBHVCurrent@ctk@@@std@@@4@$00@std@@@2@I@Z 10017340 f i mlcheck.obj
 0001:00016360       ?destroy@?$allocator@PAU_Node@?$_Tree_nod@V?$_Tmap_traits@HVCurrent@ctk@@U?$less@H@std@@V?$allocator@U?$pair@$$CBHVCurrent@ctk@@@std@@@4@$00@std@@@std@@@std@@QAEXPAPAU_Node@?$_Tree_nod@V?$_Tmap_traits@HVCurrent@ctk@@U?$less@H@std@@V?$allocator@U?$pair@$$CBHVCurrent@ctk@@@std@@@4@$00@std@@@2@@Z 10017360 f i mlcheck.obj
 0001:00016380       ??0const_iterator@?$_Tree@V?$_Tmap_traits@VCurrent@ctk@@HU?$less@VCurrent@ctk@@@std@@V?$allocator@U?$pair@$$CBVCurrent@ctk@@H@std@@@4@$0A@@std@@@std@@QAE@XZ 10017380 f i mlcheck.obj
 0001:000163a0       ??0const_iterator@?$_Tree@V?$_Tmap_traits@VCurrent@ctk@@HU?$less@VCurrent@ctk@@@std@@V?$allocator@U?$pair@$$CBVCurrent@ctk@@H@std@@@4@$0A@@std@@@std@@QAE@PAU_Node@?$_Tree_nod@V?$_Tmap_traits@VCurrent@ctk@@HU?$less@VCurrent@ctk@@@std@@V?$allocator@U?$pair@$$CBVCurrent@ctk@@H@std@@@4@$0A@@std@@@2@PBV12@@Z 100173a0 f i mlcheck.obj
 0001:000163e0       ??Fconst_iterator@?$_Tree@V?$_Tmap_traits@VCurrent@ctk@@HU?$less@VCurrent@ctk@@@std@@V?$allocator@U?$pair@$$CBVCurrent@ctk@@H@std@@@4@$0A@@std@@@std@@QAEAAV012@XZ 100173e0 f i mlcheck.obj
 0001:00016400       ??0iterator@?$_Tree@V?$_Tmap_traits@HVCurrent@ctk@@U?$less@H@std@@V?$allocator@U?$pair@$$CBHVCurrent@ctk@@@std@@@4@$00@std@@@std@@QAE@PAU_Node@?$_Tree_nod@V?$_Tmap_traits@HVCurrent@ctk@@U?$less@H@std@@V?$allocator@U?$pair@$$CBHVCurrent@ctk@@@std@@@4@$00@std@@@2@PBV12@@Z 10017400 f i mlcheck.obj
 0001:00016420       ??Fiterator@?$_Tree@V?$_Tmap_traits@HVCurrent@ctk@@U?$less@H@std@@V?$allocator@U?$pair@$$CBHVCurrent@ctk@@@std@@@4@$00@std@@@std@@QAEAAV012@XZ 10017420 f i mlcheck.obj
 0001:00016440       ??8const_iterator@?$_Tree@V?$_Tmap_traits@HVCurrent@ctk@@U?$less@H@std@@V?$allocator@U?$pair@$$CBHVCurrent@ctk@@@std@@@4@$00@std@@@std@@QBE_NABV012@@Z 10017440 f i mlcheck.obj
 0001:00016490       ?_Mynode@const_iterator@?$_Tree@V?$_Tmap_traits@HVCurrent@ctk@@U?$less@H@std@@V?$allocator@U?$pair@$$CBHVCurrent@ctk@@@std@@@4@$00@std@@@std@@QBEPAU_Node@?$_Tree_nod@V?$_Tmap_traits@HVCurrent@ctk@@U?$less@H@std@@V?$allocator@U?$pair@$$CBHVCurrent@ctk@@@std@@@4@$00@std@@@3@XZ 10017490 f i mlcheck.obj
 0001:000164b0       ??0?$pair@Viterator@?$_Tree@V?$_Tmap_traits@HVCurrent@ctk@@U?$less@H@std@@V?$allocator@U?$pair@$$CBHVCurrent@ctk@@@std@@@4@$00@std@@@std@@_N@std@@QAE@ABViterator@?$_Tree@V?$_Tmap_traits@HVCurrent@ctk@@U?$less@H@std@@V?$allocator@U?$pair@$$CBHVCurrent@ctk@@@std@@@4@$00@std@@@1@AB_N@Z 100174b0 f i mlcheck.obj
 0001:000164e0       ??0?$_Bidit@U?$pair@$$CBVCurrent@ctk@@H@std@@HPBU12@ABU12@@std@@QAE@XZ 100174e0 f i mlcheck.obj
 0001:00016500       ??0?$_Iterator_with_base@Ubidirectional_iterator_tag@std@@U?$pair@$$CBVCurrent@ctk@@H@2@HPBU32@ABU32@V_Iterator_base_aux@2@@std@@QAE@XZ 10017500 f i mlcheck.obj
 0001:00016520       ?max_size@?$_Tree@V?$_Tmap_traits@PAXVCurrent@ctk@@U?$less@PAX@std@@V?$allocator@U?$pair@QAXVCurrent@ctk@@@std@@@4@$0A@@std@@@std@@QBEIXZ 10017520 f i mlcheck.obj
 0001:00016540       ??Fiterator@?$_Tree@V?$_Tmap_traits@PAXVCurrent@ctk@@U?$less@PAX@std@@V?$allocator@U?$pair@QAXVCurrent@ctk@@@std@@@4@$0A@@std@@@std@@QAEAAV012@XZ 10017540 f i mlcheck.obj
 0001:00016560       ?_Dec@const_iterator@?$_Tree@V?$_Tmap_traits@PAXVCurrent@ctk@@U?$less@PAX@std@@V?$allocator@U?$pair@QAXVCurrent@ctk@@@std@@@4@$0A@@std@@@std@@QAEXXZ 10017560 f i mlcheck.obj
 0001:00016690       ?_Color@?$_Tree@V?$_Tmap_traits@VCurrent@ctk@@HU?$less@VCurrent@ctk@@@std@@V?$allocator@U?$pair@$$CBVCurrent@ctk@@H@std@@@4@$0A@@std@@@std@@KAAADPAU_Node@?$_Tree_nod@V?$_Tmap_traits@VCurrent@ctk@@HU?$less@VCurrent@ctk@@@std@@V?$allocator@U?$pair@$$CBVCurrent@ctk@@H@std@@@4@$0A@@std@@@2@@Z 10017690 f i mlcheck.obj
 0001:000166a0       ?_Make_iter@?$_Tree@V?$_Tmap_traits@VCurrent@ctk@@HU?$less@VCurrent@ctk@@@std@@V?$allocator@U?$pair@$$CBVCurrent@ctk@@H@std@@@4@$0A@@std@@@std@@QBE?AViterator@12@Vconst_iterator@12@@Z 100176a0 f i mlcheck.obj
 0001:000166d0       ?max_size@?$_Tree@V?$_Tmap_traits@VCurrent@ctk@@HU?$less@VCurrent@ctk@@@std@@V?$allocator@U?$pair@$$CBVCurrent@ctk@@H@std@@@4@$0A@@std@@@std@@QBEIXZ 100176d0 f i mlcheck.obj
 0001:000166f0       ?erase@?$_Tree@V?$_Tmap_traits@VCurrent@ctk@@HU?$less@VCurrent@ctk@@@std@@V?$allocator@U?$pair@$$CBVCurrent@ctk@@H@std@@@4@$0A@@std@@@std@@QAE?AViterator@12@Vconst_iterator@12@@Z 100176f0 f i mlcheck.obj
 0001:00016ed0       ?clear@?$_Tree@V?$_Tmap_traits@VCurrent@ctk@@HU?$less@VCurrent@ctk@@@std@@V?$allocator@U?$pair@$$CBVCurrent@ctk@@H@std@@@4@$0A@@std@@@std@@QAEXXZ 10017ed0 f i mlcheck.obj
 0001:00016f30       ?_Lrotate@?$_Tree@V?$_Tmap_traits@VCurrent@ctk@@HU?$less@VCurrent@ctk@@@std@@V?$allocator@U?$pair@$$CBVCurrent@ctk@@H@std@@@4@$0A@@std@@@std@@IAEXPAU_Node@?$_Tree_nod@V?$_Tmap_traits@VCurrent@ctk@@HU?$less@VCurrent@ctk@@@std@@V?$allocator@U?$pair@$$CBVCurrent@ctk@@H@std@@@4@$0A@@std@@@2@@Z 10017f30 f i mlcheck.obj
 0001:00017060       ?_Root@?$_Tree@V?$_Tmap_traits@VCurrent@ctk@@HU?$less@VCurrent@ctk@@@std@@V?$allocator@U?$pair@$$CBVCurrent@ctk@@H@std@@@4@$0A@@std@@@std@@IBEAAPAU_Node@?$_Tree_nod@V?$_Tmap_traits@VCurrent@ctk@@HU?$less@VCurrent@ctk@@@std@@V?$allocator@U?$pair@$$CBVCurrent@ctk@@H@std@@@4@$0A@@std@@@2@XZ 10018060 f i mlcheck.obj
 0001:00017080       ?_Rrotate@?$_Tree@V?$_Tmap_traits@VCurrent@ctk@@HU?$less@VCurrent@ctk@@@std@@V?$allocator@U?$pair@$$CBVCurrent@ctk@@H@std@@@4@$0A@@std@@@std@@IAEXPAU_Node@?$_Tree_nod@V?$_Tmap_traits@VCurrent@ctk@@HU?$less@VCurrent@ctk@@@std@@V?$allocator@U?$pair@$$CBVCurrent@ctk@@H@std@@@4@$0A@@std@@@2@@Z 10018080 f i mlcheck.obj
 0001:000171b0       ?_Buynode@?$_Tree@V?$_Tmap_traits@VCurrent@ctk@@HU?$less@VCurrent@ctk@@@std@@V?$allocator@U?$pair@$$CBVCurrent@ctk@@H@std@@@4@$0A@@std@@@std@@IAEPAU_Node@?$_Tree_nod@V?$_Tmap_traits@VCurrent@ctk@@HU?$less@VCurrent@ctk@@@std@@V?$allocator@U?$pair@$$CBVCurrent@ctk@@H@std@@@4@$0A@@std@@@2@XZ 100181b0 f i mlcheck.obj
 0001:00017320       ?_Buynode@?$_Tree@V?$_Tmap_traits@VCurrent@ctk@@HU?$less@VCurrent@ctk@@@std@@V?$allocator@U?$pair@$$CBVCurrent@ctk@@H@std@@@4@$0A@@std@@@std@@IAEPAU_Node@?$_Tree_nod@V?$_Tmap_traits@VCurrent@ctk@@HU?$less@VCurrent@ctk@@@std@@V?$allocator@U?$pair@$$CBVCurrent@ctk@@H@std@@@4@$0A@@std@@@2@PAU342@00ABU?$pair@$$CBVCurrent@ctk@@H@2@D@Z 10018320 f i mlcheck.obj
 0001:00017400       ??0?$_Tree_ptr@V?$_Tmap_traits@VCurrent@ctk@@HU?$less@VCurrent@ctk@@@std@@V?$allocator@U?$pair@$$CBVCurrent@ctk@@H@std@@@4@$0A@@std@@@std@@IAE@ABU?$less@VCurrent@ctk@@@1@V?$allocator@U?$pair@$$CBVCurrent@ctk@@H@std@@@1@@Z 10018400 f i mlcheck.obj
 0001:00017480       ?_Color@?$_Tree@V?$_Tmap_traits@HVCurrent@ctk@@U?$less@H@std@@V?$allocator@U?$pair@$$CBHVCurrent@ctk@@@std@@@4@$00@std@@@std@@KAAADPAU_Node@?$_Tree_nod@V?$_Tmap_traits@HVCurrent@ctk@@U?$less@H@std@@V?$allocator@U?$pair@$$CBHVCurrent@ctk@@@std@@@4@$00@std@@@2@@Z 10018480 f i mlcheck.obj
 0001:00017490       ?_Myval@?$_Tree@V?$_Tmap_traits@HVCurrent@ctk@@U?$less@H@std@@V?$allocator@U?$pair@$$CBHVCurrent@ctk@@@std@@@4@$00@std@@@std@@KAAAU?$pair@$$CBHVCurrent@ctk@@@2@PAU_Node@?$_Tree_nod@V?$_Tmap_traits@HVCurrent@ctk@@U?$less@H@std@@V?$allocator@U?$pair@$$CBHVCurrent@ctk@@@std@@@4@$00@std@@@2@@Z 10018490 f i mlcheck.obj
 0001:000174a0       ?_Make_iter@?$_Tree@V?$_Tmap_traits@HVCurrent@ctk@@U?$less@H@std@@V?$allocator@U?$pair@$$CBHVCurrent@ctk@@@std@@@4@$00@std@@@std@@QBE?AViterator@12@Vconst_iterator@12@@Z 100184a0 f i mlcheck.obj
 0001:000174d0       ?max_size@?$_Tree@V?$_Tmap_traits@HVCurrent@ctk@@U?$less@H@std@@V?$allocator@U?$pair@$$CBHVCurrent@ctk@@@std@@@4@$00@std@@@std@@QBEIXZ 100184d0 f i mlcheck.obj
 0001:000174f0       ?erase@?$_Tree@V?$_Tmap_traits@HVCurrent@ctk@@U?$less@H@std@@V?$allocator@U?$pair@$$CBHVCurrent@ctk@@@std@@@4@$00@std@@@std@@QAE?AViterator@12@Vconst_iterator@12@@Z 100184f0 f i mlcheck.obj
 0001:00017cd0       ?clear@?$_Tree@V?$_Tmap_traits@HVCurrent@ctk@@U?$less@H@std@@V?$allocator@U?$pair@$$CBHVCurrent@ctk@@@std@@@4@$00@std@@@std@@QAEXXZ 10018cd0 f i mlcheck.obj
 0001:00017d30       ?_Lmost@?$_Tree@V?$_Tmap_traits@HVCurrent@ctk@@U?$less@H@std@@V?$allocator@U?$pair@$$CBHVCurrent@ctk@@@std@@@4@$00@std@@@std@@IBEAAPAU_Node@?$_Tree_nod@V?$_Tmap_traits@HVCurrent@ctk@@U?$less@H@std@@V?$allocator@U?$pair@$$CBHVCurrent@ctk@@@std@@@4@$00@std@@@2@XZ 10018d30 f i mlcheck.obj
 0001:00017d50       ?_Lrotate@?$_Tree@V?$_Tmap_traits@HVCurrent@ctk@@U?$less@H@std@@V?$allocator@U?$pair@$$CBHVCurrent@ctk@@@std@@@4@$00@std@@@std@@IAEXPAU_Node@?$_Tree_nod@V?$_Tmap_traits@HVCurrent@ctk@@U?$less@H@std@@V?$allocator@U?$pair@$$CBHVCurrent@ctk@@@std@@@4@$00@std@@@2@@Z 10018d50 f i mlcheck.obj
 0001:00017e80       ?_Rmost@?$_Tree@V?$_Tmap_traits@HVCurrent@ctk@@U?$less@H@std@@V?$allocator@U?$pair@$$CBHVCurrent@ctk@@@std@@@4@$00@std@@@std@@IBEAAPAU_Node@?$_Tree_nod@V?$_Tmap_traits@HVCurrent@ctk@@U?$less@H@std@@V?$allocator@U?$pair@$$CBHVCurrent@ctk@@@std@@@4@$00@std@@@2@XZ 10018e80 f i mlcheck.obj
 0001:00017ea0       ?_Rrotate@?$_Tree@V?$_Tmap_traits@HVCurrent@ctk@@U?$less@H@std@@V?$allocator@U?$pair@$$CBHVCurrent@ctk@@@std@@@4@$00@std@@@std@@IAEXPAU_Node@?$_Tree_nod@V?$_Tmap_traits@HVCurrent@ctk@@U?$less@H@std@@V?$allocator@U?$pair@$$CBHVCurrent@ctk@@@std@@@4@$00@std@@@2@@Z 10018ea0 f i mlcheck.obj
 0001:00017fd0       ?_Buynode@?$_Tree@V?$_Tmap_traits@HVCurrent@ctk@@U?$less@H@std@@V?$allocator@U?$pair@$$CBHVCurrent@ctk@@@std@@@4@$00@std@@@std@@IAEPAU_Node@?$_Tree_nod@V?$_Tmap_traits@HVCurrent@ctk@@U?$less@H@std@@V?$allocator@U?$pair@$$CBHVCurrent@ctk@@@std@@@4@$00@std@@@2@XZ 10018fd0 f i mlcheck.obj
 0001:00018140       ?_Buynode@?$_Tree@V?$_Tmap_traits@HVCurrent@ctk@@U?$less@H@std@@V?$allocator@U?$pair@$$CBHVCurrent@ctk@@@std@@@4@$00@std@@@std@@IAEPAU_Node@?$_Tree_nod@V?$_Tmap_traits@HVCurrent@ctk@@U?$less@H@std@@V?$allocator@U?$pair@$$CBHVCurrent@ctk@@@std@@@4@$00@std@@@2@PAU342@00ABU?$pair@$$CBHVCurrent@ctk@@@2@D@Z 10019140 f i mlcheck.obj
 0001:00018220       ??0?$_Tree_ptr@V?$_Tmap_traits@HVCurrent@ctk@@U?$less@H@std@@V?$allocator@U?$pair@$$CBHVCurrent@ctk@@@std@@@4@$00@std@@@std@@IAE@ABU?$less@H@1@V?$allocator@U?$pair@$$CBHVCurrent@ctk@@@std@@@1@@Z 10019220 f i mlcheck.obj
 0001:000182a0       ??Econst_iterator@?$_Tree@V?$_Tmap_traits@VCurrent@ctk@@HU?$less@VCurrent@ctk@@@std@@V?$allocator@U?$pair@$$CBVCurrent@ctk@@H@std@@@4@$0A@@std@@@std@@QAE?AV012@H@Z 100192a0 f i mlcheck.obj
 0001:000182e0       ?_Dec@const_iterator@?$_Tree@V?$_Tmap_traits@VCurrent@ctk@@HU?$less@VCurrent@ctk@@@std@@V?$allocator@U?$pair@$$CBVCurrent@ctk@@H@std@@@4@$0A@@std@@@std@@QAEXXZ 100192e0 f i mlcheck.obj
 0001:00018410       ??Fiterator@?$_Tree@V?$_Tmap_traits@VCurrent@ctk@@HU?$less@VCurrent@ctk@@@std@@V?$allocator@U?$pair@$$CBVCurrent@ctk@@H@std@@@4@$0A@@std@@@std@@QAEAAV012@XZ 10019410 f i mlcheck.obj
 0001:00018430       ??0const_iterator@?$_Tree@V?$_Tmap_traits@HVCurrent@ctk@@U?$less@H@std@@V?$allocator@U?$pair@$$CBHVCurrent@ctk@@@std@@@4@$00@std@@@std@@QAE@PAU_Node@?$_Tree_nod@V?$_Tmap_traits@HVCurrent@ctk@@U?$less@H@std@@V?$allocator@U?$pair@$$CBHVCurrent@ctk@@@std@@@4@$00@std@@@2@PBV12@@Z 10019430 f i mlcheck.obj
 0001:00018470       ??Econst_iterator@?$_Tree@V?$_Tmap_traits@HVCurrent@ctk@@U?$less@H@std@@V?$allocator@U?$pair@$$CBHVCurrent@ctk@@@std@@@4@$00@std@@@std@@QAE?AV012@H@Z 10019470 f i mlcheck.obj
 0001:000184b0       ??Fconst_iterator@?$_Tree@V?$_Tmap_traits@HVCurrent@ctk@@U?$less@H@std@@V?$allocator@U?$pair@$$CBHVCurrent@ctk@@@std@@@4@$00@std@@@std@@QAEAAV012@XZ 100194b0 f i mlcheck.obj
 0001:000184d0       ??9const_iterator@?$_Tree@V?$_Tmap_traits@HVCurrent@ctk@@U?$less@H@std@@V?$allocator@U?$pair@$$CBHVCurrent@ctk@@@std@@@4@$00@std@@@std@@QBE_NABV012@@Z 100194d0 f i mlcheck.obj
 0001:00018500       ??0?$pair@Viterator@?$_Tree@V?$_Tmap_traits@PAXVCurrent@ctk@@U?$less@PAX@std@@V?$allocator@U?$pair@QAXVCurrent@ctk@@@std@@@4@$0A@@std@@@std@@_N@std@@QAE@ABViterator@?$_Tree@V?$_Tmap_traits@PAXVCurrent@ctk@@U?$less@PAX@std@@V?$allocator@U?$pair@QAXVCurrent@ctk@@@std@@@4@$0A@@std@@@1@AB_N@Z 10019500 f i mlcheck.obj
 0001:00018530       ??0?$pair@Viterator@?$_Tree@V?$_Tmap_traits@VCurrent@ctk@@HU?$less@VCurrent@ctk@@@std@@V?$allocator@U?$pair@$$CBVCurrent@ctk@@H@std@@@4@$0A@@std@@@std@@_N@std@@QAE@ABViterator@?$_Tree@V?$_Tmap_traits@VCurrent@ctk@@HU?$less@VCurrent@ctk@@@std@@V?$allocator@U?$pair@$$CBVCurrent@ctk@@H@std@@@4@$0A@@std@@@1@AB_N@Z 10019530 f i mlcheck.obj
 0001:00018560       ??0?$_Bidit@U?$pair@$$CBHVCurrent@ctk@@@std@@HPBU12@ABU12@@std@@QAE@XZ 10019560 f i mlcheck.obj
 0001:00018580       ??0?$_Iterator_with_base@Ubidirectional_iterator_tag@std@@U?$pair@$$CBHVCurrent@ctk@@@2@HPBU32@ABU32@V_Iterator_base_aux@2@@std@@QAE@XZ 10019580 f i mlcheck.obj
 0001:000185a0       ?max_size@?$allocator@U?$pair@QAXVCurrent@ctk@@@std@@@std@@QBEIXZ 100195a0 f i mlcheck.obj
 0001:000185d0       ?_Erase@?$_Tree@V?$_Tmap_traits@VCurrent@ctk@@HU?$less@VCurrent@ctk@@@std@@V?$allocator@U?$pair@$$CBVCurrent@ctk@@H@std@@@4@$0A@@std@@@std@@IAEXPAU_Node@?$_Tree_nod@V?$_Tmap_traits@VCurrent@ctk@@HU?$less@VCurrent@ctk@@@std@@V?$allocator@U?$pair@$$CBVCurrent@ctk@@H@std@@@4@$0A@@std@@@2@@Z 100195d0 f i mlcheck.obj
 0001:00018650       ?_Max@?$_Tree@V?$_Tmap_traits@VCurrent@ctk@@HU?$less@VCurrent@ctk@@@std@@V?$allocator@U?$pair@$$CBVCurrent@ctk@@H@std@@@4@$0A@@std@@@std@@KAPAU_Node@?$_Tree_nod@V?$_Tmap_traits@VCurrent@ctk@@HU?$less@VCurrent@ctk@@@std@@V?$allocator@U?$pair@$$CBVCurrent@ctk@@H@std@@@4@$0A@@std@@@2@PAU342@@Z 10019650 f i mlcheck.obj
 0001:00018690       ??0?$_Tree_nod@V?$_Tmap_traits@VCurrent@ctk@@HU?$less@VCurrent@ctk@@@std@@V?$allocator@U?$pair@$$CBVCurrent@ctk@@H@std@@@4@$0A@@std@@@std@@IAE@ABU?$less@VCurrent@ctk@@@1@V?$allocator@U?$pair@$$CBVCurrent@ctk@@H@std@@@1@@Z 10019690 f i mlcheck.obj
 0001:00018710       ?max_size@?$allocator@U?$pair@$$CBVCurrent@ctk@@H@std@@@std@@QBEIXZ 10019710 f i mlcheck.obj
 0001:00018740       ?allocate@?$allocator@U_Node@?$_Tree_nod@V?$_Tmap_traits@VCurrent@ctk@@HU?$less@VCurrent@ctk@@@std@@V?$allocator@U?$pair@$$CBVCurrent@ctk@@H@std@@@4@$0A@@std@@@std@@@std@@QAEPAU_Node@?$_Tree_nod@V?$_Tmap_traits@VCurrent@ctk@@HU?$less@VCurrent@ctk@@@std@@V?$allocator@U?$pair@$$CBVCurrent@ctk@@H@std@@@4@$0A@@std@@@2@I@Z 10019740 f i mlcheck.obj
 0001:00018760       ?destroy@?$allocator@U_Node@?$_Tree_nod@V?$_Tmap_traits@VCurrent@ctk@@HU?$less@VCurrent@ctk@@@std@@V?$allocator@U?$pair@$$CBVCurrent@ctk@@H@std@@@4@$0A@@std@@@std@@@std@@QAEXPAU_Node@?$_Tree_nod@V?$_Tmap_traits@VCurrent@ctk@@HU?$less@VCurrent@ctk@@@std@@V?$allocator@U?$pair@$$CBVCurrent@ctk@@H@std@@@4@$0A@@std@@@2@@Z 10019760 f i mlcheck.obj
 0001:00018780       ?construct@?$allocator@PAU_Node@?$_Tree_nod@V?$_Tmap_traits@VCurrent@ctk@@HU?$less@VCurrent@ctk@@@std@@V?$allocator@U?$pair@$$CBVCurrent@ctk@@H@std@@@4@$0A@@std@@@std@@@std@@QAEXPAPAU_Node@?$_Tree_nod@V?$_Tmap_traits@VCurrent@ctk@@HU?$less@VCurrent@ctk@@@std@@V?$allocator@U?$pair@$$CBVCurrent@ctk@@H@std@@@4@$0A@@std@@@2@ABQAU342@@Z 10019780 f i mlcheck.obj
 0001:000187a0       ?_Erase@?$_Tree@V?$_Tmap_traits@HVCurrent@ctk@@U?$less@H@std@@V?$allocator@U?$pair@$$CBHVCurrent@ctk@@@std@@@4@$00@std@@@std@@IAEXPAU_Node@?$_Tree_nod@V?$_Tmap_traits@HVCurrent@ctk@@U?$less@H@std@@V?$allocator@U?$pair@$$CBHVCurrent@ctk@@@std@@@4@$00@std@@@2@@Z 100197a0 f i mlcheck.obj
 0001:00018820       ?_Max@?$_Tree@V?$_Tmap_traits@HVCurrent@ctk@@U?$less@H@std@@V?$allocator@U?$pair@$$CBHVCurrent@ctk@@@std@@@4@$00@std@@@std@@KAPAU_Node@?$_Tree_nod@V?$_Tmap_traits@HVCurrent@ctk@@U?$less@H@std@@V?$allocator@U?$pair@$$CBHVCurrent@ctk@@@std@@@4@$00@std@@@2@PAU342@@Z 10019820 f i mlcheck.obj
 0001:00018860       ?_Min@?$_Tree@V?$_Tmap_traits@HVCurrent@ctk@@U?$less@H@std@@V?$allocator@U?$pair@$$CBHVCurrent@ctk@@@std@@@4@$00@std@@@std@@KAPAU_Node@?$_Tree_nod@V?$_Tmap_traits@HVCurrent@ctk@@U?$less@H@std@@V?$allocator@U?$pair@$$CBHVCurrent@ctk@@@std@@@4@$00@std@@@2@PAU342@@Z 10019860 f i mlcheck.obj
 0001:000188a0       ??0?$_Tree_nod@V?$_Tmap_traits@HVCurrent@ctk@@U?$less@H@std@@V?$allocator@U?$pair@$$CBHVCurrent@ctk@@@std@@@4@$00@std@@@std@@IAE@ABU?$less@H@1@V?$allocator@U?$pair@$$CBHVCurrent@ctk@@@std@@@1@@Z 100198a0 f i mlcheck.obj
 0001:00018920       ?max_size@?$allocator@U?$pair@$$CBHVCurrent@ctk@@@std@@@std@@QBEIXZ 10019920 f i mlcheck.obj
 0001:00018950       ?allocate@?$allocator@U_Node@?$_Tree_nod@V?$_Tmap_traits@HVCurrent@ctk@@U?$less@H@std@@V?$allocator@U?$pair@$$CBHVCurrent@ctk@@@std@@@4@$00@std@@@std@@@std@@QAEPAU_Node@?$_Tree_nod@V?$_Tmap_traits@HVCurrent@ctk@@U?$less@H@std@@V?$allocator@U?$pair@$$CBHVCurrent@ctk@@@std@@@4@$00@std@@@2@I@Z 10019950 f i mlcheck.obj
 0001:00018970       ?destroy@?$allocator@U_Node@?$_Tree_nod@V?$_Tmap_traits@HVCurrent@ctk@@U?$less@H@std@@V?$allocator@U?$pair@$$CBHVCurrent@ctk@@@std@@@4@$00@std@@@std@@@std@@QAEXPAU_Node@?$_Tree_nod@V?$_Tmap_traits@HVCurrent@ctk@@U?$less@H@std@@V?$allocator@U?$pair@$$CBHVCurrent@ctk@@@std@@@4@$00@std@@@2@@Z 10019970 f i mlcheck.obj
 0001:00018990       ?construct@?$allocator@PAU_Node@?$_Tree_nod@V?$_Tmap_traits@HVCurrent@ctk@@U?$less@H@std@@V?$allocator@U?$pair@$$CBHVCurrent@ctk@@@std@@@4@$00@std@@@std@@@std@@QAEXPAPAU_Node@?$_Tree_nod@V?$_Tmap_traits@HVCurrent@ctk@@U?$less@H@std@@V?$allocator@U?$pair@$$CBHVCurrent@ctk@@@std@@@4@$00@std@@@2@ABQAU342@@Z 10019990 f i mlcheck.obj
 0001:000189b0       ??Econst_iterator@?$_Tree@V?$_Tmap_traits@HVCurrent@ctk@@U?$less@H@std@@V?$allocator@U?$pair@$$CBHVCurrent@ctk@@@std@@@4@$00@std@@@std@@QAEAAV012@XZ 100199b0 f i mlcheck.obj
 0001:000189d0       ?_Dec@const_iterator@?$_Tree@V?$_Tmap_traits@HVCurrent@ctk@@U?$less@H@std@@V?$allocator@U?$pair@$$CBHVCurrent@ctk@@@std@@@4@$00@std@@@std@@QAEXXZ 100199d0 f i mlcheck.obj
 0001:00018b00       ??0_Node@?$_Tree_nod@V?$_Tmap_traits@VCurrent@ctk@@HU?$less@VCurrent@ctk@@@std@@V?$allocator@U?$pair@$$CBVCurrent@ctk@@H@std@@@4@$0A@@std@@@std@@QAE@PAU012@00ABU?$pair@$$CBVCurrent@ctk@@H@2@D@Z 10019b00 f i mlcheck.obj
 0001:00018b90       ??0_Node@?$_Tree_nod@V?$_Tmap_traits@HVCurrent@ctk@@U?$less@H@std@@V?$allocator@U?$pair@$$CBHVCurrent@ctk@@@std@@@4@$00@std@@@std@@QAE@PAU012@00ABU?$pair@$$CBHVCurrent@ctk@@@2@D@Z 10019b90 f i mlcheck.obj
 0001:00018c20       ??0?$pair@$$CBVCurrent@ctk@@H@std@@QAE@ABU01@@Z 10019c20 f i mlcheck.obj
 0001:00018c80       ??0?$pair@$$CBHVCurrent@ctk@@@std@@QAE@ABU01@@Z 10019c80 f i mlcheck.obj
 0001:00018cf0       ??0?$_Tmap_traits@VCurrent@ctk@@HU?$less@VCurrent@ctk@@@std@@V?$allocator@U?$pair@$$CBVCurrent@ctk@@H@std@@@4@$0A@@std@@QAE@U?$less@VCurrent@ctk@@@1@V?$allocator@U?$pair@$$CBVCurrent@ctk@@H@std@@@1@@Z 10019cf0 f i mlcheck.obj
 0001:00018d60       ??0?$_Tmap_traits@HVCurrent@ctk@@U?$less@H@std@@V?$allocator@U?$pair@$$CBHVCurrent@ctk@@@std@@@4@$00@std@@QAE@U?$less@H@1@V?$allocator@U?$pair@$$CBHVCurrent@ctk@@@std@@@1@@Z 10019d60 f i mlcheck.obj
 0001:00018dd0       ?_Inc@const_iterator@?$_Tree@V?$_Tmap_traits@HVCurrent@ctk@@U?$less@H@std@@V?$allocator@U?$pair@$$CBHVCurrent@ctk@@@std@@@4@$00@std@@@std@@QAEXXZ 10019dd0 f i mlcheck.obj
 0001:00018eb0       ??0?$_Container_base_aux_alloc_real@V?$allocator@U?$pair@$$CBVCurrent@ctk@@H@std@@@std@@@std@@IAE@V?$allocator@U?$pair@$$CBVCurrent@ctk@@H@std@@@1@@Z 10019eb0 f i mlcheck.obj
 0001:00018f70       ??0?$_Container_base_aux_alloc_real@V?$allocator@U?$pair@$$CBHVCurrent@ctk@@@std@@@std@@@std@@IAE@V?$allocator@U?$pair@$$CBHVCurrent@ctk@@@std@@@1@@Z 10019f70 f i mlcheck.obj
 0001:00019030       ??$?6HVCurrent@ctk@@@ctk@@YAAAVdumper@0@AAV10@ABV?$multimap@HVCurrent@ctk@@U?$less@H@std@@V?$allocator@U?$pair@$$CBHVCurrent@ctk@@@std@@@4@@std@@@Z 1001a030 f i mlcheck.obj
 0001:00019150       ??$?6VCurrent@ctk@@H@ctk@@YAAAVdumper@0@AAV10@ABV?$map@VCurrent@ctk@@HU?$less@VCurrent@ctk@@@std@@V?$allocator@U?$pair@$$CBVCurrent@ctk@@H@std@@@4@@std@@@Z 1001a150 f i mlcheck.obj
 0001:00019270       ??$_Destroy@PAU_Node@?$_Tree_nod@V?$_Tmap_traits@VCurrent@ctk@@HU?$less@VCurrent@ctk@@@std@@V?$allocator@U?$pair@$$CBVCurrent@ctk@@H@std@@@4@$0A@@std@@@std@@@std@@YAXPAPAU_Node@?$_Tree_nod@V?$_Tmap_traits@VCurrent@ctk@@HU?$less@VCurrent@ctk@@@std@@V?$allocator@U?$pair@$$CBVCurrent@ctk@@H@std@@@4@$0A@@std@@@0@@Z 1001a270 f i mlcheck.obj
 0001:00019280       ??$_Destroy@PAU_Node@?$_Tree_nod@V?$_Tmap_traits@HVCurrent@ctk@@U?$less@H@std@@V?$allocator@U?$pair@$$CBHVCurrent@ctk@@@std@@@4@$00@std@@@std@@@std@@YAXPAPAU_Node@?$_Tree_nod@V?$_Tmap_traits@HVCurrent@ctk@@U?$less@H@std@@V?$allocator@U?$pair@$$CBHVCurrent@ctk@@@std@@@4@$00@std@@@0@@Z 1001a280 f i mlcheck.obj
 0001:00019290       ??$?0U?$pair@$$CBVCurrent@ctk@@H@std@@@?$allocator@PAU_Node@?$_Tree_nod@V?$_Tmap_traits@VCurrent@ctk@@HU?$less@VCurrent@ctk@@@std@@V?$allocator@U?$pair@$$CBVCurrent@ctk@@H@std@@@4@$0A@@std@@@std@@@std@@QAE@ABV?$allocator@U?$pair@$$CBVCurrent@ctk@@H@std@@@1@@Z 1001a290 f i mlcheck.obj
 0001:000192a0       ??$?0U?$pair@$$CBHVCurrent@ctk@@@std@@@?$allocator@PAU_Node@?$_Tree_nod@V?$_Tmap_traits@HVCurrent@ctk@@U?$less@H@std@@V?$allocator@U?$pair@$$CBHVCurrent@ctk@@@std@@@4@$00@std@@@std@@@std@@QAE@ABV?$allocator@U?$pair@$$CBHVCurrent@ctk@@@std@@@1@@Z 1001a2a0 f i mlcheck.obj
 0001:000192b0       ??$?0U?$pair@$$CBVCurrent@ctk@@H@std@@@?$allocator@U_Node@?$_Tree_nod@V?$_Tmap_traits@VCurrent@ctk@@HU?$less@VCurrent@ctk@@@std@@V?$allocator@U?$pair@$$CBVCurrent@ctk@@H@std@@@4@$0A@@std@@@std@@@std@@QAE@ABV?$allocator@U?$pair@$$CBVCurrent@ctk@@H@std@@@1@@Z 1001a2b0 f i mlcheck.obj
 0001:000192c0       ??$_Allocate@U_Node@?$_Tree_nod@V?$_Tmap_traits@VCurrent@ctk@@HU?$less@VCurrent@ctk@@@std@@V?$allocator@U?$pair@$$CBVCurrent@ctk@@H@std@@@4@$0A@@std@@@std@@@std@@YAPAU_Node@?$_Tree_nod@V?$_Tmap_traits@VCurrent@ctk@@HU?$less@VCurrent@ctk@@@std@@V?$allocator@U?$pair@$$CBVCurrent@ctk@@H@std@@@4@$0A@@std@@@0@IPAU120@@Z 1001a2c0 f i mlcheck.obj
 0001:00019310       ??$_Destroy@U_Node@?$_Tree_nod@V?$_Tmap_traits@VCurrent@ctk@@HU?$less@VCurrent@ctk@@@std@@V?$allocator@U?$pair@$$CBVCurrent@ctk@@H@std@@@4@$0A@@std@@@std@@@std@@YAXPAU_Node@?$_Tree_nod@V?$_Tmap_traits@VCurrent@ctk@@HU?$less@VCurrent@ctk@@@std@@V?$allocator@U?$pair@$$CBVCurrent@ctk@@H@std@@@4@$0A@@std@@@0@@Z 1001a310 f i mlcheck.obj
 0001:00019320       ??$_Construct@PAU_Node@?$_Tree_nod@V?$_Tmap_traits@VCurrent@ctk@@HU?$less@VCurrent@ctk@@@std@@V?$allocator@U?$pair@$$CBVCurrent@ctk@@H@std@@@4@$0A@@std@@@std@@PAU123@@std@@YAXPAPAU_Node@?$_Tree_nod@V?$_Tmap_traits@VCurrent@ctk@@HU?$less@VCurrent@ctk@@@std@@V?$allocator@U?$pair@$$CBVCurrent@ctk@@H@std@@@4@$0A@@std@@@0@ABQAU120@@Z 1001a320 f i mlcheck.obj
 0001:00019360       ??$?0U?$pair@$$CBHVCurrent@ctk@@@std@@@?$allocator@U_Node@?$_Tree_nod@V?$_Tmap_traits@HVCurrent@ctk@@U?$less@H@std@@V?$allocator@U?$pair@$$CBHVCurrent@ctk@@@std@@@4@$00@std@@@std@@@std@@QAE@ABV?$allocator@U?$pair@$$CBHVCurrent@ctk@@@std@@@1@@Z 1001a360 f i mlcheck.obj
 0001:00019370       ??$_Allocate@U_Node@?$_Tree_nod@V?$_Tmap_traits@HVCurrent@ctk@@U?$less@H@std@@V?$allocator@U?$pair@$$CBHVCurrent@ctk@@@std@@@4@$00@std@@@std@@@std@@YAPAU_Node@?$_Tree_nod@V?$_Tmap_traits@HVCurrent@ctk@@U?$less@H@std@@V?$allocator@U?$pair@$$CBHVCurrent@ctk@@@std@@@4@$00@std@@@0@IPAU120@@Z 1001a370 f i mlcheck.obj
 0001:000193c0       ??$_Destroy@U_Node@?$_Tree_nod@V?$_Tmap_traits@HVCurrent@ctk@@U?$less@H@std@@V?$allocator@U?$pair@$$CBHVCurrent@ctk@@@std@@@4@$00@std@@@std@@@std@@YAXPAU_Node@?$_Tree_nod@V?$_Tmap_traits@HVCurrent@ctk@@U?$less@H@std@@V?$allocator@U?$pair@$$CBHVCurrent@ctk@@@std@@@4@$00@std@@@0@@Z 1001a3c0 f i mlcheck.obj
 0001:000193d0       ??$_Construct@PAU_Node@?$_Tree_nod@V?$_Tmap_traits@HVCurrent@ctk@@U?$less@H@std@@V?$allocator@U?$pair@$$CBHVCurrent@ctk@@@std@@@4@$00@std@@@std@@PAU123@@std@@YAXPAPAU_Node@?$_Tree_nod@V?$_Tmap_traits@HVCurrent@ctk@@U?$less@H@std@@V?$allocator@U?$pair@$$CBHVCurrent@ctk@@@std@@@4@$00@std@@@0@ABQAU120@@Z 1001a3d0 f i mlcheck.obj
 0001:00019410       ??$?0U?$pair@$$CBVCurrent@ctk@@H@std@@@?$allocator@V_Aux_cont@std@@@std@@QAE@ABV?$allocator@U?$pair@$$CBVCurrent@ctk@@H@std@@@1@@Z 1001a410 f i mlcheck.obj
 0001:00019420       ??$?0U?$pair@$$CBHVCurrent@ctk@@@std@@@?$allocator@V_Aux_cont@std@@@std@@QAE@ABV?$allocator@U?$pair@$$CBHVCurrent@ctk@@@std@@@1@@Z 1001a420 f i mlcheck.obj
 0001:00019430       ??_G_Node@?$_Tree_nod@V?$_Tmap_traits@VCurrent@ctk@@HU?$less@VCurrent@ctk@@@std@@V?$allocator@U?$pair@$$CBVCurrent@ctk@@H@std@@@4@$0A@@std@@@std@@QAEPAXI@Z 1001a430 f i mlcheck.obj
 0001:00019460       ??_G_Node@?$_Tree_nod@V?$_Tmap_traits@HVCurrent@ctk@@U?$less@H@std@@V?$allocator@U?$pair@$$CBHVCurrent@ctk@@@std@@@4@$00@std@@@std@@QAEPAXI@Z 1001a460 f i mlcheck.obj
 0001:00019490       ??1_Node@?$_Tree_nod@V?$_Tmap_traits@VCurrent@ctk@@HU?$less@VCurrent@ctk@@@std@@V?$allocator@U?$pair@$$CBVCurrent@ctk@@H@std@@@4@$0A@@std@@@std@@QAE@XZ 1001a490 f i mlcheck.obj
 0001:000194e0       ??1_Node@?$_Tree_nod@V?$_Tmap_traits@HVCurrent@ctk@@U?$less@H@std@@V?$allocator@U?$pair@$$CBHVCurrent@ctk@@@std@@@4@$00@std@@@std@@QAE@XZ 1001a4e0 f i mlcheck.obj
 0001:00019530       ??$output@V?$multimap@HVCurrent@ctk@@U?$less@H@std@@V?$allocator@U?$pair@$$CBHVCurrent@ctk@@@std@@@4@@std@@@ctk@@YAAAVdumper@0@AAV10@ABV?$multimap@HVCurrent@ctk@@U?$less@H@std@@V?$allocator@U?$pair@$$CBHVCurrent@ctk@@@std@@@4@@std@@@Z 1001a530 f i mlcheck.obj
 0001:00019590       ??$output@V?$map@VCurrent@ctk@@HU?$less@VCurrent@ctk@@@std@@V?$allocator@U?$pair@$$CBVCurrent@ctk@@H@std@@@4@@std@@@ctk@@YAAAVdumper@0@AAV10@ABV?$map@VCurrent@ctk@@HU?$less@VCurrent@ctk@@@std@@V?$allocator@U?$pair@$$CBVCurrent@ctk@@H@std@@@4@@std@@@Z 1001a590 f i mlcheck.obj
 0001:000195f0       ?begin@?$_Tree@V?$_Tmap_traits@VCurrent@ctk@@HU?$less@VCurrent@ctk@@@std@@V?$allocator@U?$pair@$$CBVCurrent@ctk@@H@std@@@4@$0A@@std@@@std@@QBE?AVconst_iterator@12@XZ 1001a5f0 f i mlcheck.obj
 0001:00019620       ?end@?$_Tree@V?$_Tmap_traits@VCurrent@ctk@@HU?$less@VCurrent@ctk@@@std@@V?$allocator@U?$pair@$$CBVCurrent@ctk@@H@std@@@4@$0A@@std@@@std@@QBE?AVconst_iterator@12@XZ 1001a620 f i mlcheck.obj
 0001:00019650       ?begin@?$_Tree@V?$_Tmap_traits@HVCurrent@ctk@@U?$less@H@std@@V?$allocator@U?$pair@$$CBHVCurrent@ctk@@@std@@@4@$00@std@@@std@@QBE?AVconst_iterator@12@XZ 1001a650 f i mlcheck.obj
 0001:00019680       ?end@?$_Tree@V?$_Tmap_traits@HVCurrent@ctk@@U?$less@H@std@@V?$allocator@U?$pair@$$CBHVCurrent@ctk@@@std@@@4@$00@std@@@std@@QBE?AVconst_iterator@12@XZ 1001a680 f i mlcheck.obj
 0001:000196b0       ??$make_pair@Vconst_iterator@?$_Tree@V?$_Tmap_traits@HVCurrent@ctk@@U?$less@H@std@@V?$allocator@U?$pair@$$CBHVCurrent@ctk@@@std@@@4@$00@std@@@std@@V123@@std@@YA?AU?$pair@Vconst_iterator@?$_Tree@V?$_Tmap_traits@HVCurrent@ctk@@U?$less@H@std@@V?$allocator@U?$pair@$$CBHVCurrent@ctk@@@std@@@4@$00@std@@@std@@V123@@0@Vconst_iterator@?$_Tree@V?$_Tmap_traits@HVCurrent@ctk@@U?$less@H@std@@V?$allocator@U?$pair@$$CBHVCurrent@ctk@@@std@@@4@$00@std@@@0@0@Z 1001a6b0 f i mlcheck.obj
 0001:000196d0       ??$output_@Vconst_iterator@?$_Tree@V?$_Tmap_traits@HVCurrent@ctk@@U?$less@H@std@@V?$allocator@U?$pair@$$CBHVCurrent@ctk@@@std@@@4@$00@std@@@std@@@ctk@@YAAAVdumper@0@AAV10@U?$pair@Vconst_iterator@?$_Tree@V?$_Tmap_traits@HVCurrent@ctk@@U?$less@H@std@@V?$allocator@U?$pair@$$CBHVCurrent@ctk@@@std@@@4@$00@std@@@std@@V123@@std@@@Z 1001a6d0 f i mlcheck.obj
 0001:00019750       ??$make_pair@Vconst_iterator@?$_Tree@V?$_Tmap_traits@VCurrent@ctk@@HU?$less@VCurrent@ctk@@@std@@V?$allocator@U?$pair@$$CBVCurrent@ctk@@H@std@@@4@$0A@@std@@@std@@V123@@std@@YA?AU?$pair@Vconst_iterator@?$_Tree@V?$_Tmap_traits@VCurrent@ctk@@HU?$less@VCurrent@ctk@@@std@@V?$allocator@U?$pair@$$CBVCurrent@ctk@@H@std@@@4@$0A@@std@@@std@@V123@@0@Vconst_iterator@?$_Tree@V?$_Tmap_traits@VCurrent@ctk@@HU?$less@VCurrent@ctk@@@std@@V?$allocator@U?$pair@$$CBVCurrent@ctk@@H@std@@@4@$0A@@std@@@0@0@Z 1001a750 f i mlcheck.obj
 0001:00019770       ??$output_@Vconst_iterator@?$_Tree@V?$_Tmap_traits@VCurrent@ctk@@HU?$less@VCurrent@ctk@@@std@@V?$allocator@U?$pair@$$CBVCurrent@ctk@@H@std@@@4@$0A@@std@@@std@@@ctk@@YAAAVdumper@0@AAV10@U?$pair@Vconst_iterator@?$_Tree@V?$_Tmap_traits@VCurrent@ctk@@HU?$less@VCurrent@ctk@@@std@@V?$allocator@U?$pair@$$CBVCurrent@ctk@@H@std@@@4@$0A@@std@@@std@@V123@@std@@@Z 1001a770 f i mlcheck.obj
 0001:000197f0       ??Dconst_iterator@?$_Tree@V?$_Tmap_traits@HVCurrent@ctk@@U?$less@H@std@@V?$allocator@U?$pair@$$CBHVCurrent@ctk@@@std@@@4@$00@std@@@std@@QBEABU?$pair@$$CBHVCurrent@ctk@@@2@XZ 1001a7f0 f i mlcheck.obj
 0001:00019840       ??0?$pair@Vconst_iterator@?$_Tree@V?$_Tmap_traits@HVCurrent@ctk@@U?$less@H@std@@V?$allocator@U?$pair@$$CBHVCurrent@ctk@@@std@@@4@$00@std@@@std@@V123@@std@@QAE@ABVconst_iterator@?$_Tree@V?$_Tmap_traits@HVCurrent@ctk@@U?$less@H@std@@V?$allocator@U?$pair@$$CBHVCurrent@ctk@@@std@@@4@$00@std@@@1@0@Z 1001a840 f i mlcheck.obj
 0001:00019880       ??0?$pair@Vconst_iterator@?$_Tree@V?$_Tmap_traits@VCurrent@ctk@@HU?$less@VCurrent@ctk@@@std@@V?$allocator@U?$pair@$$CBVCurrent@ctk@@H@std@@@4@$0A@@std@@@std@@V123@@std@@QAE@ABVconst_iterator@?$_Tree@V?$_Tmap_traits@VCurrent@ctk@@HU?$less@VCurrent@ctk@@@std@@V?$allocator@U?$pair@$$CBVCurrent@ctk@@H@std@@@4@$0A@@std@@@1@0@Z 1001a880 f i mlcheck.obj
 0001:000198c0       ??$?6$$CBHVCurrent@ctk@@@ctk@@YAAAVdumper@0@AAV10@ABU?$pair@$$CBHVCurrent@ctk@@@std@@@Z 1001a8c0 f i mlcheck.obj
 0001:000199a0       ??$?6$$CBVCurrent@ctk@@H@ctk@@YAAAVdumper@0@AAV10@ABU?$pair@$$CBVCurrent@ctk@@H@std@@@Z 1001a9a0 f i mlcheck.obj
 0001:00019a80       ??$?6H@ctk@@YAAAVString@0@AAV10@ABH@Z 1001aa80 f i mlcheck.obj
 0001:00019aa0       ??$?6VCurrent@ctk@@@ctk@@YAAAVString@0@AAV10@ABVCurrent@0@@Z 1001aaa0 f i mlcheck.obj
 0001:00019ac0       ??$?YH@String@ctk@@QAEAAV01@ABH@Z 1001aac0 f i mlcheck.obj
 0001:00019ba0       ??$?YVCurrent@ctk@@@String@ctk@@QAEAAV01@ABVCurrent@1@@Z 1001aba0 f i mlcheck.obj
 0001:00019c80       ??1?$map@PAXVCurrent@ctk@@U?$less@PAX@std@@V?$allocator@U?$pair@QAXVCurrent@ctk@@@std@@@4@@std@@QAE@XZ 1001ac80 f i mlcheck.obj
 0001:00019cd0       ??6ctk@@YAAAV?$basic_ostream@DU?$char_traits@D@std@@@std@@AAV12@ABVMemLeakChecker@0@@Z 1001acd0 f i mlcheck.obj
 0001:00019cf0       ??6ctk@@YAAAVdumper@0@AAV10@ABUrawstring@0@@Z 1001acf0 f i mlcheck.obj
 0001:00019d10       ??6ctk@@YAAAVdumper@0@AAV10@ABUnamestring@0@@Z 1001ad10 f i mlcheck.obj
 0001:00019d30       ??6ctk@@YAAAVdumper@0@AAV10@P6AAAV10@0@Z@Z 1001ad30 f i mlcheck.obj
 0001:00019d40       ??1?$_Tree@V?$_Tmap_traits@PAXVCurrent@ctk@@U?$less@PAX@std@@V?$allocator@U?$pair@QAXVCurrent@ctk@@@std@@@4@$0A@@std@@@std@@QAE@XZ 1001ad40 f i mlcheck.obj
 0001:00019da0       ??1?$_Tree_val@V?$_Tmap_traits@PAXVCurrent@ctk@@U?$less@PAX@std@@V?$allocator@U?$pair@QAXVCurrent@ctk@@@std@@@4@$0A@@std@@@std@@QAE@XZ 1001ada0 f i mlcheck.obj
 0001:00019df0       ??1?$_Tree_ptr@V?$_Tmap_traits@PAXVCurrent@ctk@@U?$less@PAX@std@@V?$allocator@U?$pair@QAXVCurrent@ctk@@@std@@@4@$0A@@std@@@std@@QAE@XZ 1001adf0 f i mlcheck.obj
 0001:00019e40       ??1?$_Tree_nod@V?$_Tmap_traits@PAXVCurrent@ctk@@U?$less@PAX@std@@V?$allocator@U?$pair@QAXVCurrent@ctk@@@std@@@4@$0A@@std@@@std@@QAE@XZ 1001ae40 f i mlcheck.obj
 0001:00019e90       ??1?$_Tmap_traits@PAXVCurrent@ctk@@U?$less@PAX@std@@V?$allocator@U?$pair@QAXVCurrent@ctk@@@std@@@4@$0A@@std@@QAE@XZ 1001ae90 f i mlcheck.obj
 0001:00019ee0       ?begin@?$_Tree@V?$_Tmap_traits@PAXVCurrent@ctk@@U?$less@PAX@std@@V?$allocator@U?$pair@QAXVCurrent@ctk@@@std@@@4@$0A@@std@@@std@@QAE?AViterator@12@XZ 1001aee0 f i mlcheck.obj
 0001:00019f10       ?end@?$_Tree@V?$_Tmap_traits@PAXVCurrent@ctk@@U?$less@PAX@std@@V?$allocator@U?$pair@QAXVCurrent@ctk@@@std@@@4@$0A@@std@@@std@@QAE?AViterator@12@XZ 1001af10 f i mlcheck.obj
 0001:00019f40       ?_Init@?$_Tree@V?$_Tmap_traits@PAXVCurrent@ctk@@U?$less@PAX@std@@V?$allocator@U?$pair@QAXVCurrent@ctk@@@std@@@4@$0A@@std@@@std@@IAEXXZ 1001af40 f i mlcheck.obj
 0001:00019fb0       ?_Tidy@?$_Tree@V?$_Tmap_traits@PAXVCurrent@ctk@@U?$less@PAX@std@@V?$allocator@U?$pair@QAXVCurrent@ctk@@@std@@@4@$0A@@std@@@std@@IAEXXZ 1001afb0 f i mlcheck.obj
 0001:0001a080       ?erase@?$_Tree@V?$_Tmap_traits@PAXVCurrent@ctk@@U?$less@PAX@std@@V?$allocator@U?$pair@QAXVCurrent@ctk@@@std@@@4@$0A@@std@@@std@@QAE?AViterator@12@Vconst_iterator@12@0@Z 1001b080 f i mlcheck.obj
 0001:0001a130       ??0?$_Tree_val@V?$_Tmap_traits@PAXVCurrent@ctk@@U?$less@PAX@std@@V?$allocator@U?$pair@QAXVCurrent@ctk@@@std@@@4@$0A@@std@@@std@@IAE@ABU?$less@PAX@1@V?$allocator@U?$pair@QAXVCurrent@ctk@@@std@@@1@@Z 1001b130 f i mlcheck.obj
 0001:0001a1b0       ??1?$_Container_base_aux_alloc_real@V?$allocator@U?$pair@QAXVCurrent@ctk@@@std@@@std@@@std@@IAE@XZ 1001b1b0 f i mlcheck.obj
 0001:0001a210       ?_Isnil@?$_Tree@V?$_Tmap_traits@PAXVCurrent@ctk@@U?$less@PAX@std@@V?$allocator@U?$pair@QAXVCurrent@ctk@@@std@@@4@$0A@@std@@@std@@KAAADPAU_Node@?$_Tree_nod@V?$_Tmap_traits@PAXVCurrent@ctk@@U?$less@PAX@std@@V?$allocator@U?$pair@QAXVCurrent@ctk@@@std@@@4@$0A@@std@@@2@@Z 1001b210 f i mlcheck.obj
 0001:0001a220       ?_Left@?$_Tree@V?$_Tmap_traits@PAXVCurrent@ctk@@U?$less@PAX@std@@V?$allocator@U?$pair@QAXVCurrent@ctk@@@std@@@4@$0A@@std@@@std@@KAAAPAU_Node@?$_Tree_nod@V?$_Tmap_traits@PAXVCurrent@ctk@@U?$less@PAX@std@@V?$allocator@U?$pair@QAXVCurrent@ctk@@@std@@@4@$0A@@std@@@2@PAU342@@Z 1001b220 f i mlcheck.obj
 0001:0001a230       ?_Parent@?$_Tree@V?$_Tmap_traits@PAXVCurrent@ctk@@U?$less@PAX@std@@V?$allocator@U?$pair@QAXVCurrent@ctk@@@std@@@4@$0A@@std@@@std@@KAAAPAU_Node@?$_Tree_nod@V?$_Tmap_traits@PAXVCurrent@ctk@@U?$less@PAX@std@@V?$allocator@U?$pair@QAXVCurrent@ctk@@@std@@@4@$0A@@std@@@2@PAU342@@Z 1001b230 f i mlcheck.obj
 0001:0001a240       ?_Right@?$_Tree@V?$_Tmap_traits@PAXVCurrent@ctk@@U?$less@PAX@std@@V?$allocator@U?$pair@QAXVCurrent@ctk@@@std@@@4@$0A@@std@@@std@@KAAAPAU_Node@?$_Tree_nod@V?$_Tmap_traits@PAXVCurrent@ctk@@U?$less@PAX@std@@V?$allocator@U?$pair@QAXVCurrent@ctk@@@std@@@4@$0A@@std@@@2@PAU342@@Z 1001b240 f i mlcheck.obj
 0001:0001a250       ?_Make_iter@?$_Tree@V?$_Tmap_traits@PAXVCurrent@ctk@@U?$less@PAX@std@@V?$allocator@U?$pair@QAXVCurrent@ctk@@@std@@@4@$0A@@std@@@std@@QBE?AViterator@12@Vconst_iterator@12@@Z 1001b250 f i mlcheck.obj
 0001:0001a280       ?size@?$_Tree@V?$_Tmap_traits@PAXVCurrent@ctk@@U?$less@PAX@std@@V?$allocator@U?$pair@QAXVCurrent@ctk@@@std@@@4@$0A@@std@@@std@@QBEIXZ 1001b280 f i mlcheck.obj
 0001:0001a2a0       ?erase@?$_Tree@V?$_Tmap_traits@PAXVCurrent@ctk@@U?$less@PAX@std@@V?$allocator@U?$pair@QAXVCurrent@ctk@@@std@@@4@$0A@@std@@@std@@QAE?AViterator@12@Vconst_iterator@12@@Z 1001b2a0 f i mlcheck.obj
 0001:0001aa80       ?clear@?$_Tree@V?$_Tmap_traits@PAXVCurrent@ctk@@U?$less@PAX@std@@V?$allocator@U?$pair@QAXVCurrent@ctk@@@std@@@4@$0A@@std@@@std@@QAEXXZ 1001ba80 f i mlcheck.obj
 0001:0001aae0       ?_Lmost@?$_Tree@V?$_Tmap_traits@PAXVCurrent@ctk@@U?$less@PAX@std@@V?$allocator@U?$pair@QAXVCurrent@ctk@@@std@@@4@$0A@@std@@@std@@IBEAAPAU_Node@?$_Tree_nod@V?$_Tmap_traits@PAXVCurrent@ctk@@U?$less@PAX@std@@V?$allocator@U?$pair@QAXVCurrent@ctk@@@std@@@4@$0A@@std@@@2@XZ 1001bae0 f i mlcheck.obj
 0001:0001ab00       ?_Max@?$_Tree@V?$_Tmap_traits@PAXVCurrent@ctk@@U?$less@PAX@std@@V?$allocator@U?$pair@QAXVCurrent@ctk@@@std@@@4@$0A@@std@@@std@@KAPAU_Node@?$_Tree_nod@V?$_Tmap_traits@PAXVCurrent@ctk@@U?$less@PAX@std@@V?$allocator@U?$pair@QAXVCurrent@ctk@@@std@@@4@$0A@@std@@@2@PAU342@@Z 1001bb00 f i mlcheck.obj
 0001:0001ab40       ?_Min@?$_Tree@V?$_Tmap_traits@PAXVCurrent@ctk@@U?$less@PAX@std@@V?$allocator@U?$pair@QAXVCurrent@ctk@@@std@@@4@$0A@@std@@@std@@KAPAU_Node@?$_Tree_nod@V?$_Tmap_traits@PAXVCurrent@ctk@@U?$less@PAX@std@@V?$allocator@U?$pair@QAXVCurrent@ctk@@@std@@@4@$0A@@std@@@2@PAU342@@Z 1001bb40 f i mlcheck.obj
 0001:0001ab80       ?_Rmost@?$_Tree@V?$_Tmap_traits@PAXVCurrent@ctk@@U?$less@PAX@std@@V?$allocator@U?$pair@QAXVCurrent@ctk@@@std@@@4@$0A@@std@@@std@@IBEAAPAU_Node@?$_Tree_nod@V?$_Tmap_traits@PAXVCurrent@ctk@@U?$less@PAX@std@@V?$allocator@U?$pair@QAXVCurrent@ctk@@@std@@@4@$0A@@std@@@2@XZ 1001bb80 f i mlcheck.obj
 0001:0001aba0       ?_Root@?$_Tree@V?$_Tmap_traits@PAXVCurrent@ctk@@U?$less@PAX@std@@V?$allocator@U?$pair@QAXVCurrent@ctk@@@std@@@4@$0A@@std@@@std@@IBEAAPAU_Node@?$_Tree_nod@V?$_Tmap_traits@PAXVCurrent@ctk@@U?$less@PAX@std@@V?$allocator@U?$pair@QAXVCurrent@ctk@@@std@@@4@$0A@@std@@@2@XZ 1001bba0 f i mlcheck.obj
 0001:0001abc0       ?_Buynode@?$_Tree@V?$_Tmap_traits@PAXVCurrent@ctk@@U?$less@PAX@std@@V?$allocator@U?$pair@QAXVCurrent@ctk@@@std@@@4@$0A@@std@@@std@@IAEPAU_Node@?$_Tree_nod@V?$_Tmap_traits@PAXVCurrent@ctk@@U?$less@PAX@std@@V?$allocator@U?$pair@QAXVCurrent@ctk@@@std@@@4@$0A@@std@@@2@XZ 1001bbc0 f i mlcheck.obj
 0001:0001ad30       ??0?$_Tree_ptr@V?$_Tmap_traits@PAXVCurrent@ctk@@U?$less@PAX@std@@V?$allocator@U?$pair@QAXVCurrent@ctk@@@std@@@4@$0A@@std@@@std@@IAE@ABU?$less@PAX@1@V?$allocator@U?$pair@QAXVCurrent@ctk@@@std@@@1@@Z 1001bd30 f i mlcheck.obj
 0001:0001adb0       ??0?$allocator@U?$pair@QAXVCurrent@ctk@@@std@@@std@@QAE@ABV01@@Z 1001bdb0 f i mlcheck.obj
 0001:0001adc0       ?deallocate@?$allocator@U_Node@?$_Tree_nod@V?$_Tmap_traits@PAXVCurrent@ctk@@U?$less@PAX@std@@V?$allocator@U?$pair@QAXVCurrent@ctk@@@std@@@4@$0A@@std@@@std@@@std@@QAEXPAU_Node@?$_Tree_nod@V?$_Tmap_traits@PAXVCurrent@ctk@@U?$less@PAX@std@@V?$allocator@U?$pair@QAXVCurrent@ctk@@@std@@@4@$0A@@std@@@2@I@Z 1001bdc0 f i mlcheck.obj
 0001:0001ade0       ?destroy@?$allocator@PAU_Node@?$_Tree_nod@V?$_Tmap_traits@PAXVCurrent@ctk@@U?$less@PAX@std@@V?$allocator@U?$pair@QAXVCurrent@ctk@@@std@@@4@$0A@@std@@@std@@@std@@QAEXPAPAU_Node@?$_Tree_nod@V?$_Tmap_traits@PAXVCurrent@ctk@@U?$less@PAX@std@@V?$allocator@U?$pair@QAXVCurrent@ctk@@@std@@@4@$0A@@std@@@2@@Z 1001bde0 f i mlcheck.obj
 0001:0001ae00       ??0iterator@?$_Tree@V?$_Tmap_traits@PAXVCurrent@ctk@@U?$less@PAX@std@@V?$allocator@U?$pair@QAXVCurrent@ctk@@@std@@@4@$0A@@std@@@std@@QAE@PAU_Node@?$_Tree_nod@V?$_Tmap_traits@PAXVCurrent@ctk@@U?$less@PAX@std@@V?$allocator@U?$pair@QAXVCurrent@ctk@@@std@@@4@$0A@@std@@@2@PBV12@@Z 1001be00 f i mlcheck.obj
 0001:0001ae20       ??Econst_iterator@?$_Tree@V?$_Tmap_traits@PAXVCurrent@ctk@@U?$less@PAX@std@@V?$allocator@U?$pair@QAXVCurrent@ctk@@@std@@@4@$0A@@std@@@std@@QAE?AV012@H@Z 1001be20 f i mlcheck.obj
 0001:0001ae60       ??8const_iterator@?$_Tree@V?$_Tmap_traits@PAXVCurrent@ctk@@U?$less@PAX@std@@V?$allocator@U?$pair@QAXVCurrent@ctk@@@std@@@4@$0A@@std@@@std@@QBE_NABV012@@Z 1001be60 f i mlcheck.obj
 0001:0001aeb0       ??9const_iterator@?$_Tree@V?$_Tmap_traits@PAXVCurrent@ctk@@U?$less@PAX@std@@V?$allocator@U?$pair@QAXVCurrent@ctk@@@std@@@4@$0A@@std@@@std@@QBE_NABV012@@Z 1001beb0 f i mlcheck.obj
 0001:0001aee0       ?_Color@?$_Tree@V?$_Tmap_traits@PAXVCurrent@ctk@@U?$less@PAX@std@@V?$allocator@U?$pair@QAXVCurrent@ctk@@@std@@@4@$0A@@std@@@std@@KAAADPAU_Node@?$_Tree_nod@V?$_Tmap_traits@PAXVCurrent@ctk@@U?$less@PAX@std@@V?$allocator@U?$pair@QAXVCurrent@ctk@@@std@@@4@$0A@@std@@@2@@Z 1001bee0 f i mlcheck.obj
 0001:0001aef0       ?_Myval@?$_Tree@V?$_Tmap_traits@PAXVCurrent@ctk@@U?$less@PAX@std@@V?$allocator@U?$pair@QAXVCurrent@ctk@@@std@@@4@$0A@@std@@@std@@KAAAU?$pair@QAXVCurrent@ctk@@@2@PAU_Node@?$_Tree_nod@V?$_Tmap_traits@PAXVCurrent@ctk@@U?$less@PAX@std@@V?$allocator@U?$pair@QAXVCurrent@ctk@@@std@@@4@$0A@@std@@@2@@Z 1001bef0 f i mlcheck.obj
 0001:0001af00       ?_Erase@?$_Tree@V?$_Tmap_traits@PAXVCurrent@ctk@@U?$less@PAX@std@@V?$allocator@U?$pair@QAXVCurrent@ctk@@@std@@@4@$0A@@std@@@std@@IAEXPAU_Node@?$_Tree_nod@V?$_Tmap_traits@PAXVCurrent@ctk@@U?$less@PAX@std@@V?$allocator@U?$pair@QAXVCurrent@ctk@@@std@@@4@$0A@@std@@@2@@Z 1001bf00 f i mlcheck.obj
 0001:0001af80       ?_Lrotate@?$_Tree@V?$_Tmap_traits@PAXVCurrent@ctk@@U?$less@PAX@std@@V?$allocator@U?$pair@QAXVCurrent@ctk@@@std@@@4@$0A@@std@@@std@@IAEXPAU_Node@?$_Tree_nod@V?$_Tmap_traits@PAXVCurrent@ctk@@U?$less@PAX@std@@V?$allocator@U?$pair@QAXVCurrent@ctk@@@std@@@4@$0A@@std@@@2@@Z 1001bf80 f i mlcheck.obj
 0001:0001b0b0       ?_Rrotate@?$_Tree@V?$_Tmap_traits@PAXVCurrent@ctk@@U?$less@PAX@std@@V?$allocator@U?$pair@QAXVCurrent@ctk@@@std@@@4@$0A@@std@@@std@@IAEXPAU_Node@?$_Tree_nod@V?$_Tmap_traits@PAXVCurrent@ctk@@U?$less@PAX@std@@V?$allocator@U?$pair@QAXVCurrent@ctk@@@std@@@4@$0A@@std@@@2@@Z 1001c0b0 f i mlcheck.obj
 0001:0001b1e0       ?_Buynode@?$_Tree@V?$_Tmap_traits@PAXVCurrent@ctk@@U?$less@PAX@std@@V?$allocator@U?$pair@QAXVCurrent@ctk@@@std@@@4@$0A@@std@@@std@@IAEPAU_Node@?$_Tree_nod@V?$_Tmap_traits@PAXVCurrent@ctk@@U?$less@PAX@std@@V?$allocator@U?$pair@QAXVCurrent@ctk@@@std@@@4@$0A@@std@@@2@PAU342@00ABU?$pair@QAXVCurrent@ctk@@@2@D@Z 1001c1e0 f i mlcheck.obj
 0001:0001b2c0       ??0?$_Tree_nod@V?$_Tmap_traits@PAXVCurrent@ctk@@U?$less@PAX@std@@V?$allocator@U?$pair@QAXVCurrent@ctk@@@std@@@4@$0A@@std@@@std@@IAE@ABU?$less@PAX@1@V?$allocator@U?$pair@QAXVCurrent@ctk@@@std@@@1@@Z 1001c2c0 f i mlcheck.obj
 0001:0001b340       ?allocate@?$allocator@U_Node@?$_Tree_nod@V?$_Tmap_traits@PAXVCurrent@ctk@@U?$less@PAX@std@@V?$allocator@U?$pair@QAXVCurrent@ctk@@@std@@@4@$0A@@std@@@std@@@std@@QAEPAU_Node@?$_Tree_nod@V?$_Tmap_traits@PAXVCurrent@ctk@@U?$less@PAX@std@@V?$allocator@U?$pair@QAXVCurrent@ctk@@@std@@@4@$0A@@std@@@2@I@Z 1001c340 f i mlcheck.obj
 0001:0001b360       ?destroy@?$allocator@U_Node@?$_Tree_nod@V?$_Tmap_traits@PAXVCurrent@ctk@@U?$less@PAX@std@@V?$allocator@U?$pair@QAXVCurrent@ctk@@@std@@@4@$0A@@std@@@std@@@std@@QAEXPAU_Node@?$_Tree_nod@V?$_Tmap_traits@PAXVCurrent@ctk@@U?$less@PAX@std@@V?$allocator@U?$pair@QAXVCurrent@ctk@@@std@@@4@$0A@@std@@@2@@Z 1001c360 f i mlcheck.obj
 0001:0001b380       ?construct@?$allocator@PAU_Node@?$_Tree_nod@V?$_Tmap_traits@PAXVCurrent@ctk@@U?$less@PAX@std@@V?$allocator@U?$pair@QAXVCurrent@ctk@@@std@@@4@$0A@@std@@@std@@@std@@QAEXPAPAU_Node@?$_Tree_nod@V?$_Tmap_traits@PAXVCurrent@ctk@@U?$less@PAX@std@@V?$allocator@U?$pair@QAXVCurrent@ctk@@@std@@@4@$0A@@std@@@2@ABQAU342@@Z 1001c380 f i mlcheck.obj
 0001:0001b3a0       ??0const_iterator@?$_Tree@V?$_Tmap_traits@PAXVCurrent@ctk@@U?$less@PAX@std@@V?$allocator@U?$pair@QAXVCurrent@ctk@@@std@@@4@$0A@@std@@@std@@QAE@PAU_Node@?$_Tree_nod@V?$_Tmap_traits@PAXVCurrent@ctk@@U?$less@PAX@std@@V?$allocator@U?$pair@QAXVCurrent@ctk@@@std@@@4@$0A@@std@@@2@PBV12@@Z 1001c3a0 f i mlcheck.obj
 0001:0001b3e0       ??Econst_iterator@?$_Tree@V?$_Tmap_traits@PAXVCurrent@ctk@@U?$less@PAX@std@@V?$allocator@U?$pair@QAXVCurrent@ctk@@@std@@@4@$0A@@std@@@std@@QAEAAV012@XZ 1001c3e0 f i mlcheck.obj
 0001:0001b400       ?_Mynode@const_iterator@?$_Tree@V?$_Tmap_traits@PAXVCurrent@ctk@@U?$less@PAX@std@@V?$allocator@U?$pair@QAXVCurrent@ctk@@@std@@@4@$0A@@std@@@std@@QBEPAU_Node@?$_Tree_nod@V?$_Tmap_traits@PAXVCurrent@ctk@@U?$less@PAX@std@@V?$allocator@U?$pair@QAXVCurrent@ctk@@@std@@@4@$0A@@std@@@3@XZ 1001c400 f i mlcheck.obj
 0001:0001b420       ??0?$_Bidit@U?$pair@QAXVCurrent@ctk@@@std@@HPBU12@ABU12@@std@@QAE@XZ 1001c420 f i mlcheck.obj
 0001:0001b440       ??0?$_Iterator_with_base@Ubidirectional_iterator_tag@std@@U?$pair@QAXVCurrent@ctk@@@2@HPBU32@ABU32@V_Iterator_base_aux@2@@std@@QAE@XZ 1001c440 f i mlcheck.obj
 0001:0001b460       ??0?$_Tmap_traits@PAXVCurrent@ctk@@U?$less@PAX@std@@V?$allocator@U?$pair@QAXVCurrent@ctk@@@std@@@4@$0A@@std@@QAE@U?$less@PAX@1@V?$allocator@U?$pair@QAXVCurrent@ctk@@@std@@@1@@Z 1001c460 f i mlcheck.obj
 0001:0001b4d0       ?_Inc@const_iterator@?$_Tree@V?$_Tmap_traits@PAXVCurrent@ctk@@U?$less@PAX@std@@V?$allocator@U?$pair@QAXVCurrent@ctk@@@std@@@4@$0A@@std@@@std@@QAEXXZ 1001c4d0 f i mlcheck.obj
 0001:0001b5b0       ??0_Node@?$_Tree_nod@V?$_Tmap_traits@PAXVCurrent@ctk@@U?$less@PAX@std@@V?$allocator@U?$pair@QAXVCurrent@ctk@@@std@@@4@$0A@@std@@@std@@QAE@PAU012@00ABU?$pair@QAXVCurrent@ctk@@@2@D@Z 1001c5b0 f i mlcheck.obj
 0001:0001b640       ??0?$pair@QAXVCurrent@ctk@@@std@@QAE@ABU01@@Z 1001c640 f i mlcheck.obj
 0001:0001b6b0       ??1?$pair@QAXVCurrent@ctk@@@std@@QAE@XZ 1001c6b0 f i mlcheck.obj
 0001:0001b700       ??0?$_Container_base_aux_alloc_real@V?$allocator@U?$pair@QAXVCurrent@ctk@@@std@@@std@@@std@@IAE@V?$allocator@U?$pair@QAXVCurrent@ctk@@@std@@@1@@Z 1001c700 f i mlcheck.obj
 0001:0001b7c0       ??$?0U?$pair@QAXVCurrent@ctk@@@std@@@?$allocator@PAU_Node@?$_Tree_nod@V?$_Tmap_traits@PAXVCurrent@ctk@@U?$less@PAX@std@@V?$allocator@U?$pair@QAXVCurrent@ctk@@@std@@@4@$0A@@std@@@std@@@std@@QAE@ABV?$allocator@U?$pair@QAXVCurrent@ctk@@@std@@@1@@Z 1001c7c0 f i mlcheck.obj
 0001:0001b7d0       ??$_Destroy@PAU_Node@?$_Tree_nod@V?$_Tmap_traits@PAXVCurrent@ctk@@U?$less@PAX@std@@V?$allocator@U?$pair@QAXVCurrent@ctk@@@std@@@4@$0A@@std@@@std@@@std@@YAXPAPAU_Node@?$_Tree_nod@V?$_Tmap_traits@PAXVCurrent@ctk@@U?$less@PAX@std@@V?$allocator@U?$pair@QAXVCurrent@ctk@@@std@@@4@$0A@@std@@@0@@Z 1001c7d0 f i mlcheck.obj
 0001:0001b7e0       ??$?0U?$pair@QAXVCurrent@ctk@@@std@@@?$allocator@U_Node@?$_Tree_nod@V?$_Tmap_traits@PAXVCurrent@ctk@@U?$less@PAX@std@@V?$allocator@U?$pair@QAXVCurrent@ctk@@@std@@@4@$0A@@std@@@std@@@std@@QAE@ABV?$allocator@U?$pair@QAXVCurrent@ctk@@@std@@@1@@Z 1001c7e0 f i mlcheck.obj
 0001:0001b7f0       ??$_Allocate@U_Node@?$_Tree_nod@V?$_Tmap_traits@PAXVCurrent@ctk@@U?$less@PAX@std@@V?$allocator@U?$pair@QAXVCurrent@ctk@@@std@@@4@$0A@@std@@@std@@@std@@YAPAU_Node@?$_Tree_nod@V?$_Tmap_traits@PAXVCurrent@ctk@@U?$less@PAX@std@@V?$allocator@U?$pair@QAXVCurrent@ctk@@@std@@@4@$0A@@std@@@0@IPAU120@@Z 1001c7f0 f i mlcheck.obj
 0001:0001b840       ??$_Destroy@U_Node@?$_Tree_nod@V?$_Tmap_traits@PAXVCurrent@ctk@@U?$less@PAX@std@@V?$allocator@U?$pair@QAXVCurrent@ctk@@@std@@@4@$0A@@std@@@std@@@std@@YAXPAU_Node@?$_Tree_nod@V?$_Tmap_traits@PAXVCurrent@ctk@@U?$less@PAX@std@@V?$allocator@U?$pair@QAXVCurrent@ctk@@@std@@@4@$0A@@std@@@0@@Z 1001c840 f i mlcheck.obj
 0001:0001b850       ??$_Construct@PAU_Node@?$_Tree_nod@V?$_Tmap_traits@PAXVCurrent@ctk@@U?$less@PAX@std@@V?$allocator@U?$pair@QAXVCurrent@ctk@@@std@@@4@$0A@@std@@@std@@PAU123@@std@@YAXPAPAU_Node@?$_Tree_nod@V?$_Tmap_traits@PAXVCurrent@ctk@@U?$less@PAX@std@@V?$allocator@U?$pair@QAXVCurrent@ctk@@@std@@@4@$0A@@std@@@0@ABQAU120@@Z 1001c850 f i mlcheck.obj
 0001:0001b890       ??$?0U?$pair@QAXVCurrent@ctk@@@std@@@?$allocator@V_Aux_cont@std@@@std@@QAE@ABV?$allocator@U?$pair@QAXVCurrent@ctk@@@std@@@1@@Z 1001c890 f i mlcheck.obj
 0001:0001b8a0       ??_G_Node@?$_Tree_nod@V?$_Tmap_traits@PAXVCurrent@ctk@@U?$less@PAX@std@@V?$allocator@U?$pair@QAXVCurrent@ctk@@@std@@@4@$0A@@std@@@std@@QAEPAXI@Z 1001c8a0 f i mlcheck.obj
 0001:0001b8d0       ??1_Node@?$_Tree_nod@V?$_Tmap_traits@PAXVCurrent@ctk@@U?$less@PAX@std@@V?$allocator@U?$pair@QAXVCurrent@ctk@@@std@@@4@$0A@@std@@@std@@QAE@XZ 1001c8d0 f i mlcheck.obj
 0001:0001b920       ??0SE_Exception@ctk@@QAE@ABV01@@Z 1001c920 f i se_exception.obj
 0001:0001b9c0       ??4SE_Exception@ctk@@QAEAAV01@ABV01@@Z 1001c9c0 f i se_exception.obj
 0001:0001ba20       ??_FSE_Exception@ctk@@QAEXXZ 1001ca20 f i se_exception.obj
 0001:0001ba40       ??_GSE_Exception@ctk@@UAEPAXI@Z 1001ca40 f i se_exception.obj
 0001:0001ba70       ??_ESE_Exception@ctk@@UAEPAXI@Z 1001ca70 f i se_exception.obj
 0001:0001bae0       ?set_se_translator@SE_Exception@ctk@@SAXXZ 1001cae0 f   se_exception.obj
 0001:0001bb40       ??0SE_Exception@ctk@@QAE@IKK@Z 1001cb40 f   se_exception.obj
 0001:0001bda0       ??1SE_Exception@ctk@@UAE@XZ 1001cda0 f   se_exception.obj
 0001:0001be10       ?getSeNumber@SE_Exception@ctk@@QBEIXZ 1001ce10 f   se_exception.obj
 0001:0001be30       ?getEbp@SE_Exception@ctk@@QBEKXZ 1001ce30 f   se_exception.obj
 0001:0001be50       ?getEip@SE_Exception@ctk@@QBEKXZ 1001ce50 f   se_exception.obj
 0001:0001be70       ?what@SE_Exception@ctk@@UBEPBDXZ 1001ce70 f   se_exception.obj
 0001:0001be90       ??0ConfigFile@ctk@@QAE@XZ  1001ce90 f   config_file.obj
 0001:0001bf70       ?load@ConfigFile@ctk@@QAEAAV12@ABUistr@2@@Z 1001cf70 f   config_file.obj
 0001:0001bfb0       ?load@ConfigFile@ctk@@QAEAAV12@XZ 1001cfb0 f   config_file.obj
 0001:0001c070       ?empty@ConfigFile@ctk@@QBE_NXZ 1001d070 f   config_file.obj
 0001:0001c090       ?mps@ConfigFile@ctk@@QBEABVstream@pml@2@XZ 1001d090 f   config_file.obj
 0001:0001c0d0       ?codepage@ConfigFile@ctk@@SAKXZ 1001d0d0 f   config_file.obj
 0001:0001c0f0       ?instance@ConfigFile@ctk@@SAAAV12@XZ 1001d0f0 f   config_file.obj
 0001:0001c110       ?destroy@ConfigFile@ctk@@SAXXZ 1001d110 f   config_file.obj
 0001:0001c120       ?dump@ConfigFile@ctk@@QBEAAVdumper@2@AAV32@@Z 1001d120 f   config_file.obj
 0001:0001c3f0       ?instance@?$Singleton_T@VConfigFile@ctk@@@ctk@@SAAAPAVConfigFile@2@PBDI0@Z 1001d3f0 f i config_file.obj
 0001:0001c480       ?destroy@?$Singleton_T@VConfigFile@ctk@@@ctk@@SAXXZ 1001d480 f i config_file.obj
 0001:0001c500       ?mtx@?$Singleton_T@VConfigFile@ctk@@@ctk@@CAAAVMutex@2@XZ 1001d500 f i config_file.obj
 0001:0001c580       ?ptr@?$Singleton_T@VConfigFile@ctk@@@ctk@@CAAAPAVConfigFile@2@XZ 1001d580 f i config_file.obj
 0001:0001c590       ??$?6VBit@ctk@@@ctk@@YAAAVdumper@0@AAV10@ABVBit@0@@Z 1001d590 f i config_file.obj
 0001:0001c5b0       ??$?6Vstream@pml@ctk@@@ctk@@YAAAVdumper@0@AAV10@ABVstream@pml@0@@Z 1001d5b0 f i config_file.obj
 0001:0001c5d0       ??$?6VUlong@ctk@@@ctk@@YAAAVdumper@0@AAV10@ABVUlong@0@@Z 1001d5d0 f i config_file.obj
 0001:0001c5f0       ??$allocate@VConfigFile@ctk@@@ctk@@YAPAVConfigFile@0@PBDI0@Z 1001d5f0 f i config_file.obj
 0001:0001c620       ??$destroy@VConfigFile@ctk@@@ctk@@YAXAAPAVConfigFile@0@PBDI1@Z 1001d620 f i config_file.obj
 0001:0001c660       ??$allocate_no_mlc@VConfigFile@ctk@@@ctk@@YAPAVConfigFile@0@PBDI0@Z 1001d660 f i config_file.obj
 0001:0001c6f0       ??$allocate_push_maybe@VConfigFile@ctk@@@ctk@@YAPAVConfigFile@0@PAV10@PBDI1@Z 1001d6f0 f i config_file.obj
 0001:0001c720       ??$destroy_pop_maybe@VConfigFile@ctk@@@ctk@@YAXPAVConfigFile@0@PBDI1@Z 1001d720 f i config_file.obj
 0001:0001c750       ??$destroy_no_mlc@VConfigFile@ctk@@@ctk@@YAXAAPAVConfigFile@0@PBDI1@Z 1001d750 f i config_file.obj
 0001:0001c7a0       ??_GConfigFile@ctk@@QAEPAXI@Z 1001d7a0 f i config_file.obj
 0001:0001c7d0       ??0OnTimerResult@ctk@@QAE@VTime@1@K@Z 1001d7d0 f i console.obj
 0001:0001c800       ??4OnTimerResult@ctk@@QAEAAU01@ABU01@@Z 1001d800 f i console.obj
 0001:0001c830       ??_FOnTimerResult@ctk@@QAEXXZ 1001d830 f i console.obj
 0001:0001c860       ?stdinReadable@ctk@@YA_NXZ 1001d860 f   console.obj
 0001:0001c870       ??0ConsoleImpl@ctk@@AAE@XZ 1001d870 f   console.obj
 0001:0001c900       ??1ConsoleImpl@ctk@@AAE@XZ 1001d900 f   console.obj
 0001:0001c990       ?instance@ConsoleImpl@ctk@@SAAAPAV12@XZ 1001d990 f   console.obj
 0001:0001c9b0       ?destroy@ConsoleImpl@ctk@@SAXXZ 1001d9b0 f   console.obj
 0001:0001c9c0       ?open@ConsoleImpl@ctk@@QAEXXZ 1001d9c0 f   console.obj
 0001:0001ca30       ?close@ConsoleImpl@ctk@@QAEXXZ 1001da30 f   console.obj
 0001:0001ca60       ?out@ConsoleImpl@ctk@@AAEAAV?$basic_ostream@DU?$char_traits@D@std@@@std@@XZ 1001da60 f   console.obj
 0001:0001ca70       ?in@ConsoleImpl@ctk@@AAEAAV?$basic_istream@DU?$char_traits@D@std@@@std@@XZ 1001da70 f   console.obj
 0001:0001ca80       ?print@ConsoleImpl@ctk@@QAEXABUiwstr@2@@Z 1001da80 f   console.obj
 0001:0001cab0       ?println@ConsoleImpl@ctk@@QAEXABUiwstr@2@@Z 1001dab0 f   console.obj
 0001:0001cae0       ?print@ConsoleImpl@ctk@@QAEXPB_WK@Z 1001dae0 f   console.obj
 0001:0001cb00       ?println@ConsoleImpl@ctk@@QAEXPB_WK@Z 1001db00 f   console.obj
 0001:0001cb20       ?readline@ConsoleImpl@ctk@@QAEXAAV?$basic_string@_WU?$char_traits@_W@std@@V?$allocator@_W@2@@std@@PB_W@Z 1001db20 f   console.obj
 0001:0001cb40       ?write_nl@ConsoleImpl@ctk@@AAEXXZ 1001db40 f   console.obj
 0001:0001cb60       ?write@ConsoleImpl@ctk@@AAEXPB_WK_N@Z 1001db60 f   console.obj
 0001:0001cc40       ?prompt@ConsoleImpl@ctk@@AAEXXZ 1001dc40 f   console.obj
 0001:0001ccf0       ?print_i@ConsoleImpl@ctk@@AAEXPB_WK_N@Z 1001dcf0 f   console.obj
 0001:0001cdb0       ?onTimer@ConsoleImpl@ctk@@QAE?AUOnTimerResult@2@PAX@Z 1001ddb0 f   console.obj
 0001:0001cf90       ?flush@ConsoleImpl@ctk@@QAEXXZ 1001df90 f   console.obj
 0001:0001d020       ??0FlushThread@ConsoleImpl@ctk@@QAE@PAV12@ABUistr@2@@Z 1001e020 f   console.obj
 0001:0001d0a0       ?onWork@FlushThread@ConsoleImpl@ctk@@UAEXXZ 1001e0a0 f   console.obj
 0001:0001d0f0       ?readline_i@ConsoleImpl@ctk@@AAEXAAV?$basic_string@_WU?$char_traits@_W@std@@V?$allocator@_W@2@@std@@PB_W@Z 1001e0f0 f   console.obj
 0001:0001d260       ?create@console@ctk@@SAXXZ 1001e260 f   console.obj
 0001:0001d270       ?destroy@console@ctk@@SAXXZ 1001e270 f   console.obj
 0001:0001d280       ?open@console@ctk@@SAXXZ   1001e280 f   console.obj
 0001:0001d2a0       ?close@console@ctk@@SAXXZ  1001e2a0 f   console.obj
 0001:0001d2c0       ?flush@console@ctk@@SAXXZ  1001e2c0 f   console.obj
 0001:0001d2e0       ?print@console@ctk@@SAXABVString@2@@Z 1001e2e0 f   console.obj
 0001:0001d380       ?println@console@ctk@@SAXABVString@2@@Z 1001e380 f   console.obj
 0001:0001d420       ?print@console@ctk@@SAXPBDK@Z 1001e420 f   console.obj
 0001:0001d4f0       ?println@console@ctk@@SAXPBDK@Z 1001e4f0 f   console.obj
 0001:0001d5c0       ?readline@console@ctk@@SAXAAVString@2@PBD@Z 1001e5c0 f   console.obj
 0001:0001d6d0       ?print@console@ctk@@SAXABV?$basic_string@_WU?$char_traits@_W@std@@V?$allocator@_W@2@@std@@@Z 1001e6d0 f   console.obj
 0001:0001d700       ?println@console@ctk@@SAXABV?$basic_string@_WU?$char_traits@_W@std@@V?$allocator@_W@2@@std@@@Z 1001e700 f   console.obj
 0001:0001d730       ?print@console@ctk@@SAXPB_WK@Z 1001e730 f   console.obj
 0001:0001d750       ?println@console@ctk@@SAXPB_WK@Z 1001e750 f   console.obj
 0001:0001d770       ?readline@console@ctk@@SAXAAV?$basic_string@_WU?$char_traits@_W@std@@V?$allocator@_W@2@@std@@PB_W@Z 1001e770 f   console.obj
 0001:0001d790       ??_EFlushThread@ConsoleImpl@ctk@@UAEPAXI@Z 1001e790 f i console.obj
 0001:0001d790       ??_GFlushThread@ConsoleImpl@ctk@@UAEPAXI@Z 1001e790 f i console.obj
 0001:0001d7c0       ??1FlushThread@ConsoleImpl@ctk@@UAE@XZ 1001e7c0 f i console.obj
 0001:0001d820       ??0?$Pointer@VConsoleImpl@ctk@@@ctk@@QAE@PAVConsoleImpl@1@@Z 1001e820 f i console.obj
 0001:0001d840       ??1?$Pointer@VConsoleImpl@ctk@@@ctk@@QAE@XZ 1001e840 f i console.obj
 0001:0001d850       ??C?$Pointer@VConsoleImpl@ctk@@@ctk@@QBEPAVConsoleImpl@1@XZ 1001e850 f i console.obj
 0001:0001d870       ??0?$list@V?$basic_string@_WU?$char_traits@_W@std@@V?$allocator@_W@2@@std@@V?$allocator@V?$basic_string@_WU?$char_traits@_W@std@@V?$allocator@_W@2@@std@@@2@@std@@QAE@XZ 1001e870 f i console.obj
 0001:0001d8f0       ??1?$list@V?$basic_string@_WU?$char_traits@_W@std@@V?$allocator@_W@2@@std@@V?$allocator@V?$basic_string@_WU?$char_traits@_W@std@@V?$allocator@_W@2@@std@@@2@@std@@QAE@XZ 1001e8f0 f i console.obj
 0001:0001d950       ?begin@?$list@V?$basic_string@_WU?$char_traits@_W@std@@V?$allocator@_W@2@@std@@V?$allocator@V?$basic_string@_WU?$char_traits@_W@std@@V?$allocator@_W@2@@std@@@2@@std@@QAE?AV?$_Iterator@$00@12@XZ 1001e950 f i console.obj
 0001:0001d980       ?end@?$list@V?$basic_string@_WU?$char_traits@_W@std@@V?$allocator@_W@2@@std@@V?$allocator@V?$basic_string@_WU?$char_traits@_W@std@@V?$allocator@_W@2@@std@@@2@@std@@QAE?AV?$_Iterator@$00@12@XZ 1001e980 f i console.obj
 0001:0001d9b0       ?empty@?$list@V?$basic_string@_WU?$char_traits@_W@std@@V?$allocator@_W@2@@std@@V?$allocator@V?$basic_string@_WU?$char_traits@_W@std@@V?$allocator@_W@2@@std@@@2@@std@@QBE_NXZ 1001e9b0 f i console.obj
 0001:0001d9d0       ?push_front@?$list@V?$basic_string@_WU?$char_traits@_W@std@@V?$allocator@_W@2@@std@@V?$allocator@V?$basic_string@_WU?$char_traits@_W@std@@V?$allocator@_W@2@@std@@@2@@std@@QAEXABV?$basic_string@_WU?$char_traits@_W@std@@V?$allocator@_W@2@@2@@Z 1001e9d0 f i console.obj
 0001:0001da10       ?push_back@?$list@V?$basic_string@_WU?$char_traits@_W@std@@V?$allocator@_W@2@@std@@V?$allocator@V?$basic_string@_WU?$char_traits@_W@std@@V?$allocator@_W@2@@std@@@2@@std@@QAEXABV?$basic_string@_WU?$char_traits@_W@std@@V?$allocator@_W@2@@2@@Z 1001ea10 f i console.obj
 0001:0001da50       ?swap@?$list@V?$basic_string@_WU?$char_traits@_W@std@@V?$allocator@_W@2@@std@@V?$allocator@V?$basic_string@_WU?$char_traits@_W@std@@V?$allocator@_W@2@@std@@@2@@std@@QAEXAAV12@@Z 1001ea50 f i console.obj
 0001:0001db60       ??0?$Handle@VFlushThread@ConsoleImpl@ctk@@@ctk@@QAE@PAVFlushThread@ConsoleImpl@1@@Z 1001eb60 f i console.obj
 0001:0001db90       ?__AddRef@Shared@ctk@@QAEXXZ 1001eb90 f i console.obj
 0001:0001dbb0       ??0?$Handle@VFlushThread@ConsoleImpl@ctk@@@ctk@@QAE@ABV01@@Z 1001ebb0 f i console.obj
 0001:0001dbe0       ??1?$Handle@VFlushThread@ConsoleImpl@ctk@@@ctk@@QAE@XZ 1001ebe0 f i console.obj
 0001:0001dc00       ??4?$Handle@VFlushThread@ConsoleImpl@ctk@@@ctk@@QAEAAV01@PAVFlushThread@ConsoleImpl@1@@Z 1001ec00 f i console.obj
 0001:0001dc50       ??C?$SmartPtrBase@VFlushThread@ConsoleImpl@ctk@@@ctk@@QBEPAVFlushThread@ConsoleImpl@1@XZ 1001ec50 f i console.obj
 0001:0001dca0       ??B?$SmartPtrBase@VFlushThread@ConsoleImpl@ctk@@@ctk@@QBEPAXXZ 1001eca0 f i console.obj
 0001:0001dcb0       ??7?$SmartPtrBase@VFlushThread@ConsoleImpl@ctk@@@ctk@@QBE_NXZ 1001ecb0 f i console.obj
 0001:0001dcd0       ?instance@?$Singleton_T@VConsoleImpl@ctk@@@ctk@@SAAAPAVConsoleImpl@2@PBDI0@Z 1001ecd0 f i console.obj
 0001:0001dd60       ?destroy@?$Singleton_T@VConsoleImpl@ctk@@@ctk@@SAXXZ 1001ed60 f i console.obj
 0001:0001dde0       ??D?$_Const_iterator@$00@?$list@V?$basic_string@_WU?$char_traits@_W@std@@V?$allocator@_W@2@@std@@V?$allocator@V?$basic_string@_WU?$char_traits@_W@std@@V?$allocator@_W@2@@std@@@2@@std@@QBEABV?$basic_string@_WU?$char_traits@_W@std@@V?$allocator@_W@2@@2@XZ 1001ede0 f i console.obj
 0001:0001de50       ??E?$_Const_iterator@$00@?$list@V?$basic_string@_WU?$char_traits@_W@std@@V?$allocator@_W@2@@std@@V?$allocator@V?$basic_string@_WU?$char_traits@_W@std@@V?$allocator@_W@2@@std@@@2@@std@@QAEAAV012@XZ 1001ee50 f i console.obj
 0001:0001dec0       ??9?$_Const_iterator@$00@?$list@V?$basic_string@_WU?$char_traits@_W@std@@V?$allocator@_W@2@@std@@V?$allocator@V?$basic_string@_WU?$char_traits@_W@std@@V?$allocator@_W@2@@std@@@2@@std@@QBE_NABV012@@Z 1001eec0 f i console.obj
 0001:0001def0       ??1?$_List_val@V?$basic_string@_WU?$char_traits@_W@std@@V?$allocator@_W@2@@std@@V?$allocator@V?$basic_string@_WU?$char_traits@_W@std@@V?$allocator@_W@2@@std@@@2@@std@@QAE@XZ 1001eef0 f i console.obj
 0001:0001df40       ??1?$_List_ptr@V?$basic_string@_WU?$char_traits@_W@std@@V?$allocator@_W@2@@std@@V?$allocator@V?$basic_string@_WU?$char_traits@_W@std@@V?$allocator@_W@2@@std@@@2@@std@@QAE@XZ 1001ef40 f i console.obj
 0001:0001df90       ??1?$_List_nod@V?$basic_string@_WU?$char_traits@_W@std@@V?$allocator@_W@2@@std@@V?$allocator@V?$basic_string@_WU?$char_traits@_W@std@@V?$allocator@_W@2@@std@@@2@@std@@QAE@XZ 1001ef90 f i console.obj
 0001:0001dfe0       ?get@?$Pointer@VConsoleImpl@ctk@@@ctk@@QBEPAVConsoleImpl@2@XZ 1001efe0 f i console.obj
 0001:0001dff0       ?_Nextnode@?$list@V?$basic_string@_WU?$char_traits@_W@std@@V?$allocator@_W@2@@std@@V?$allocator@V?$basic_string@_WU?$char_traits@_W@std@@V?$allocator@_W@2@@std@@@2@@std@@KAAAPAU_Node@?$_List_nod@V?$basic_string@_WU?$char_traits@_W@std@@V?$allocator@_W@2@@std@@V?$allocator@V?$basic_string@_WU?$char_traits@_W@std@@V?$allocator@_W@2@@std@@@2@@2@PAU342@@Z 1001eff0 f i console.obj
 0001:0001e000       ?_Myval@?$list@V?$basic_string@_WU?$char_traits@_W@std@@V?$allocator@_W@2@@std@@V?$allocator@V?$basic_string@_WU?$char_traits@_W@std@@V?$allocator@_W@2@@std@@@2@@std@@KAAAV?$basic_string@_WU?$char_traits@_W@std@@V?$allocator@_W@2@@2@PAU_Node@?$_List_nod@V?$basic_string@_WU?$char_traits@_W@std@@V?$allocator@_W@2@@std@@V?$allocator@V?$basic_string@_WU?$char_traits@_W@std@@V?$allocator@_W@2@@std@@@2@@2@@Z 1001f000 f i console.obj
 0001:0001e010       ?_Insert@?$list@V?$basic_string@_WU?$char_traits@_W@std@@V?$allocator@_W@2@@std@@V?$allocator@V?$basic_string@_WU?$char_traits@_W@std@@V?$allocator@_W@2@@std@@@2@@std@@QAEXV?$_Const_iterator@$00@12@ABV?$basic_string@_WU?$char_traits@_W@std@@V?$allocator@_W@2@@2@@Z 1001f010 f i console.obj
 0001:0001e090       ?splice@?$list@V?$basic_string@_WU?$char_traits@_W@std@@V?$allocator@_W@2@@std@@V?$allocator@V?$basic_string@_WU?$char_traits@_W@std@@V?$allocator@_W@2@@std@@@2@@std@@QAEXV?$_Const_iterator@$00@12@AAV12@@Z 1001f090 f i console.obj
 0001:0001e120       ?splice@?$list@V?$basic_string@_WU?$char_traits@_W@std@@V?$allocator@_W@2@@std@@V?$allocator@V?$basic_string@_WU?$char_traits@_W@std@@V?$allocator@_W@2@@std@@@2@@std@@QAEXV?$_Const_iterator@$00@12@AAV12@00@Z 1001f120 f i console.obj
 0001:0001e2d0       ?_Buynode@?$list@V?$basic_string@_WU?$char_traits@_W@std@@V?$allocator@_W@2@@std@@V?$allocator@V?$basic_string@_WU?$char_traits@_W@std@@V?$allocator@_W@2@@std@@@2@@std@@IAEPAU_Node@?$_List_nod@V?$basic_string@_WU?$char_traits@_W@std@@V?$allocator@_W@2@@std@@V?$allocator@V?$basic_string@_WU?$char_traits@_W@std@@V?$allocator@_W@2@@std@@@2@@2@XZ 1001f2d0 f i console.obj
 0001:0001e3d0       ?_Tidy@?$list@V?$basic_string@_WU?$char_traits@_W@std@@V?$allocator@_W@2@@std@@V?$allocator@V?$basic_string@_WU?$char_traits@_W@std@@V?$allocator@_W@2@@std@@@2@@std@@IAEXXZ 1001f3d0 f i console.obj
 0001:0001e440       ??0?$_List_val@V?$basic_string@_WU?$char_traits@_W@std@@V?$allocator@_W@2@@std@@V?$allocator@V?$basic_string@_WU?$char_traits@_W@std@@V?$allocator@_W@2@@std@@@2@@std@@QAE@V?$allocator@V?$basic_string@_WU?$char_traits@_W@std@@V?$allocator@_W@2@@std@@@1@@Z 1001f440 f i console.obj
 0001:0001e4b0       ??1?$_Container_base_aux_alloc_real@V?$allocator@V?$basic_string@_WU?$char_traits@_W@std@@V?$allocator@_W@2@@std@@@std@@@std@@IAE@XZ 1001f4b0 f i console.obj
 0001:0001e510       ??0?$allocator@V?$basic_string@_WU?$char_traits@_W@std@@V?$allocator@_W@2@@std@@@std@@QAE@XZ 1001f510 f i console.obj
 0001:0001e520       ?mtx@?$Singleton_T@VConsoleImpl@ctk@@@ctk@@CAAAVMutex@2@XZ 1001f520 f i console.obj
 0001:0001e5a0       ?ptr@?$Singleton_T@VConsoleImpl@ctk@@@ctk@@CAAAPAVConsoleImpl@2@XZ 1001f5a0 f i console.obj
 0001:0001e5b0       ??8?$_Const_iterator@$00@?$list@V?$basic_string@_WU?$char_traits@_W@std@@V?$allocator@_W@2@@std@@V?$allocator@V?$basic_string@_WU?$char_traits@_W@std@@V?$allocator@_W@2@@std@@@2@@std@@QBE_NABV012@@Z 1001f5b0 f i console.obj
 0001:0001e610       ??0?$_Iterator@$00@?$list@V?$basic_string@_WU?$char_traits@_W@std@@V?$allocator@_W@2@@std@@V?$allocator@V?$basic_string@_WU?$char_traits@_W@std@@V?$allocator@_W@2@@std@@@2@@std@@QAE@PAU_Node@?$_List_nod@V?$basic_string@_WU?$char_traits@_W@std@@V?$allocator@_W@2@@std@@V?$allocator@V?$basic_string@_WU?$char_traits@_W@std@@V?$allocator@_W@2@@std@@@2@@2@PBV12@@Z 1001f610 f i console.obj
 0001:0001e630       ?_Prevnode@?$list@V?$basic_string@_WU?$char_traits@_W@std@@V?$allocator@_W@2@@std@@V?$allocator@V?$basic_string@_WU?$char_traits@_W@std@@V?$allocator@_W@2@@std@@@2@@std@@KAAAPAU_Node@?$_List_nod@V?$basic_string@_WU?$char_traits@_W@std@@V?$allocator@_W@2@@std@@V?$allocator@V?$basic_string@_WU?$char_traits@_W@std@@V?$allocator@_W@2@@std@@@2@@2@PAU342@@Z 1001f630 f i console.obj
 0001:0001e640       ?clear@?$list@V?$basic_string@_WU?$char_traits@_W@std@@V?$allocator@_W@2@@std@@V?$allocator@V?$basic_string@_WU?$char_traits@_W@std@@V?$allocator@_W@2@@std@@@2@@std@@QAEXXZ 1001f640 f i console.obj
 0001:0001e6e0       ?_Splice@?$list@V?$basic_string@_WU?$char_traits@_W@std@@V?$allocator@_W@2@@std@@V?$allocator@V?$basic_string@_WU?$char_traits@_W@std@@V?$allocator@_W@2@@std@@@2@@std@@QAEXV?$_Const_iterator@$00@12@AAV12@00I_N@Z 1001f6e0 f i console.obj
 0001:0001e870       ?_Buynode@?$list@V?$basic_string@_WU?$char_traits@_W@std@@V?$allocator@_W@2@@std@@V?$allocator@V?$basic_string@_WU?$char_traits@_W@std@@V?$allocator@_W@2@@std@@@2@@std@@IAEPAU_Node@?$_List_nod@V?$basic_string@_WU?$char_traits@_W@std@@V?$allocator@_W@2@@std@@V?$allocator@V?$basic_string@_WU?$char_traits@_W@std@@V?$allocator@_W@2@@std@@@2@@2@PAU342@0ABV?$basic_string@_WU?$char_traits@_W@std@@V?$allocator@_W@2@@2@@Z 1001f870 f i console.obj
 0001:0001e9b0       ?_Incsize@?$list@V?$basic_string@_WU?$char_traits@_W@std@@V?$allocator@_W@2@@std@@V?$allocator@V?$basic_string@_WU?$char_traits@_W@std@@V?$allocator@_W@2@@std@@@2@@std@@IAEXI@Z 1001f9b0 f i console.obj
 0001:0001ea50       ??0?$_List_ptr@V?$basic_string@_WU?$char_traits@_W@std@@V?$allocator@_W@2@@std@@V?$allocator@V?$basic_string@_WU?$char_traits@_W@std@@V?$allocator@_W@2@@std@@@2@@std@@IAE@V?$allocator@V?$basic_string@_WU?$char_traits@_W@std@@V?$allocator@_W@2@@std@@@1@@Z 1001fa50 f i console.obj
 0001:0001eac0       ??0?$allocator@V?$basic_string@_WU?$char_traits@_W@std@@V?$allocator@_W@2@@std@@@std@@QAE@ABV01@@Z 1001fac0 f i console.obj
 0001:0001ead0       ?deallocate@?$allocator@U_Node@?$_List_nod@V?$basic_string@_WU?$char_traits@_W@std@@V?$allocator@_W@2@@std@@V?$allocator@V?$basic_string@_WU?$char_traits@_W@std@@V?$allocator@_W@2@@std@@@2@@std@@@std@@QAEXPAU_Node@?$_List_nod@V?$basic_string@_WU?$char_traits@_W@std@@V?$allocator@_W@2@@std@@V?$allocator@V?$basic_string@_WU?$char_traits@_W@std@@V?$allocator@_W@2@@std@@@2@@2@I@Z 1001fad0 f i console.obj
 0001:0001eaf0       ?allocate@?$allocator@U_Node@?$_List_nod@V?$basic_string@_WU?$char_traits@_W@std@@V?$allocator@_W@2@@std@@V?$allocator@V?$basic_string@_WU?$char_traits@_W@std@@V?$allocator@_W@2@@std@@@2@@std@@@std@@QAEPAU_Node@?$_List_nod@V?$basic_string@_WU?$char_traits@_W@std@@V?$allocator@_W@2@@std@@V?$allocator@V?$basic_string@_WU?$char_traits@_W@std@@V?$allocator@_W@2@@std@@@2@@2@I@Z 1001faf0 f i console.obj
 0001:0001eb10       ?construct@?$allocator@PAU_Node@?$_List_nod@V?$basic_string@_WU?$char_traits@_W@std@@V?$allocator@_W@2@@std@@V?$allocator@V?$basic_string@_WU?$char_traits@_W@std@@V?$allocator@_W@2@@std@@@2@@std@@@std@@QAEXPAPAU_Node@?$_List_nod@V?$basic_string@_WU?$char_traits@_W@std@@V?$allocator@_W@2@@std@@V?$allocator@V?$basic_string@_WU?$char_traits@_W@std@@V?$allocator@_W@2@@std@@@2@@2@ABQAU342@@Z 1001fb10 f i console.obj
 0001:0001eb30       ?destroy@?$allocator@PAU_Node@?$_List_nod@V?$basic_string@_WU?$char_traits@_W@std@@V?$allocator@_W@2@@std@@V?$allocator@V?$basic_string@_WU?$char_traits@_W@std@@V?$allocator@_W@2@@std@@@2@@std@@@std@@QAEXPAPAU_Node@?$_List_nod@V?$basic_string@_WU?$char_traits@_W@std@@V?$allocator@_W@2@@std@@V?$allocator@V?$basic_string@_WU?$char_traits@_W@std@@V?$allocator@_W@2@@std@@@2@@2@@Z 1001fb30 f i console.obj
 0001:0001eb50       ??0?$_Const_iterator@$00@?$list@V?$basic_string@_WU?$char_traits@_W@std@@V?$allocator@_W@2@@std@@V?$allocator@V?$basic_string@_WU?$char_traits@_W@std@@V?$allocator@_W@2@@std@@@2@@std@@QAE@PAU_Node@?$_List_nod@V?$basic_string@_WU?$char_traits@_W@std@@V?$allocator@_W@2@@std@@V?$allocator@V?$basic_string@_WU?$char_traits@_W@std@@V?$allocator@_W@2@@std@@@2@@2@PBV12@@Z 1001fb50 f i console.obj
 0001:0001eba0       ?_Mynode@?$_Const_iterator@$00@?$list@V?$basic_string@_WU?$char_traits@_W@std@@V?$allocator@_W@2@@std@@V?$allocator@V?$basic_string@_WU?$char_traits@_W@std@@V?$allocator@_W@2@@std@@@2@@std@@QBEPAU_Node@?$_List_nod@V?$basic_string@_WU?$char_traits@_W@std@@V?$allocator@_W@2@@std@@V?$allocator@V?$basic_string@_WU?$char_traits@_W@std@@V?$allocator@_W@2@@std@@@2@@3@XZ 1001fba0 f i console.obj
 0001:0001ebc0       ??0?$_Bidit@V?$basic_string@_WU?$char_traits@_W@std@@V?$allocator@_W@2@@std@@HPBV12@ABV12@@std@@QAE@XZ 1001fbc0 f i console.obj
 0001:0001ebe0       ??0?$_Iterator_with_base@Ubidirectional_iterator_tag@std@@V?$basic_string@_WU?$char_traits@_W@std@@V?$allocator@_W@2@@2@HPBV32@ABV32@V_Iterator_base_aux@2@@std@@QAE@XZ 1001fbe0 f i console.obj
 0001:0001ec00       ?max_size@?$list@V?$basic_string@_WU?$char_traits@_W@std@@V?$allocator@_W@2@@std@@V?$allocator@V?$basic_string@_WU?$char_traits@_W@std@@V?$allocator@_W@2@@std@@@2@@std@@QBEIXZ 1001fc00 f i console.obj
 0001:0001ec20       ?erase@?$list@V?$basic_string@_WU?$char_traits@_W@std@@V?$allocator@_W@2@@std@@V?$allocator@V?$basic_string@_WU?$char_traits@_W@std@@V?$allocator@_W@2@@std@@@2@@std@@QAE?AV?$_Iterator@$00@12@V?$_Const_iterator@$00@12@0@Z 1001fc20 f i console.obj
 0001:0001ecd0       ??0?$_List_nod@V?$basic_string@_WU?$char_traits@_W@std@@V?$allocator@_W@2@@std@@V?$allocator@V?$basic_string@_WU?$char_traits@_W@std@@V?$allocator@_W@2@@std@@@2@@std@@IAE@V?$allocator@V?$basic_string@_WU?$char_traits@_W@std@@V?$allocator@_W@2@@std@@@1@@Z 1001fcd0 f i console.obj
 0001:0001ed40       ?construct@?$allocator@V?$basic_string@_WU?$char_traits@_W@std@@V?$allocator@_W@2@@std@@@std@@QAEXPAV?$basic_string@_WU?$char_traits@_W@std@@V?$allocator@_W@2@@2@ABV32@@Z 1001fd40 f i console.obj
 0001:0001ed60       ?destroy@?$allocator@U_Node@?$_List_nod@V?$basic_string@_WU?$char_traits@_W@std@@V?$allocator@_W@2@@std@@V?$allocator@V?$basic_string@_WU?$char_traits@_W@std@@V?$allocator@_W@2@@std@@@2@@std@@@std@@QAEXPAU_Node@?$_List_nod@V?$basic_string@_WU?$char_traits@_W@std@@V?$allocator@_W@2@@std@@V?$allocator@V?$basic_string@_WU?$char_traits@_W@std@@V?$allocator@_W@2@@std@@@2@@2@@Z 1001fd60 f i console.obj
 0001:0001ed80       ?_Make_iter@?$list@V?$basic_string@_WU?$char_traits@_W@std@@V?$allocator@_W@2@@std@@V?$allocator@V?$basic_string@_WU?$char_traits@_W@std@@V?$allocator@_W@2@@std@@@2@@std@@QBE?AV?$_Iterator@$00@12@V?$_Const_iterator@$00@12@@Z 1001fd80 f i console.obj
 0001:0001eda0       ?erase@?$list@V?$basic_string@_WU?$char_traits@_W@std@@V?$allocator@_W@2@@std@@V?$allocator@V?$basic_string@_WU?$char_traits@_W@std@@V?$allocator@_W@2@@std@@@2@@std@@QAE?AV?$_Iterator@$00@12@V?$_Const_iterator@$00@12@@Z 1001fda0 f i console.obj
 0001:0001ee70       ??0?$_Container_base_aux_alloc_real@V?$allocator@V?$basic_string@_WU?$char_traits@_W@std@@V?$allocator@_W@2@@std@@@std@@@std@@IAE@V?$allocator@V?$basic_string@_WU?$char_traits@_W@std@@V?$allocator@_W@2@@std@@@1@@Z 1001fe70 f i console.obj
 0001:0001ef30       ?max_size@?$allocator@V?$basic_string@_WU?$char_traits@_W@std@@V?$allocator@_W@2@@std@@@std@@QBEIXZ 1001ff30 f i console.obj
 0001:0001ef60       ??E?$_Const_iterator@$00@?$list@V?$basic_string@_WU?$char_traits@_W@std@@V?$allocator@_W@2@@std@@V?$allocator@V?$basic_string@_WU?$char_traits@_W@std@@V?$allocator@_W@2@@std@@@2@@std@@QAE?AV012@H@Z 1001ff60 f i console.obj
 0001:0001efa0       ??$allocate@VFlushThread@ConsoleImpl@ctk@@PAV23@$$BY06$$CBD@ctk@@YAPAVFlushThread@ConsoleImpl@0@PBDI0ABQAV20@AAY06$$CBD@Z 1001ffa0 f i console.obj
 0001:0001efe0       ??$stopThread@VFlushThread@ConsoleImpl@ctk@@@ctk@@YA_NAAV?$Handle@VFlushThread@ConsoleImpl@ctk@@@0@@Z 1001ffe0 f i console.obj
 0001:0001f080       ??$?8V?$basic_string@_WU?$char_traits@_W@std@@V?$allocator@_W@2@@std@@V01@@std@@YA_NABV?$allocator@V?$basic_string@_WU?$char_traits@_W@std@@V?$allocator@_W@2@@std@@@0@0@Z 10020080 f i console.obj
 0001:0001f090       ??$swap@PAU_Node@?$_List_nod@V?$basic_string@_WU?$char_traits@_W@std@@V?$allocator@_W@2@@std@@V?$allocator@V?$basic_string@_WU?$char_traits@_W@std@@V?$allocator@_W@2@@std@@@2@@std@@@std@@YAXAAPAU_Node@?$_List_nod@V?$basic_string@_WU?$char_traits@_W@std@@V?$allocator@_W@2@@std@@V?$allocator@V?$basic_string@_WU?$char_traits@_W@std@@V?$allocator@_W@2@@std@@@2@@0@0@Z 10020090 f i console.obj
 0001:0001f0c0       ??$swap@I@std@@YAXAAI0@Z   100200c0 f i console.obj
 0001:0001f0f0       ??$allocate@VConsoleImpl@ctk@@@ctk@@YAPAVConsoleImpl@0@PBDI0@Z 100200f0 f i console.obj
 0001:0001f120       ??$destroy@VConsoleImpl@ctk@@@ctk@@YAXAAPAVConsoleImpl@0@PBDI1@Z 10020120 f i console.obj
 0001:0001f160       ??$insert@V?$_Const_iterator@$00@?$list@V?$basic_string@_WU?$char_traits@_W@std@@V?$allocator@_W@2@@std@@V?$allocator@V?$basic_string@_WU?$char_traits@_W@std@@V?$allocator@_W@2@@std@@@2@@std@@@?$list@V?$basic_string@_WU?$char_traits@_W@std@@V?$allocator@_W@2@@std@@V?$allocator@V?$basic_string@_WU?$char_traits@_W@std@@V?$allocator@_W@2@@std@@@2@@std@@QAEXV?$_Const_iterator@$00@01@00@Z 10020160 f i console.obj
 0001:0001f1b0       ??$?0V?$basic_string@_WU?$char_traits@_W@std@@V?$allocator@_W@2@@std@@@?$allocator@PAU_Node@?$_List_nod@V?$basic_string@_WU?$char_traits@_W@std@@V?$allocator@_W@2@@std@@V?$allocator@V?$basic_string@_WU?$char_traits@_W@std@@V?$allocator@_W@2@@std@@@2@@std@@@std@@QAE@ABV?$allocator@V?$basic_string@_WU?$char_traits@_W@std@@V?$allocator@_W@2@@std@@@1@@Z 100201b0 f i console.obj
 0001:0001f1c0       ??$_Allocate@U_Node@?$_List_nod@V?$basic_string@_WU?$char_traits@_W@std@@V?$allocator@_W@2@@std@@V?$allocator@V?$basic_string@_WU?$char_traits@_W@std@@V?$allocator@_W@2@@std@@@2@@std@@@std@@YAPAU_Node@?$_List_nod@V?$basic_string@_WU?$char_traits@_W@std@@V?$allocator@_W@2@@std@@V?$allocator@V?$basic_string@_WU?$char_traits@_W@std@@V?$allocator@_W@2@@std@@@2@@0@IPAU120@@Z 100201c0 f i console.obj
 0001:0001f210       ??$_Construct@PAU_Node@?$_List_nod@V?$basic_string@_WU?$char_traits@_W@std@@V?$allocator@_W@2@@std@@V?$allocator@V?$basic_string@_WU?$char_traits@_W@std@@V?$allocator@_W@2@@std@@@2@@std@@PAU123@@std@@YAXPAPAU_Node@?$_List_nod@V?$basic_string@_WU?$char_traits@_W@std@@V?$allocator@_W@2@@std@@V?$allocator@V?$basic_string@_WU?$char_traits@_W@std@@V?$allocator@_W@2@@std@@@2@@0@ABQAU120@@Z 10020210 f i console.obj
 0001:0001f250       ??$_Destroy@PAU_Node@?$_List_nod@V?$basic_string@_WU?$char_traits@_W@std@@V?$allocator@_W@2@@std@@V?$allocator@V?$basic_string@_WU?$char_traits@_W@std@@V?$allocator@_W@2@@std@@@2@@std@@@std@@YAXPAPAU_Node@?$_List_nod@V?$basic_string@_WU?$char_traits@_W@std@@V?$allocator@_W@2@@std@@V?$allocator@V?$basic_string@_WU?$char_traits@_W@std@@V?$allocator@_W@2@@std@@@2@@0@@Z 10020250 f i console.obj
 0001:0001f260       ??$?0V?$basic_string@_WU?$char_traits@_W@std@@V?$allocator@_W@2@@std@@@?$allocator@U_Node@?$_List_nod@V?$basic_string@_WU?$char_traits@_W@std@@V?$allocator@_W@2@@std@@V?$allocator@V?$basic_string@_WU?$char_traits@_W@std@@V?$allocator@_W@2@@std@@@2@@std@@@std@@QAE@ABV?$allocator@V?$basic_string@_WU?$char_traits@_W@std@@V?$allocator@_W@2@@std@@@1@@Z 10020260 f i console.obj
 0001:0001f270       ??$_Construct@V?$basic_string@_WU?$char_traits@_W@std@@V?$allocator@_W@2@@std@@V12@@std@@YAXPAV?$basic_string@_WU?$char_traits@_W@std@@V?$allocator@_W@2@@0@ABV10@@Z 10020270 f i console.obj
 0001:0001f2f0       ??$_Destroy@U_Node@?$_List_nod@V?$basic_string@_WU?$char_traits@_W@std@@V?$allocator@_W@2@@std@@V?$allocator@V?$basic_string@_WU?$char_traits@_W@std@@V?$allocator@_W@2@@std@@@2@@std@@@std@@YAXPAU_Node@?$_List_nod@V?$basic_string@_WU?$char_traits@_W@std@@V?$allocator@_W@2@@std@@V?$allocator@V?$basic_string@_WU?$char_traits@_W@std@@V?$allocator@_W@2@@std@@@2@@0@@Z 100202f0 f i console.obj
 0001:0001f300       ??$?0V?$basic_string@_WU?$char_traits@_W@std@@V?$allocator@_W@2@@std@@@?$allocator@V_Aux_cont@std@@@std@@QAE@ABV?$allocator@V?$basic_string@_WU?$char_traits@_W@std@@V?$allocator@_W@2@@std@@@1@@Z 10020300 f i console.obj
 0001:0001f310       ??_G_Node@?$_List_nod@V?$basic_string@_WU?$char_traits@_W@std@@V?$allocator@_W@2@@std@@V?$allocator@V?$basic_string@_WU?$char_traits@_W@std@@V?$allocator@_W@2@@std@@@2@@std@@QAEPAXI@Z 10020310 f i console.obj
 0001:0001f340       ??1_Node@?$_List_nod@V?$basic_string@_WU?$char_traits@_W@std@@V?$allocator@_W@2@@std@@V?$allocator@V?$basic_string@_WU?$char_traits@_W@std@@V?$allocator@_W@2@@std@@@2@@std@@QAE@XZ 10020340 f i console.obj
 0001:0001f390       ??$allocate_no_mlc@VFlushThread@ConsoleImpl@ctk@@PAV23@$$BY06$$CBD@ctk@@YAPAVFlushThread@ConsoleImpl@0@PBDI0ABQAV20@AAY06$$CBD@Z 10020390 f i console.obj
 0001:0001f430       ??$allocate_push_maybe@VFlushThread@ConsoleImpl@ctk@@@ctk@@YAPAVFlushThread@ConsoleImpl@0@PAV120@PBDI1@Z 10020430 f i console.obj
 0001:0001f460       ??$allocate_no_mlc@VConsoleImpl@ctk@@@ctk@@YAPAVConsoleImpl@0@PBDI0@Z 10020460 f i console.obj
 0001:0001f4f0       ??$allocate_push_maybe@VConsoleImpl@ctk@@@ctk@@YAPAVConsoleImpl@0@PAV10@PBDI1@Z 100204f0 f i console.obj
 0001:0001f520       ??$destroy_pop_maybe@VConsoleImpl@ctk@@@ctk@@YAXPAVConsoleImpl@0@PBDI1@Z 10020520 f i console.obj
 0001:0001f550       ??$destroy_no_mlc@VConsoleImpl@ctk@@@ctk@@YAXAAPAVConsoleImpl@0@PBDI1@Z 10020550 f i console.obj
 0001:0001f5a0       ??$_Iter_cat@V?$_Const_iterator@$00@?$list@V?$basic_string@_WU?$char_traits@_W@std@@V?$allocator@_W@2@@std@@V?$allocator@V?$basic_string@_WU?$char_traits@_W@std@@V?$allocator@_W@2@@std@@@2@@std@@@std@@YA?AUbidirectional_iterator_tag@0@ABV?$_Const_iterator@$00@?$list@V?$basic_string@_WU?$char_traits@_W@std@@V?$allocator@_W@2@@std@@V?$allocator@V?$basic_string@_WU?$char_traits@_W@std@@V?$allocator@_W@2@@std@@@2@@0@@Z 100205a0 f i console.obj
 0001:0001f5b0       ??$_Insert@V?$_Const_iterator@$00@?$list@V?$basic_string@_WU?$char_traits@_W@std@@V?$allocator@_W@2@@std@@V?$allocator@V?$basic_string@_WU?$char_traits@_W@std@@V?$allocator@_W@2@@std@@@2@@std@@@?$list@V?$basic_string@_WU?$char_traits@_W@std@@V?$allocator@_W@2@@std@@V?$allocator@V?$basic_string@_WU?$char_traits@_W@std@@V?$allocator@_W@2@@std@@@2@@std@@QAEXV?$_Const_iterator@$00@01@00Uforward_iterator_tag@1@@Z 100205b0 f i console.obj
 0001:0001f6b0       ??_GConsoleImpl@ctk@@AAEPAXI@Z 100206b0 f i console.obj
 0001:0001f6e0       ??F?$_Const_iterator@$00@?$list@V?$basic_string@_WU?$char_traits@_W@std@@V?$allocator@_W@2@@std@@V?$allocator@V?$basic_string@_WU?$char_traits@_W@std@@V?$allocator@_W@2@@std@@@2@@std@@QAEAAV012@XZ 100206e0 f i console.obj
 0001:0001f750       ?_Swap_aux@_Container_base_aux@std@@QAEXAAV12@@Z 10020750 f i console.obj
 0001:0001f790       ?c_str@istr@ctk@@QBEPBDXZ  10020790 f i console.obj
 0001:0001f7b0       ??1NullHandleException@ctk@@UAE@XZ 100207b0 f i console.obj
 0001:0001f800       ??0NullHandleException@ctk@@QAE@ABV01@@Z 10020800 f i console.obj
 0001:0001f860       ??_ENullHandleException@ctk@@UAEPAXI@Z 10020860 f i console.obj
 0001:0001f8d0       ??$swap@PAV_Aux_cont@std@@@std@@YAXAAPAV_Aux_cont@0@0@Z 100208d0 f i console.obj
 0001:0001f900       ??$swap@V_Aux_cont@std@@@std@@YAXAAV_Aux_cont@0@0@Z 10020900 f i console.obj
 0001:0001f930       ?writeEntryLog@ctk@@YAXAAVlogger@1@PBD11D@Z 10020930 f   log_debug.obj
 0001:0001fc40       ?writeInfoLog@ctk@@YAXAAVlogger@1@PBDI111@Z 10020c40 f   log_debug.obj
 0001:0001fea0       ?writeLog@ctk@@YAXAAVlogger@1@PBD1111@Z 10020ea0 f   log_debug.obj
 0001:00020440       ?writeErrorLog@ctk@@YAXAAVlogger@1@PBDI111@Z 10021440 f   log_debug.obj
 0001:000205b0       ?writeExcptLog@ctk@@YAXAAVlogger@1@PBDI11@Z 100215b0 f   log_debug.obj
 0001:00020730       ?assertFailure@ctk@@YAXAAVlogger@1@PBD1I11@Z 10021730 f   log_debug.obj
 0001:000208d0       ?ensureFailure@ctk@@YAXAAVlogger@1@PBD1I11@Z 100218d0 f   log_debug.obj
 0001:00020a70       ?exceptionThrown@ctk@@YAXAAVlogger@1@PBDI11@Z 10021a70 f   log_debug.obj
 0001:00020be0       ??6ctk@@YAAAV?$basic_ostream@DU?$char_traits@D@std@@@std@@AAV12@ABUThreadInfo@0@@Z 10021be0 f i log_debug.obj
 0001:00020c10       ??C?$Pointer@VSimpleThread@ctk@@@ctk@@QBEPAVSimpleThread@1@XZ 10021c10 f i log_debug.obj
 0001:00020c30       ??B?$Pointer@VSimpleThread@ctk@@@ctk@@QBEPAVSimpleThread@1@XZ 10021c30 f i log_debug.obj
 0001:00020c50       ?reset@?$StringFormatter@$0HG@@ctk@@QAEAAV12@D@Z 10021c50 f i log_debug.obj
 0001:00020c80       ?left@?$StringFormatter@$0HG@@ctk@@QAEAAV12@ABUistr@2@@Z 10021c80 f i log_debug.obj
 0001:00020ca0       ?right@?$StringFormatter@$0HG@@ctk@@QAEAAV12@DK@Z 10021ca0 f i log_debug.obj
 0001:00020cd0       ?max_size@?$StringFormatter@$0HG@@ctk@@QBEKXZ 10021cd0 f i log_debug.obj
 0001:00020cf0       ?get@?$Pointer@VSimpleThread@ctk@@@ctk@@QBEPAVSimpleThread@2@XZ 10021cf0 f i log_debug.obj
 0001:00020d00       ?reset@?$StringFormatter@$0HG@@ctk@@QAEAAV12@XZ 10021d00 f i log_debug.obj
 0001:00020d30       ?rewind@?$StringFormatter@$0HG@@ctk@@QAEAAV12@K@Z 10021d30 f i log_debug.obj
 0001:00020d50       ??$?6$0HG@@ctk@@YAAAV?$basic_ostream@DU?$char_traits@D@std@@@std@@AAV12@ABV?$StringFormatter@$0HG@@0@@Z 10021d50 f i log_debug.obj
 0001:00020d80       ??$?6UThreadInfo@ctk@@@ctk@@YAAAVString@0@AAV10@ABUThreadInfo@0@@Z 10021d80 f i log_debug.obj
 0001:00020da0       ??$?YUThreadInfo@ctk@@@String@ctk@@QAEAAV01@ABUThreadInfo@1@@Z 10021da0 f i log_debug.obj
 0001:00020e80       ??6ctk@@YAAAV?$basic_ostream@DU?$char_traits@D@std@@@std@@AAV12@ABVtracer@0@@Z 10021e80 f i log_debug.obj
 0001:00020ea0       ?StrIsEmpty@ctk@@YA_NPBD@Z 10021ea0 f i log_debug.obj
 0001:00020ed0       ?max_size@StringRef@ctk@@QBEKXZ 10021ed0 f i log_debug.obj
 0001:00020ef0       ?rewind@StringRef@ctk@@QAEAAV12@K@Z 10021ef0 f i log_debug.obj
 0001:00020f10       ??0Config@dumper@ctk@@QAE@_NABUistr@2@1I111111@Z 10021f10 f   log_dumper.obj
 0001:00021070       ?dump@Config@dumper@ctk@@QBEAAV23@AAV23@@Z 10022070 f   log_dumper.obj
 0001:000215c0       ??0_Entry@dumper@ctk@@QAE@AAV12@ABUistr@2@1@Z 100225c0 f   log_dumper.obj
 0001:00021640       ??1_Entry@dumper@ctk@@QAE@XZ 10022640 f   log_dumper.obj
 0001:000216a0       ??0dumper@ctk@@QAE@_NABUistr@1@1I111111@Z 100226a0 f   log_dumper.obj
 0001:00021760       ??0dumper@ctk@@QAE@AAV?$basic_ostream@DU?$char_traits@D@std@@@std@@_NABUistr@1@2I222222@Z 10022760 f   log_dumper.obj
 0001:00021810       ??0dumper@ctk@@QAE@ABUConfig@01@@Z 10022810 f   log_dumper.obj
 0001:000218b0       ??0dumper@ctk@@QAE@AAV?$basic_ostream@DU?$char_traits@D@std@@@std@@ABUConfig@01@@Z 100228b0 f   log_dumper.obj
 0001:00021930       ??1dumper@ctk@@QAE@XZ      10022930 f   log_dumper.obj
 0001:000219c0       ?str@dumper@ctk@@QBE?AVString@2@XZ 100229c0 f   log_dumper.obj
 0001:00021bd0       ?indent@dumper@ctk@@QAEAAV12@XZ 10022bd0 f   log_dumper.obj
 0001:00021c30       ?endline@dumper@ctk@@QAEAAV12@XZ 10022c30 f   log_dumper.obj
 0001:00021c60       ?nl@dumper@ctk@@QAEAAV12@XZ 10022c60 f   log_dumper.obj
 0001:00021c80       ?raw@dumper@ctk@@QAEAAV12@Uistr@2@@Z 10022c80 f   log_dumper.obj
 0001:00021cc0       ?name@dumper@ctk@@QAEAAV12@Uistr@2@PBD@Z 10022cc0 f   log_dumper.obj
 0001:00021cf0       ??6dumper@ctk@@QAEAAV01@_N@Z 10022cf0 f   log_dumper.obj
 0001:00021d10       ??6dumper@ctk@@QAEAAV01@D@Z 10022d10 f   log_dumper.obj
 0001:00021d30       ??6dumper@ctk@@QAEAAV01@E@Z 10022d30 f   log_dumper.obj
 0001:00021d50       ??6dumper@ctk@@QAEAAV01@F@Z 10022d50 f   log_dumper.obj
 0001:00021d70       ??6dumper@ctk@@QAEAAV01@G@Z 10022d70 f   log_dumper.obj
 0001:00021d90       ??6dumper@ctk@@QAEAAV01@J@Z 10022d90 f   log_dumper.obj
 0001:00021db0       ??6dumper@ctk@@QAEAAV01@K@Z 10022db0 f   log_dumper.obj
 0001:00021dd0       ??6dumper@ctk@@QAEAAV01@H@Z 10022dd0 f   log_dumper.obj
 0001:00021df0       ??6dumper@ctk@@QAEAAV01@I@Z 10022df0 f   log_dumper.obj
 0001:00021e10       ??6dumper@ctk@@QAEAAV01@_J@Z 10022e10 f   log_dumper.obj
 0001:00021e30       ??6dumper@ctk@@QAEAAV01@_K@Z 10022e30 f   log_dumper.obj
 0001:00021e50       ??6dumper@ctk@@QAEAAV01@M@Z 10022e50 f   log_dumper.obj
 0001:00021e70       ??6dumper@ctk@@QAEAAV01@N@Z 10022e70 f   log_dumper.obj
 0001:00021e90       ??6dumper@ctk@@QAEAAV01@PAX@Z 10022e90 f   log_dumper.obj
 0001:00021eb0       ??6dumper@ctk@@QAEAAV01@ABUistr@1@@Z 10022eb0 f   log_dumper.obj
 0001:00021ed0       ??6dumper@ctk@@QAEAAV01@ABUiwstr@1@@Z 10022ed0 f   log_dumper.obj
 0001:00021ef0       ??6dumper@ctk@@QAEAAV01@PBD@Z 10022ef0 f   log_dumper.obj
 0001:00021f20       ??6dumper@ctk@@QAEAAV01@PBE@Z 10022f20 f   log_dumper.obj
 0001:00021f50       ??6dumper@ctk@@QAEAAV01@PB_W@Z 10022f50 f   log_dumper.obj
 0001:00021f80       ??6dumper@ctk@@QAEAAV01@ABVString@1@@Z 10022f80 f   log_dumper.obj
 0001:00021fb0       ??6dumper@ctk@@QAEAAV01@ABV?$basic_string@_WU?$char_traits@_W@std@@V?$allocator@_W@2@@std@@@Z 10022fb0 f   log_dumper.obj
 0001:00021fe0       ??6dumper@ctk@@QAEAAV01@ABV?$basic_string@DU?$char_traits@D@std@@V?$allocator@D@2@@std@@@Z 10022fe0 f   log_dumper.obj
 0001:00022010       ??6dumper@ctk@@QAEAAV01@ABVBytes@1@@Z 10023010 f   log_dumper.obj
 0001:00022040       ??6dumper@ctk@@QAEAAV01@ABVTime@1@@Z 10023040 f   log_dumper.obj
 0001:000220c0       ?write@dumper@ctk@@QAEAAV12@_N@Z 100230c0 f   log_dumper.obj
 0001:000220e0       ?write@dumper@ctk@@QAEAAV12@D@Z 100230e0 f   log_dumper.obj
 0001:00022110       ?write@dumper@ctk@@QAEAAV12@E@Z 10023110 f   log_dumper.obj
 0001:00022140       ?write@dumper@ctk@@QAEAAV12@F@Z 10023140 f   log_dumper.obj
 0001:00022160       ?write@dumper@ctk@@QAEAAV12@G@Z 10023160 f   log_dumper.obj
 0001:00022180       ?write@dumper@ctk@@QAEAAV12@J@Z 10023180 f   log_dumper.obj
 0001:000221a0       ?write@dumper@ctk@@QAEAAV12@K@Z 100231a0 f   log_dumper.obj
 0001:000221c0       ?write@dumper@ctk@@QAEAAV12@H@Z 100231c0 f   log_dumper.obj
 0001:000221e0       ?write@dumper@ctk@@QAEAAV12@I@Z 100231e0 f   log_dumper.obj
 0001:00022200       ?write@dumper@ctk@@QAEAAV12@_J@Z 10023200 f   log_dumper.obj
 0001:00022230       ?write@dumper@ctk@@QAEAAV12@_K@Z 10023230 f   log_dumper.obj
 0001:00022260       ?write@dumper@ctk@@QAEAAV12@M@Z 10023260 f   log_dumper.obj
 0001:00022290       ?write@dumper@ctk@@QAEAAV12@N@Z 10023290 f   log_dumper.obj
 0001:000222c0       ?write@dumper@ctk@@QAEAAV12@PAX@Z 100232c0 f   log_dumper.obj
 0001:000222e0       ?write@dumper@ctk@@QAEAAV12@ABUistr@2@@Z 100232e0 f   log_dumper.obj
 0001:00022310       ?write@dumper@ctk@@QAEAAV12@ABUiwstr@2@@Z 10023310 f   log_dumper.obj
 0001:000223a0       ?write@dumper@ctk@@QAEAAV12@PBD@Z 100233a0 f   log_dumper.obj
 0001:000223d0       ?write@dumper@ctk@@QAEAAV12@PBE@Z 100233d0 f   log_dumper.obj
 0001:00022400       ?write@dumper@ctk@@QAEAAV12@PB_W@Z 10023400 f   log_dumper.obj
 0001:00022430       ?write@dumper@ctk@@QAEAAV12@ABVString@2@@Z 10023430 f   log_dumper.obj
 0001:00022460       ?write@dumper@ctk@@QAEAAV12@ABV?$basic_string@_WU?$char_traits@_W@std@@V?$allocator@_W@2@@std@@@Z 10023460 f   log_dumper.obj
 0001:00022490       ?write@dumper@ctk@@QAEAAV12@ABV?$basic_string@DU?$char_traits@D@std@@V?$allocator@D@2@@std@@@Z 10023490 f   log_dumper.obj
 0001:000224c0       ?write@dumper@ctk@@QAEAAV12@ABVBytes@2@@Z 100234c0 f   log_dumper.obj
 0001:000224f0       ?write@dumper@ctk@@QAEAAV12@ABVTime@2@@Z 100234f0 f   log_dumper.obj
 0001:00022570       ?__write@dumper@ctk@@AAEAAV12@_N@Z 10023570 f   log_dumper.obj
 0001:000225b0       ?__write@dumper@ctk@@AAEAAV12@E@Z 100235b0 f   log_dumper.obj
 0001:00022600       ?__write@dumper@ctk@@AAEAAV12@PAX@Z 10023600 f   log_dumper.obj
 0001:00022620       ?__write@dumper@ctk@@AAEAAV12@PBD@Z 10023620 f   log_dumper.obj
 0001:00022650       ?__write@dumper@ctk@@AAEAAV12@ABUistr@2@@Z 10023650 f   log_dumper.obj
 0001:00022860       ?__write@dumper@ctk@@AAEAAV12@ABUiwstr@2@@Z 10023860 f   log_dumper.obj
 0001:000228c0       ?__writeIndent@dumper@ctk@@AAEAAV12@XZ 100238c0 f   log_dumper.obj
 0001:00022920       ?writeName@dumper@ctk@@QAEAAV12@ABUistr@2@PBD@Z 10023920 f   log_dumper.obj
 0001:000229b0       ?enter@dumper@ctk@@QAEXPBD0@Z 100239b0 f   log_dumper.obj
 0001:00022a60       ?leave@dumper@ctk@@QAEXXZ  10023a60 f   log_dumper.obj
 0001:00022ae0       ?compact@dumper@ctk@@QBE_NXZ 10023ae0 f   log_dumper.obj
 0001:00022b00       ?compact@dumper@ctk@@QAEAAV12@_N@Z 10023b00 f   log_dumper.obj
 0001:00022b20       ?lineSeparator@dumper@ctk@@QBEABVString@2@XZ 10023b20 f   log_dumper.obj
 0001:00022b40       ?lineSeparator@dumper@ctk@@QAEAAV12@ABUistr@2@@Z 10023b40 f   log_dumper.obj
 0001:00022b70       ?indentSeparator@dumper@ctk@@QBEABVString@2@XZ 10023b70 f   log_dumper.obj
 0001:00022b90       ?indentSeparator@dumper@ctk@@QAEAAV12@ABUistr@2@@Z 10023b90 f   log_dumper.obj
 0001:00022bc0       ?level@dumper@ctk@@QBEIXZ  10023bc0 f   log_dumper.obj
 0001:00022be0       ?level@dumper@ctk@@QAEAAV12@I@Z 10023be0 f   log_dumper.obj
 0001:00022c00       ?eolSeparator@dumper@ctk@@QBEABVString@2@XZ 10023c00 f   log_dumper.obj
 0001:00022c20       ?eolSeparator@dumper@ctk@@QAEAAV12@ABUistr@2@@Z 10023c20 f   log_dumper.obj
 0001:00022c50       ?beginTag@dumper@ctk@@QBEABVString@2@XZ 10023c50 f   log_dumper.obj
 0001:00022c70       ?beginTag@dumper@ctk@@QAEAAV12@ABUistr@2@@Z 10023c70 f   log_dumper.obj
 0001:00022ca0       ?endTag@dumper@ctk@@QBEABVString@2@XZ 10023ca0 f   log_dumper.obj
 0001:00022cc0       ?endTag@dumper@ctk@@QAEAAV12@ABUistr@2@@Z 10023cc0 f   log_dumper.obj
 0001:00022cf0       ?typeTag@dumper@ctk@@QBEABVString@2@XZ 10023cf0 f   log_dumper.obj
 0001:00022d10       ?typeTag@dumper@ctk@@QAEAAV12@ABUistr@2@@Z 10023d10 f   log_dumper.obj
 0001:00022d40       ?nvSeparator@dumper@ctk@@QBEABVString@2@XZ 10023d40 f   log_dumper.obj
 0001:00022d60       ?nvSeparator@dumper@ctk@@QAEAAV12@ABUistr@2@@Z 10023d60 f   log_dumper.obj
 0001:00022d90       ?valueSeparator@dumper@ctk@@QBEABVString@2@XZ 10023d90 f   log_dumper.obj
 0001:00022db0       ?valueSeparator@dumper@ctk@@QAEAAV12@ABUistr@2@@Z 10023db0 f   log_dumper.obj
 0001:00022de0       ?cfg@dumper@ctk@@QBEABUConfig@12@XZ 10023de0 f   log_dumper.obj
 0001:00022e00       ?internal_stream@dumper@ctk@@QAEAAV?$basic_ostream@DU?$char_traits@D@std@@@std@@XZ 10023e00 f   log_dumper.obj
 0001:00022e10       ?dump@dumper@ctk@@QBEAAV12@AAV12@@Z 10023e10 f   log_dumper.obj
 0001:00023180       ??$allocate@V?$basic_ostringstream@DU?$char_traits@D@std@@V?$allocator@D@2@@std@@@ctk@@YAPAV?$basic_ostringstream@DU?$char_traits@D@std@@V?$allocator@D@2@@std@@PBDI0@Z 10024180 f i log_dumper.obj
 0001:000231b0       ??$destroy@V?$basic_ostream@DU?$char_traits@D@std@@@std@@@ctk@@YAXAAPAV?$basic_ostream@DU?$char_traits@D@std@@@std@@PBDI1@Z 100241b0 f i log_dumper.obj
 0001:000231f0       ??$?6$$BY0CC@$$CBD@ctk@@YAAAVString@0@AAV10@AAY0CC@$$CBD@Z 100241f0 f i log_dumper.obj
 0001:00023210       ??$?6UConfig@dumper@ctk@@@ctk@@YAAAVdumper@0@AAV10@ABUConfig@10@@Z 10024210 f i log_dumper.obj
 0001:00023230       ??$allocate_no_mlc@V?$basic_ostringstream@DU?$char_traits@D@std@@V?$allocator@D@2@@std@@@ctk@@YAPAV?$basic_ostringstream@DU?$char_traits@D@std@@V?$allocator@D@2@@std@@PBDI0@Z 10024230 f i log_dumper.obj
 0001:000232d0       ??$allocate_push_maybe@V?$basic_ostringstream@DU?$char_traits@D@std@@V?$allocator@D@2@@std@@@ctk@@YAPAV?$basic_ostringstream@DU?$char_traits@D@std@@V?$allocator@D@2@@std@@PAV12@PBDI1@Z 100242d0 f i log_dumper.obj
 0001:00023300       ??$destroy_pop_maybe@V?$basic_ostream@DU?$char_traits@D@std@@@std@@@ctk@@YAXPAV?$basic_ostream@DU?$char_traits@D@std@@@std@@PBDI1@Z 10024300 f i log_dumper.obj
 0001:00023330       ??$destroy_no_mlc@V?$basic_ostream@DU?$char_traits@D@std@@@std@@@ctk@@YAXAAPAV?$basic_ostream@DU?$char_traits@D@std@@@std@@PBDI1@Z 10024330 f i log_dumper.obj
 0001:00023390       ?nouppercase@std@@YAAAVios_base@1@AAV21@@Z 10024390 f i log_dumper.obj
 0001:000233b0       ?uppercase@std@@YAAAVios_base@1@AAV21@@Z 100243b0 f i log_dumper.obj
 0001:000233d0       ??0noncopyable@ctk@@IAE@XZ 100243d0 f i log_dumper.obj
 0001:000233e0       ??1noncopyable@ctk@@IAE@XZ 100243e0 f i log_dumper.obj
 0001:000233f0       ??1Config@dumper@ctk@@QAE@XZ 100243f0 f i log_dumper.obj
 0001:000234b0       ??0Config@dumper@ctk@@QAE@ABU012@@Z 100244b0 f i log_dumper.obj
 0001:000235d0       ??0UnsupportedFunctionException@ctk@@QAE@ABU01@@Z 100245d0 f i log_dumper.obj
 0001:00023630       ?Print@ctk@@YAAAV?$basic_ostream@DU?$char_traits@D@std@@@std@@AAV23@E@Z 10024630 f i log_dumper.obj
 0001:00023650       ??_E?$basic_ostringstream@DU?$char_traits@D@std@@V?$allocator@D@2@@std@@UAEPAXI@Z 10024650 f i log_dumper.obj
 0001:00023650       ??_G?$basic_ostringstream@DU?$char_traits@D@std@@V?$allocator@D@2@@std@@UAEPAXI@Z 10024650 f i log_dumper.obj
 0001:00023690       ??$?6U?$char_traits@D@std@@@std@@YAAAV?$basic_ostream@DU?$char_traits@D@std@@@0@AAV10@E@Z 10024690 f i log_dumper.obj
 0001:000236b0       ?instance@logger_factory@ctk@@SAAAVlogger@2@ABV?$basic_string@DU?$char_traits@D@std@@V?$allocator@D@2@@std@@@Z 100246b0 f   log_factory.obj
 0001:000236d0       ?instance@LoggerFactoryImpl@ctk@@SAAAVlogger@2@ABV?$basic_string@DU?$char_traits@D@std@@V?$allocator@D@2@@std@@@Z 100246d0 f i log_factory.obj
 0001:000236f0       ?instance@LoggerFactoryImpl@ctk@@SAAAPAV12@XZ 100246f0 f i log_factory.obj
 0001:00023710       ?get@LoggerFactoryImpl@ctk@@AAEAAVlogger@2@ABV?$basic_string@DU?$char_traits@D@std@@V?$allocator@D@2@@std@@@Z 10024710 f i log_factory.obj
 0001:00023790       ?internal_at@?$map@V?$basic_string@DU?$char_traits@D@std@@V?$allocator@D@2@@std@@VloggerImpl@ctk@@@mt@ctk@@QAEAAVloggerImpl@3@ABV?$basic_string@DU?$char_traits@D@std@@V?$allocator@D@2@@std@@@Z 10024790 f i log_factory.obj
 0001:000237b0       ?internal_mtx@?$map@V?$basic_string@DU?$char_traits@D@std@@V?$allocator@D@2@@std@@VloggerImpl@ctk@@@mt@ctk@@QAEAAVMutex@3@XZ 100247b0 f i log_factory.obj
 0001:000237d0       ?instance@?$Singleton_T@VLoggerFactoryImpl@ctk@@@ctk@@SAAAPAVLoggerFactoryImpl@2@PBDI0@Z 100247d0 f i log_factory.obj
 0001:00023860       ??A?$map@V?$basic_string@DU?$char_traits@D@std@@V?$allocator@D@2@@std@@VloggerImpl@ctk@@U?$less@V?$basic_string@DU?$char_traits@D@std@@V?$allocator@D@2@@std@@@2@V?$allocator@U?$pair@$$CBV?$basic_string@DU?$char_traits@D@std@@V?$allocator@D@2@@std@@VloggerImpl@ctk@@@std@@@2@@std@@QAEAAVloggerImpl@ctk@@ABV?$basic_string@DU?$char_traits@D@std@@V?$allocator@D@2@@1@@Z 10024860 f i log_factory.obj
 0001:000239c0       ?mtx@?$Singleton_T@VLoggerFactoryImpl@ctk@@@ctk@@CAAAVMutex@2@XZ 100249c0 f i log_factory.obj
 0001:00023a40       ?ptr@?$Singleton_T@VLoggerFactoryImpl@ctk@@@ctk@@CAAAPAVLoggerFactoryImpl@2@XZ 10024a40 f i log_factory.obj
 0001:00023a50       ??1?$pair@$$CBV?$basic_string@DU?$char_traits@D@std@@V?$allocator@D@2@@std@@VloggerImpl@ctk@@@std@@QAE@XZ 10024a50 f i log_factory.obj
 0001:00023ab0       ?_Key@?$_Tree@V?$_Tmap_traits@V?$basic_string@DU?$char_traits@D@std@@V?$allocator@D@2@@std@@VloggerImpl@ctk@@U?$less@V?$basic_string@DU?$char_traits@D@std@@V?$allocator@D@2@@std@@@2@V?$allocator@U?$pair@$$CBV?$basic_string@DU?$char_traits@D@std@@V?$allocator@D@2@@std@@VloggerImpl@ctk@@@std@@@2@$0A@@std@@@std@@KAABV?$basic_string@DU?$char_traits@D@std@@V?$allocator@D@2@@2@PAU_Node@?$_Tree_nod@V?$_Tmap_traits@V?$basic_string@DU?$char_traits@D@std@@V?$allocator@D@2@@std@@VloggerImpl@ctk@@U?$less@V?$basic_string@DU?$char_traits@D@std@@V?$allocator@D@2@@std@@@2@V?$allocator@U?$pair@$$CBV?$basic_string@DU?$char_traits@D@std@@V?$allocator@D@2@@std@@VloggerImpl@ctk@@@std@@@2@$0A@@std@@@2@@Z 10024ab0 f i log_factory.obj
 0001:00023ad0       ?end@?$_Tree@V?$_Tmap_traits@V?$basic_string@DU?$char_traits@D@std@@V?$allocator@D@2@@std@@VloggerImpl@ctk@@U?$less@V?$basic_string@DU?$char_traits@D@std@@V?$allocator@D@2@@std@@@2@V?$allocator@U?$pair@$$CBV?$basic_string@DU?$char_traits@D@std@@V?$allocator@D@2@@std@@VloggerImpl@ctk@@@std@@@2@$0A@@std@@@std@@QAE?AViterator@12@XZ 10024ad0 f i log_factory.obj
 0001:00023b00       ?insert@?$_Tree@V?$_Tmap_traits@V?$basic_string@DU?$char_traits@D@std@@V?$allocator@D@2@@std@@VloggerImpl@ctk@@U?$less@V?$basic_string@DU?$char_traits@D@std@@V?$allocator@D@2@@std@@@2@V?$allocator@U?$pair@$$CBV?$basic_string@DU?$char_traits@D@std@@V?$allocator@D@2@@std@@VloggerImpl@ctk@@@std@@@2@$0A@@std@@@std@@QAE?AViterator@12@Vconst_iterator@12@ABU?$pair@$$CBV?$basic_string@DU?$char_traits@D@std@@V?$allocator@D@2@@std@@VloggerImpl@ctk@@@2@@Z 10024b00 f i log_factory.obj
 0001:00024120       ?_Right@?$_Tree@V?$_Tmap_traits@V?$basic_string@DU?$char_traits@D@std@@V?$allocator@D@2@@std@@VloggerImpl@ctk@@U?$less@V?$basic_string@DU?$char_traits@D@std@@V?$allocator@D@2@@std@@@2@V?$allocator@U?$pair@$$CBV?$basic_string@DU?$char_traits@D@std@@V?$allocator@D@2@@std@@VloggerImpl@ctk@@@std@@@2@$0A@@std@@@std@@KAAAPAU_Node@?$_Tree_nod@V?$_Tmap_traits@V?$basic_string@DU?$char_traits@D@std@@V?$allocator@D@2@@std@@VloggerImpl@ctk@@U?$less@V?$basic_string@DU?$char_traits@D@std@@V?$allocator@D@2@@std@@@2@V?$allocator@U?$pair@$$CBV?$basic_string@DU?$char_traits@D@std@@V?$allocator@D@2@@std@@VloggerImpl@ctk@@@std@@@2@$0A@@std@@@2@PAU342@@Z 10025120 f i log_factory.obj
 0001:00024130       ?begin@?$_Tree@V?$_Tmap_traits@V?$basic_string@DU?$char_traits@D@std@@V?$allocator@D@2@@std@@VloggerImpl@ctk@@U?$less@V?$basic_string@DU?$char_traits@D@std@@V?$allocator@D@2@@std@@@2@V?$allocator@U?$pair@$$CBV?$basic_string@DU?$char_traits@D@std@@V?$allocator@D@2@@std@@VloggerImpl@ctk@@@std@@@2@$0A@@std@@@std@@QAE?AViterator@12@XZ 10025130 f i log_factory.obj
 0001:00024160       ?lower_bound@?$_Tree@V?$_Tmap_traits@V?$basic_string@DU?$char_traits@D@std@@V?$allocator@D@2@@std@@VloggerImpl@ctk@@U?$less@V?$basic_string@DU?$char_traits@D@std@@V?$allocator@D@2@@std@@@2@V?$allocator@U?$pair@$$CBV?$basic_string@DU?$char_traits@D@std@@V?$allocator@D@2@@std@@VloggerImpl@ctk@@@std@@@2@$0A@@std@@@std@@QAE?AViterator@12@ABV?$basic_string@DU?$char_traits@D@std@@V?$allocator@D@2@@2@@Z 10025160 f i log_factory.obj
 0001:00024190       ??R?$less@V?$basic_string@DU?$char_traits@D@std@@V?$allocator@D@2@@std@@@std@@QBE_NABV?$basic_string@DU?$char_traits@D@std@@V?$allocator@D@2@@1@0@Z 10025190 f i log_factory.obj
 0001:000241b0       ??Diterator@?$_Tree@V?$_Tmap_traits@V?$basic_string@DU?$char_traits@D@std@@V?$allocator@D@2@@std@@VloggerImpl@ctk@@U?$less@V?$basic_string@DU?$char_traits@D@std@@V?$allocator@D@2@@std@@@2@V?$allocator@U?$pair@$$CBV?$basic_string@DU?$char_traits@D@std@@V?$allocator@D@2@@std@@VloggerImpl@ctk@@@std@@@2@$0A@@std@@@std@@QBEAAU?$pair@$$CBV?$basic_string@DU?$char_traits@D@std@@V?$allocator@D@2@@std@@VloggerImpl@ctk@@@2@XZ 100251b0 f i log_factory.obj
 0001:000241d0       ??8const_iterator@?$_Tree@V?$_Tmap_traits@V?$basic_string@DU?$char_traits@D@std@@V?$allocator@D@2@@std@@VloggerImpl@ctk@@U?$less@V?$basic_string@DU?$char_traits@D@std@@V?$allocator@D@2@@std@@@2@V?$allocator@U?$pair@$$CBV?$basic_string@DU?$char_traits@D@std@@V?$allocator@D@2@@std@@VloggerImpl@ctk@@@std@@@2@$0A@@std@@@std@@QBE_NABV012@@Z 100251d0 f i log_factory.obj
 0001:00024220       ?_Mynode@const_iterator@?$_Tree@V?$_Tmap_traits@V?$basic_string@DU?$char_traits@D@std@@V?$allocator@D@2@@std@@VloggerImpl@ctk@@U?$less@V?$basic_string@DU?$char_traits@D@std@@V?$allocator@D@2@@std@@@2@V?$allocator@U?$pair@$$CBV?$basic_string@DU?$char_traits@D@std@@V?$allocator@D@2@@std@@VloggerImpl@ctk@@@std@@@2@$0A@@std@@@std@@QBEPAU_Node@?$_Tree_nod@V?$_Tmap_traits@V?$basic_string@DU?$char_traits@D@std@@V?$allocator@D@2@@std@@VloggerImpl@ctk@@U?$less@V?$basic_string@DU?$char_traits@D@std@@V?$allocator@D@2@@std@@@2@V?$allocator@U?$pair@$$CBV?$basic_string@DU?$char_traits@D@std@@V?$allocator@D@2@@std@@VloggerImpl@ctk@@@std@@@2@$0A@@std@@@3@XZ 10025220 f i log_factory.obj
 0001:00024240       ??0?$pair@$$CBV?$basic_string@DU?$char_traits@D@std@@V?$allocator@D@2@@std@@VloggerImpl@ctk@@@std@@QAE@ABV?$basic_string@DU?$char_traits@D@std@@V?$allocator@D@2@@1@ABVloggerImpl@ctk@@@Z 10025240 f i log_factory.obj
 0001:000242b0       ?_Isnil@?$_Tree@V?$_Tmap_traits@V?$basic_string@DU?$char_traits@D@std@@V?$allocator@D@2@@std@@VloggerImpl@ctk@@U?$less@V?$basic_string@DU?$char_traits@D@std@@V?$allocator@D@2@@std@@@2@V?$allocator@U?$pair@$$CBV?$basic_string@DU?$char_traits@D@std@@V?$allocator@D@2@@std@@VloggerImpl@ctk@@@std@@@2@$0A@@std@@@std@@KAAADPAU_Node@?$_Tree_nod@V?$_Tmap_traits@V?$basic_string@DU?$char_traits@D@std@@V?$allocator@D@2@@std@@VloggerImpl@ctk@@U?$less@V?$basic_string@DU?$char_traits@D@std@@V?$allocator@D@2@@std@@@2@V?$allocator@U?$pair@$$CBV?$basic_string@DU?$char_traits@D@std@@V?$allocator@D@2@@std@@VloggerImpl@ctk@@@std@@@2@$0A@@std@@@2@@Z 100252b0 f i log_factory.obj
 0001:000242c0       ?_Myval@?$_Tree@V?$_Tmap_traits@V?$basic_string@DU?$char_traits@D@std@@V?$allocator@D@2@@std@@VloggerImpl@ctk@@U?$less@V?$basic_string@DU?$char_traits@D@std@@V?$allocator@D@2@@std@@@2@V?$allocator@U?$pair@$$CBV?$basic_string@DU?$char_traits@D@std@@V?$allocator@D@2@@std@@VloggerImpl@ctk@@@std@@@2@$0A@@std@@@std@@KAAAU?$pair@$$CBV?$basic_string@DU?$char_traits@D@std@@V?$allocator@D@2@@std@@VloggerImpl@ctk@@@2@PAU_Node@?$_Tree_nod@V?$_Tmap_traits@V?$basic_string@DU?$char_traits@D@std@@V?$allocator@D@2@@std@@VloggerImpl@ctk@@U?$less@V?$basic_string@DU?$char_traits@D@std@@V?$allocator@D@2@@std@@@2@V?$allocator@U?$pair@$$CBV?$basic_string@DU?$char_traits@D@std@@V?$allocator@D@2@@std@@VloggerImpl@ctk@@@std@@@2@$0A@@std@@@2@@Z 100252c0 f i log_factory.obj
 0001:000242d0       ?size@?$_Tree@V?$_Tmap_traits@V?$basic_string@DU?$char_traits@D@std@@V?$allocator@D@2@@std@@VloggerImpl@ctk@@U?$less@V?$basic_string@DU?$char_traits@D@std@@V?$allocator@D@2@@std@@@2@V?$allocator@U?$pair@$$CBV?$basic_string@DU?$char_traits@D@std@@V?$allocator@D@2@@std@@VloggerImpl@ctk@@@std@@@2@$0A@@std@@@std@@QBEIXZ 100252d0 f i log_factory.obj
 0001:000242f0       ?insert@?$_Tree@V?$_Tmap_traits@V?$basic_string@DU?$char_traits@D@std@@V?$allocator@D@2@@std@@VloggerImpl@ctk@@U?$less@V?$basic_string@DU?$char_traits@D@std@@V?$allocator@D@2@@std@@@2@V?$allocator@U?$pair@$$CBV?$basic_string@DU?$char_traits@D@std@@V?$allocator@D@2@@std@@VloggerImpl@ctk@@@std@@@2@$0A@@std@@@std@@QAE?AU?$pair@Viterator@?$_Tree@V?$_Tmap_traits@V?$basic_string@DU?$char_traits@D@std@@V?$allocator@D@2@@std@@VloggerImpl@ctk@@U?$less@V?$basic_string@DU?$char_traits@D@std@@V?$allocator@D@2@@std@@@2@V?$allocator@U?$pair@$$CBV?$basic_string@DU?$char_traits@D@std@@V?$allocator@D@2@@std@@VloggerImpl@ctk@@@std@@@2@$0A@@std@@@std@@_N@2@ABU?$pair@$$CBV?$basic_string@DU?$char_traits@D@std@@V?$allocator@D@2@@std@@VloggerImpl@ctk@@@2@@Z 100252f0 f i log_factory.obj
 0001:000244c0       ?_Left@?$_Tree@V?$_Tmap_traits@V?$basic_string@DU?$char_traits@D@std@@V?$allocator@D@2@@std@@VloggerImpl@ctk@@U?$less@V?$basic_string@DU?$char_traits@D@std@@V?$allocator@D@2@@std@@@2@V?$allocator@U?$pair@$$CBV?$basic_string@DU?$char_traits@D@std@@V?$allocator@D@2@@std@@VloggerImpl@ctk@@@std@@@2@$0A@@std@@@std@@KAAAPAU_Node@?$_Tree_nod@V?$_Tmap_traits@V?$basic_string@DU?$char_traits@D@std@@V?$allocator@D@2@@std@@VloggerImpl@ctk@@U?$less@V?$basic_string@DU?$char_traits@D@std@@V?$allocator@D@2@@std@@@2@V?$allocator@U?$pair@$$CBV?$basic_string@DU?$char_traits@D@std@@V?$allocator@D@2@@std@@VloggerImpl@ctk@@@std@@@2@$0A@@std@@@2@PAU342@@Z 100254c0 f i log_factory.obj
 0001:000244d0       ?_Insert@?$_Tree@V?$_Tmap_traits@V?$basic_string@DU?$char_traits@D@std@@V?$allocator@D@2@@std@@VloggerImpl@ctk@@U?$less@V?$basic_string@DU?$char_traits@D@std@@V?$allocator@D@2@@std@@@2@V?$allocator@U?$pair@$$CBV?$basic_string@DU?$char_traits@D@std@@V?$allocator@D@2@@std@@VloggerImpl@ctk@@@std@@@2@$0A@@std@@@std@@IAE?AViterator@12@_NPAU_Node@?$_Tree_nod@V?$_Tmap_traits@V?$basic_string@DU?$char_traits@D@std@@V?$allocator@D@2@@std@@VloggerImpl@ctk@@U?$less@V?$basic_string@DU?$char_traits@D@std@@V?$allocator@D@2@@std@@@2@V?$allocator@U?$pair@$$CBV?$basic_string@DU?$char_traits@D@std@@V?$allocator@D@2@@std@@VloggerImpl@ctk@@@std@@@2@$0A@@std@@@2@ABU?$pair@$$CBV?$basic_string@DU?$char_traits@D@std@@V?$allocator@D@2@@std@@VloggerImpl@ctk@@@2@@Z 100254d0 f i log_factory.obj
 0001:00024950       ?_Parent@?$_Tree@V?$_Tmap_traits@V?$basic_string@DU?$char_traits@D@std@@V?$allocator@D@2@@std@@VloggerImpl@ctk@@U?$less@V?$basic_string@DU?$char_traits@D@std@@V?$allocator@D@2@@std@@@2@V?$allocator@U?$pair@$$CBV?$basic_string@DU?$char_traits@D@std@@V?$allocator@D@2@@std@@VloggerImpl@ctk@@@std@@@2@$0A@@std@@@std@@KAAAPAU_Node@?$_Tree_nod@V?$_Tmap_traits@V?$basic_string@DU?$char_traits@D@std@@V?$allocator@D@2@@std@@VloggerImpl@ctk@@U?$less@V?$basic_string@DU?$char_traits@D@std@@V?$allocator@D@2@@std@@@2@V?$allocator@U?$pair@$$CBV?$basic_string@DU?$char_traits@D@std@@V?$allocator@D@2@@std@@VloggerImpl@ctk@@@std@@@2@$0A@@std@@@2@PAU342@@Z 10025950 f i log_factory.obj
 0001:00024960       ?_Lbound@?$_Tree@V?$_Tmap_traits@V?$basic_string@DU?$char_traits@D@std@@V?$allocator@D@2@@std@@VloggerImpl@ctk@@U?$less@V?$basic_string@DU?$char_traits@D@std@@V?$allocator@D@2@@std@@@2@V?$allocator@U?$pair@$$CBV?$basic_string@DU?$char_traits@D@std@@V?$allocator@D@2@@std@@VloggerImpl@ctk@@@std@@@2@$0A@@std@@@std@@IBEPAU_Node@?$_Tree_nod@V?$_Tmap_traits@V?$basic_string@DU?$char_traits@D@std@@V?$allocator@D@2@@std@@VloggerImpl@ctk@@U?$less@V?$basic_string@DU?$char_traits@D@std@@V?$allocator@D@2@@std@@@2@V?$allocator@U?$pair@$$CBV?$basic_string@DU?$char_traits@D@std@@V?$allocator@D@2@@std@@VloggerImpl@ctk@@@std@@@2@$0A@@std@@@2@ABV?$basic_string@DU?$char_traits@D@std@@V?$allocator@D@2@@2@@Z 10025960 f i log_factory.obj
 0001:000249f0       ?_Lmost@?$_Tree@V?$_Tmap_traits@V?$basic_string@DU?$char_traits@D@std@@V?$allocator@D@2@@std@@VloggerImpl@ctk@@U?$less@V?$basic_string@DU?$char_traits@D@std@@V?$allocator@D@2@@std@@@2@V?$allocator@U?$pair@$$CBV?$basic_string@DU?$char_traits@D@std@@V?$allocator@D@2@@std@@VloggerImpl@ctk@@@std@@@2@$0A@@std@@@std@@IBEAAPAU_Node@?$_Tree_nod@V?$_Tmap_traits@V?$basic_string@DU?$char_traits@D@std@@V?$allocator@D@2@@std@@VloggerImpl@ctk@@U?$less@V?$basic_string@DU?$char_traits@D@std@@V?$allocator@D@2@@std@@@2@V?$allocator@U?$pair@$$CBV?$basic_string@DU?$char_traits@D@std@@V?$allocator@D@2@@std@@VloggerImpl@ctk@@@std@@@2@$0A@@std@@@2@XZ 100259f0 f i log_factory.obj
 0001:00024a10       ?_Rmost@?$_Tree@V?$_Tmap_traits@V?$basic_string@DU?$char_traits@D@std@@V?$allocator@D@2@@std@@VloggerImpl@ctk@@U?$less@V?$basic_string@DU?$char_traits@D@std@@V?$allocator@D@2@@std@@@2@V?$allocator@U?$pair@$$CBV?$basic_string@DU?$char_traits@D@std@@V?$allocator@D@2@@std@@VloggerImpl@ctk@@@std@@@2@$0A@@std@@@std@@IBEAAPAU_Node@?$_Tree_nod@V?$_Tmap_traits@V?$basic_string@DU?$char_traits@D@std@@V?$allocator@D@2@@std@@VloggerImpl@ctk@@U?$less@V?$basic_string@DU?$char_traits@D@std@@V?$allocator@D@2@@std@@@2@V?$allocator@U?$pair@$$CBV?$basic_string@DU?$char_traits@D@std@@V?$allocator@D@2@@std@@VloggerImpl@ctk@@@std@@@2@$0A@@std@@@2@XZ 10025a10 f i log_factory.obj
 0001:00024a30       ?_Kfn@?$_Tmap_traits@V?$basic_string@DU?$char_traits@D@std@@V?$allocator@D@2@@std@@VloggerImpl@ctk@@U?$less@V?$basic_string@DU?$char_traits@D@std@@V?$allocator@D@2@@std@@@2@V?$allocator@U?$pair@$$CBV?$basic_string@DU?$char_traits@D@std@@V?$allocator@D@2@@std@@VloggerImpl@ctk@@@std@@@2@$0A@@std@@SAABV?$basic_string@DU?$char_traits@D@std@@V?$allocator@D@2@@2@ABU?$pair@$$CBV?$basic_string@DU?$char_traits@D@std@@V?$allocator@D@2@@std@@VloggerImpl@ctk@@@2@@Z 10025a30 f i log_factory.obj
 0001:00024a40       ??0iterator@?$_Tree@V?$_Tmap_traits@V?$basic_string@DU?$char_traits@D@std@@V?$allocator@D@2@@std@@VloggerImpl@ctk@@U?$less@V?$basic_string@DU?$char_traits@D@std@@V?$allocator@D@2@@std@@@2@V?$allocator@U?$pair@$$CBV?$basic_string@DU?$char_traits@D@std@@V?$allocator@D@2@@std@@VloggerImpl@ctk@@@std@@@2@$0A@@std@@@std@@QAE@PAU_Node@?$_Tree_nod@V?$_Tmap_traits@V?$basic_string@DU?$char_traits@D@std@@V?$allocator@D@2@@std@@VloggerImpl@ctk@@U?$less@V?$basic_string@DU?$char_traits@D@std@@V?$allocator@D@2@@std@@@2@V?$allocator@U?$pair@$$CBV?$basic_string@DU?$char_traits@D@std@@V?$allocator@D@2@@std@@VloggerImpl@ctk@@@std@@@2@$0A@@std@@@2@PBV12@@Z 10025a40 f i log_factory.obj
 0001:00024a60       ??0const_iterator@?$_Tree@V?$_Tmap_traits@V?$basic_string@DU?$char_traits@D@std@@V?$allocator@D@2@@std@@VloggerImpl@ctk@@U?$less@V?$basic_string@DU?$char_traits@D@std@@V?$allocator@D@2@@std@@@2@V?$allocator@U?$pair@$$CBV?$basic_string@DU?$char_traits@D@std@@V?$allocator@D@2@@std@@VloggerImpl@ctk@@@std@@@2@$0A@@std@@@std@@QAE@XZ 10025a60 f i log_factory.obj
 0001:00024a80       ??Dconst_iterator@?$_Tree@V?$_Tmap_traits@V?$basic_string@DU?$char_traits@D@std@@V?$allocator@D@2@@std@@VloggerImpl@ctk@@U?$less@V?$basic_string@DU?$char_traits@D@std@@V?$allocator@D@2@@std@@@2@V?$allocator@U?$pair@$$CBV?$basic_string@DU?$char_traits@D@std@@V?$allocator@D@2@@std@@VloggerImpl@ctk@@@std@@@2@$0A@@std@@@std@@QBEABU?$pair@$$CBV?$basic_string@DU?$char_traits@D@std@@V?$allocator@D@2@@std@@VloggerImpl@ctk@@@2@XZ 10025a80 f i log_factory.obj
 0001:00024ad0       ??Econst_iterator@?$_Tree@V?$_Tmap_traits@V?$basic_string@DU?$char_traits@D@std@@V?$allocator@D@2@@std@@VloggerImpl@ctk@@U?$less@V?$basic_string@DU?$char_traits@D@std@@V?$allocator@D@2@@std@@@2@V?$allocator@U?$pair@$$CBV?$basic_string@DU?$char_traits@D@std@@V?$allocator@D@2@@std@@VloggerImpl@ctk@@@std@@@2@$0A@@std@@@std@@QAEAAV012@XZ 10025ad0 f i log_factory.obj
 0001:00024af0       ??Fconst_iterator@?$_Tree@V?$_Tmap_traits@V?$basic_string@DU?$char_traits@D@std@@V?$allocator@D@2@@std@@VloggerImpl@ctk@@U?$less@V?$basic_string@DU?$char_traits@D@std@@V?$allocator@D@2@@std@@@2@V?$allocator@U?$pair@$$CBV?$basic_string@DU?$char_traits@D@std@@V?$allocator@D@2@@std@@VloggerImpl@ctk@@@std@@@2@$0A@@std@@@std@@QAEAAV012@XZ 10025af0 f i log_factory.obj
 0001:00024b10       ??0?$_Bidit@U?$pair@$$CBV?$basic_string@DU?$char_traits@D@std@@V?$allocator@D@2@@std@@VloggerImpl@ctk@@@std@@HPBU12@ABU12@@std@@QAE@XZ 10025b10 f i log_factory.obj
 0001:00024b30       ??0?$_Iterator_with_base@Ubidirectional_iterator_tag@std@@U?$pair@$$CBV?$basic_string@DU?$char_traits@D@std@@V?$allocator@D@2@@std@@VloggerImpl@ctk@@@2@HPBU32@ABU32@V_Iterator_base_aux@2@@std@@QAE@XZ 10025b30 f i log_factory.obj
 0001:00024b50       ?_Color@?$_Tree@V?$_Tmap_traits@V?$basic_string@DU?$char_traits@D@std@@V?$allocator@D@2@@std@@VloggerImpl@ctk@@U?$less@V?$basic_string@DU?$char_traits@D@std@@V?$allocator@D@2@@std@@@2@V?$allocator@U?$pair@$$CBV?$basic_string@DU?$char_traits@D@std@@V?$allocator@D@2@@std@@VloggerImpl@ctk@@@std@@@2@$0A@@std@@@std@@KAAADPAU_Node@?$_Tree_nod@V?$_Tmap_traits@V?$basic_string@DU?$char_traits@D@std@@V?$allocator@D@2@@std@@VloggerImpl@ctk@@U?$less@V?$basic_string@DU?$char_traits@D@std@@V?$allocator@D@2@@std@@@2@V?$allocator@U?$pair@$$CBV?$basic_string@DU?$char_traits@D@std@@V?$allocator@D@2@@std@@VloggerImpl@ctk@@@std@@@2@$0A@@std@@@2@@Z 10025b50 f i log_factory.obj
 0001:00024b60       ?max_size@?$_Tree@V?$_Tmap_traits@V?$basic_string@DU?$char_traits@D@std@@V?$allocator@D@2@@std@@VloggerImpl@ctk@@U?$less@V?$basic_string@DU?$char_traits@D@std@@V?$allocator@D@2@@std@@@2@V?$allocator@U?$pair@$$CBV?$basic_string@DU?$char_traits@D@std@@V?$allocator@D@2@@std@@VloggerImpl@ctk@@@std@@@2@$0A@@std@@@std@@QBEIXZ 10025b60 f i log_factory.obj
 0001:00024b80       ?_Lrotate@?$_Tree@V?$_Tmap_traits@V?$basic_string@DU?$char_traits@D@std@@V?$allocator@D@2@@std@@VloggerImpl@ctk@@U?$less@V?$basic_string@DU?$char_traits@D@std@@V?$allocator@D@2@@std@@@2@V?$allocator@U?$pair@$$CBV?$basic_string@DU?$char_traits@D@std@@V?$allocator@D@2@@std@@VloggerImpl@ctk@@@std@@@2@$0A@@std@@@std@@IAEXPAU_Node@?$_Tree_nod@V?$_Tmap_traits@V?$basic_string@DU?$char_traits@D@std@@V?$allocator@D@2@@std@@VloggerImpl@ctk@@U?$less@V?$basic_string@DU?$char_traits@D@std@@V?$allocator@D@2@@std@@@2@V?$allocator@U?$pair@$$CBV?$basic_string@DU?$char_traits@D@std@@V?$allocator@D@2@@std@@VloggerImpl@ctk@@@std@@@2@$0A@@std@@@2@@Z 10025b80 f i log_factory.obj
 0001:00024cb0       ?_Root@?$_Tree@V?$_Tmap_traits@V?$basic_string@DU?$char_traits@D@std@@V?$allocator@D@2@@std@@VloggerImpl@ctk@@U?$less@V?$basic_string@DU?$char_traits@D@std@@V?$allocator@D@2@@std@@@2@V?$allocator@U?$pair@$$CBV?$basic_string@DU?$char_traits@D@std@@V?$allocator@D@2@@std@@VloggerImpl@ctk@@@std@@@2@$0A@@std@@@std@@IBEAAPAU_Node@?$_Tree_nod@V?$_Tmap_traits@V?$basic_string@DU?$char_traits@D@std@@V?$allocator@D@2@@std@@VloggerImpl@ctk@@U?$less@V?$basic_string@DU?$char_traits@D@std@@V?$allocator@D@2@@std@@@2@V?$allocator@U?$pair@$$CBV?$basic_string@DU?$char_traits@D@std@@V?$allocator@D@2@@std@@VloggerImpl@ctk@@@std@@@2@$0A@@std@@@2@XZ 10025cb0 f i log_factory.obj
 0001:00024cd0       ?_Rrotate@?$_Tree@V?$_Tmap_traits@V?$basic_string@DU?$char_traits@D@std@@V?$allocator@D@2@@std@@VloggerImpl@ctk@@U?$less@V?$basic_string@DU?$char_traits@D@std@@V?$allocator@D@2@@std@@@2@V?$allocator@U?$pair@$$CBV?$basic_string@DU?$char_traits@D@std@@V?$allocator@D@2@@std@@VloggerImpl@ctk@@@std@@@2@$0A@@std@@@std@@IAEXPAU_Node@?$_Tree_nod@V?$_Tmap_traits@V?$basic_string@DU?$char_traits@D@std@@V?$allocator@D@2@@std@@VloggerImpl@ctk@@U?$less@V?$basic_string@DU?$char_traits@D@std@@V?$allocator@D@2@@std@@@2@V?$allocator@U?$pair@$$CBV?$basic_string@DU?$char_traits@D@std@@V?$allocator@D@2@@std@@VloggerImpl@ctk@@@std@@@2@$0A@@std@@@2@@Z 10025cd0 f i log_factory.obj
 0001:00024e00       ?_Buynode@?$_Tree@V?$_Tmap_traits@V?$basic_string@DU?$char_traits@D@std@@V?$allocator@D@2@@std@@VloggerImpl@ctk@@U?$less@V?$basic_string@DU?$char_traits@D@std@@V?$allocator@D@2@@std@@@2@V?$allocator@U?$pair@$$CBV?$basic_string@DU?$char_traits@D@std@@V?$allocator@D@2@@std@@VloggerImpl@ctk@@@std@@@2@$0A@@std@@@std@@IAEPAU_Node@?$_Tree_nod@V?$_Tmap_traits@V?$basic_string@DU?$char_traits@D@std@@V?$allocator@D@2@@std@@VloggerImpl@ctk@@U?$less@V?$basic_string@DU?$char_traits@D@std@@V?$allocator@D@2@@std@@@2@V?$allocator@U?$pair@$$CBV?$basic_string@DU?$char_traits@D@std@@V?$allocator@D@2@@std@@VloggerImpl@ctk@@@std@@@2@$0A@@std@@@2@PAU342@00ABU?$pair@$$CBV?$basic_string@DU?$char_traits@D@std@@V?$allocator@D@2@@std@@VloggerImpl@ctk@@@2@D@Z 10025e00 f i log_factory.obj
 0001:00024ee0       ?deallocate@?$allocator@U_Node@?$_Tree_nod@V?$_Tmap_traits@V?$basic_string@DU?$char_traits@D@std@@V?$allocator@D@2@@std@@VloggerImpl@ctk@@U?$less@V?$basic_string@DU?$char_traits@D@std@@V?$allocator@D@2@@std@@@2@V?$allocator@U?$pair@$$CBV?$basic_string@DU?$char_traits@D@std@@V?$allocator@D@2@@std@@VloggerImpl@ctk@@@std@@@2@$0A@@std@@@std@@@std@@QAEXPAU_Node@?$_Tree_nod@V?$_Tmap_traits@V?$basic_string@DU?$char_traits@D@std@@V?$allocator@D@2@@std@@VloggerImpl@ctk@@U?$less@V?$basic_string@DU?$char_traits@D@std@@V?$allocator@D@2@@std@@@2@V?$allocator@U?$pair@$$CBV?$basic_string@DU?$char_traits@D@std@@V?$allocator@D@2@@std@@VloggerImpl@ctk@@@std@@@2@$0A@@std@@@2@I@Z 10025ee0 f i log_factory.obj
 0001:00024f00       ??Fiterator@?$_Tree@V?$_Tmap_traits@V?$basic_string@DU?$char_traits@D@std@@V?$allocator@D@2@@std@@VloggerImpl@ctk@@U?$less@V?$basic_string@DU?$char_traits@D@std@@V?$allocator@D@2@@std@@@2@V?$allocator@U?$pair@$$CBV?$basic_string@DU?$char_traits@D@std@@V?$allocator@D@2@@std@@VloggerImpl@ctk@@@std@@@2@$0A@@std@@@std@@QAEAAV012@XZ 10025f00 f i log_factory.obj
 0001:00024f20       ??0const_iterator@?$_Tree@V?$_Tmap_traits@V?$basic_string@DU?$char_traits@D@std@@V?$allocator@D@2@@std@@VloggerImpl@ctk@@U?$less@V?$basic_string@DU?$char_traits@D@std@@V?$allocator@D@2@@std@@@2@V?$allocator@U?$pair@$$CBV?$basic_string@DU?$char_traits@D@std@@V?$allocator@D@2@@std@@VloggerImpl@ctk@@@std@@@2@$0A@@std@@@std@@QAE@PAU_Node@?$_Tree_nod@V?$_Tmap_traits@V?$basic_string@DU?$char_traits@D@std@@V?$allocator@D@2@@std@@VloggerImpl@ctk@@U?$less@V?$basic_string@DU?$char_traits@D@std@@V?$allocator@D@2@@std@@@2@V?$allocator@U?$pair@$$CBV?$basic_string@DU?$char_traits@D@std@@V?$allocator@D@2@@std@@VloggerImpl@ctk@@@std@@@2@$0A@@std@@@2@PBV12@@Z 10025f20 f i log_factory.obj
 0001:00024f60       ?_Dec@const_iterator@?$_Tree@V?$_Tmap_traits@V?$basic_string@DU?$char_traits@D@std@@V?$allocator@D@2@@std@@VloggerImpl@ctk@@U?$less@V?$basic_string@DU?$char_traits@D@std@@V?$allocator@D@2@@std@@@2@V?$allocator@U?$pair@$$CBV?$basic_string@DU?$char_traits@D@std@@V?$allocator@D@2@@std@@VloggerImpl@ctk@@@std@@@2@$0A@@std@@@std@@QAEXXZ 10025f60 f i log_factory.obj
 0001:00025090       ?_Max@?$_Tree@V?$_Tmap_traits@V?$basic_string@DU?$char_traits@D@std@@V?$allocator@D@2@@std@@VloggerImpl@ctk@@U?$less@V?$basic_string@DU?$char_traits@D@std@@V?$allocator@D@2@@std@@@2@V?$allocator@U?$pair@$$CBV?$basic_string@DU?$char_traits@D@std@@V?$allocator@D@2@@std@@VloggerImpl@ctk@@@std@@@2@$0A@@std@@@std@@KAPAU_Node@?$_Tree_nod@V?$_Tmap_traits@V?$basic_string@DU?$char_traits@D@std@@V?$allocator@D@2@@std@@VloggerImpl@ctk@@U?$less@V?$basic_string@DU?$char_traits@D@std@@V?$allocator@D@2@@std@@@2@V?$allocator@U?$pair@$$CBV?$basic_string@DU?$char_traits@D@std@@V?$allocator@D@2@@std@@VloggerImpl@ctk@@@std@@@2@$0A@@std@@@2@PAU342@@Z 10026090 f i log_factory.obj
 0001:000250d0       ?_Inc@const_iterator@?$_Tree@V?$_Tmap_traits@V?$basic_string@DU?$char_traits@D@std@@V?$allocator@D@2@@std@@VloggerImpl@ctk@@U?$less@V?$basic_string@DU?$char_traits@D@std@@V?$allocator@D@2@@std@@@2@V?$allocator@U?$pair@$$CBV?$basic_string@DU?$char_traits@D@std@@V?$allocator@D@2@@std@@VloggerImpl@ctk@@@std@@@2@$0A@@std@@@std@@QAEXXZ 100260d0 f i log_factory.obj
 0001:000251b0       ?_Min@?$_Tree@V?$_Tmap_traits@V?$basic_string@DU?$char_traits@D@std@@V?$allocator@D@2@@std@@VloggerImpl@ctk@@U?$less@V?$basic_string@DU?$char_traits@D@std@@V?$allocator@D@2@@std@@@2@V?$allocator@U?$pair@$$CBV?$basic_string@DU?$char_traits@D@std@@V?$allocator@D@2@@std@@VloggerImpl@ctk@@@std@@@2@$0A@@std@@@std@@KAPAU_Node@?$_Tree_nod@V?$_Tmap_traits@V?$basic_string@DU?$char_traits@D@std@@V?$allocator@D@2@@std@@VloggerImpl@ctk@@U?$less@V?$basic_string@DU?$char_traits@D@std@@V?$allocator@D@2@@std@@@2@V?$allocator@U?$pair@$$CBV?$basic_string@DU?$char_traits@D@std@@V?$allocator@D@2@@std@@VloggerImpl@ctk@@@std@@@2@$0A@@std@@@2@PAU342@@Z 100261b0 f i log_factory.obj
 0001:000251f0       ??0?$pair@Viterator@?$_Tree@V?$_Tmap_traits@V?$basic_string@DU?$char_traits@D@std@@V?$allocator@D@2@@std@@VloggerImpl@ctk@@U?$less@V?$basic_string@DU?$char_traits@D@std@@V?$allocator@D@2@@std@@@2@V?$allocator@U?$pair@$$CBV?$basic_string@DU?$char_traits@D@std@@V?$allocator@D@2@@std@@VloggerImpl@ctk@@@std@@@2@$0A@@std@@@std@@_N@std@@QAE@ABViterator@?$_Tree@V?$_Tmap_traits@V?$basic_string@DU?$char_traits@D@std@@V?$allocator@D@2@@std@@VloggerImpl@ctk@@U?$less@V?$basic_string@DU?$char_traits@D@std@@V?$allocator@D@2@@std@@@2@V?$allocator@U?$pair@$$CBV?$basic_string@DU?$char_traits@D@std@@V?$allocator@D@2@@std@@VloggerImpl@ctk@@@std@@@2@$0A@@std@@@1@AB_N@Z 100261f0 f i log_factory.obj
 0001:00025220       ?max_size@?$allocator@U?$pair@$$CBV?$basic_string@DU?$char_traits@D@std@@V?$allocator@D@2@@std@@VloggerImpl@ctk@@@std@@@std@@QBEIXZ 10026220 f i log_factory.obj
 0001:00025250       ?allocate@?$allocator@U_Node@?$_Tree_nod@V?$_Tmap_traits@V?$basic_string@DU?$char_traits@D@std@@V?$allocator@D@2@@std@@VloggerImpl@ctk@@U?$less@V?$basic_string@DU?$char_traits@D@std@@V?$allocator@D@2@@std@@@2@V?$allocator@U?$pair@$$CBV?$basic_string@DU?$char_traits@D@std@@V?$allocator@D@2@@std@@VloggerImpl@ctk@@@std@@@2@$0A@@std@@@std@@@std@@QAEPAU_Node@?$_Tree_nod@V?$_Tmap_traits@V?$basic_string@DU?$char_traits@D@std@@V?$allocator@D@2@@std@@VloggerImpl@ctk@@U?$less@V?$basic_string@DU?$char_traits@D@std@@V?$allocator@D@2@@std@@@2@V?$allocator@U?$pair@$$CBV?$basic_string@DU?$char_traits@D@std@@V?$allocator@D@2@@std@@VloggerImpl@ctk@@@std@@@2@$0A@@std@@@2@I@Z 10026250 f i log_factory.obj
 0001:00025270       ??0_Node@?$_Tree_nod@V?$_Tmap_traits@V?$basic_string@DU?$char_traits@D@std@@V?$allocator@D@2@@std@@VloggerImpl@ctk@@U?$less@V?$basic_string@DU?$char_traits@D@std@@V?$allocator@D@2@@std@@@2@V?$allocator@U?$pair@$$CBV?$basic_string@DU?$char_traits@D@std@@V?$allocator@D@2@@std@@VloggerImpl@ctk@@@std@@@2@$0A@@std@@@std@@QAE@PAU012@00ABU?$pair@$$CBV?$basic_string@DU?$char_traits@D@std@@V?$allocator@D@2@@std@@VloggerImpl@ctk@@@2@D@Z 10026270 f i log_factory.obj
 0001:00025300       ??0?$pair@$$CBV?$basic_string@DU?$char_traits@D@std@@V?$allocator@D@2@@std@@VloggerImpl@ctk@@@std@@QAE@ABU01@@Z 10026300 f i log_factory.obj
 0001:00025370       ??$allocate@VLoggerFactoryImpl@ctk@@@ctk@@YAPAVLoggerFactoryImpl@0@PBDI0@Z 10026370 f i log_factory.obj
 0001:000253a0       ??$_Allocate@U_Node@?$_Tree_nod@V?$_Tmap_traits@V?$basic_string@DU?$char_traits@D@std@@V?$allocator@D@2@@std@@VloggerImpl@ctk@@U?$less@V?$basic_string@DU?$char_traits@D@std@@V?$allocator@D@2@@std@@@2@V?$allocator@U?$pair@$$CBV?$basic_string@DU?$char_traits@D@std@@V?$allocator@D@2@@std@@VloggerImpl@ctk@@@std@@@2@$0A@@std@@@std@@@std@@YAPAU_Node@?$_Tree_nod@V?$_Tmap_traits@V?$basic_string@DU?$char_traits@D@std@@V?$allocator@D@2@@std@@VloggerImpl@ctk@@U?$less@V?$basic_string@DU?$char_traits@D@std@@V?$allocator@D@2@@std@@@2@V?$allocator@U?$pair@$$CBV?$basic_string@DU?$char_traits@D@std@@V?$allocator@D@2@@std@@VloggerImpl@ctk@@@std@@@2@$0A@@std@@@0@IPAU120@@Z 100263a0 f i log_factory.obj
 0001:00025400       ??$allocate_no_mlc@VLoggerFactoryImpl@ctk@@@ctk@@YAPAVLoggerFactoryImpl@0@PBDI0@Z 10026400 f i log_factory.obj
 0001:00025490       ??0LoggerFactoryImpl@ctk@@AAE@XZ 10026490 f i log_factory.obj
 0001:000254e0       ??1?$map@V?$basic_string@DU?$char_traits@D@std@@V?$allocator@D@2@@std@@VloggerImpl@ctk@@@mt@ctk@@QAE@XZ 100264e0 f i log_factory.obj
 0001:00025540       ??1?$map@V?$basic_string@DU?$char_traits@D@std@@V?$allocator@D@2@@std@@VloggerImpl@ctk@@U?$less@V?$basic_string@DU?$char_traits@D@std@@V?$allocator@D@2@@std@@@2@V?$allocator@U?$pair@$$CBV?$basic_string@DU?$char_traits@D@std@@V?$allocator@D@2@@std@@VloggerImpl@ctk@@@std@@@2@@std@@QAE@XZ 10026540 f i log_factory.obj
 0001:00025590       ??0?$map@V?$basic_string@DU?$char_traits@D@std@@V?$allocator@D@2@@std@@VloggerImpl@ctk@@@mt@ctk@@QAE@XZ 10026590 f i log_factory.obj
 0001:000255f0       ??1?$_Tree@V?$_Tmap_traits@V?$basic_string@DU?$char_traits@D@std@@V?$allocator@D@2@@std@@VloggerImpl@ctk@@U?$less@V?$basic_string@DU?$char_traits@D@std@@V?$allocator@D@2@@std@@@2@V?$allocator@U?$pair@$$CBV?$basic_string@DU?$char_traits@D@std@@V?$allocator@D@2@@std@@VloggerImpl@ctk@@@std@@@2@$0A@@std@@@std@@QAE@XZ 100265f0 f i log_factory.obj
 0001:00025650       ??1?$_Tree_val@V?$_Tmap_traits@V?$basic_string@DU?$char_traits@D@std@@V?$allocator@D@2@@std@@VloggerImpl@ctk@@U?$less@V?$basic_string@DU?$char_traits@D@std@@V?$allocator@D@2@@std@@@2@V?$allocator@U?$pair@$$CBV?$basic_string@DU?$char_traits@D@std@@V?$allocator@D@2@@std@@VloggerImpl@ctk@@@std@@@2@$0A@@std@@@std@@QAE@XZ 10026650 f i log_factory.obj
 0001:000256a0       ??1?$_Tree_ptr@V?$_Tmap_traits@V?$basic_string@DU?$char_traits@D@std@@V?$allocator@D@2@@std@@VloggerImpl@ctk@@U?$less@V?$basic_string@DU?$char_traits@D@std@@V?$allocator@D@2@@std@@@2@V?$allocator@U?$pair@$$CBV?$basic_string@DU?$char_traits@D@std@@V?$allocator@D@2@@std@@VloggerImpl@ctk@@@std@@@2@$0A@@std@@@std@@QAE@XZ 100266a0 f i log_factory.obj
 0001:000256f0       ??1?$_Tree_nod@V?$_Tmap_traits@V?$basic_string@DU?$char_traits@D@std@@V?$allocator@D@2@@std@@VloggerImpl@ctk@@U?$less@V?$basic_string@DU?$char_traits@D@std@@V?$allocator@D@2@@std@@@2@V?$allocator@U?$pair@$$CBV?$basic_string@DU?$char_traits@D@std@@V?$allocator@D@2@@std@@VloggerImpl@ctk@@@std@@@2@$0A@@std@@@std@@QAE@XZ 100266f0 f i log_factory.obj
 0001:00025740       ??1?$_Tmap_traits@V?$basic_string@DU?$char_traits@D@std@@V?$allocator@D@2@@std@@VloggerImpl@ctk@@U?$less@V?$basic_string@DU?$char_traits@D@std@@V?$allocator@D@2@@std@@@2@V?$allocator@U?$pair@$$CBV?$basic_string@DU?$char_traits@D@std@@V?$allocator@D@2@@std@@VloggerImpl@ctk@@@std@@@2@$0A@@std@@QAE@XZ 10026740 f i log_factory.obj
 0001:00025790       ??0?$map@V?$basic_string@DU?$char_traits@D@std@@V?$allocator@D@2@@std@@VloggerImpl@ctk@@U?$less@V?$basic_string@DU?$char_traits@D@std@@V?$allocator@D@2@@std@@@2@V?$allocator@U?$pair@$$CBV?$basic_string@DU?$char_traits@D@std@@V?$allocator@D@2@@std@@VloggerImpl@ctk@@@std@@@2@@std@@QAE@XZ 10026790 f i log_factory.obj
 0001:000257f0       ?_Tidy@?$_Tree@V?$_Tmap_traits@V?$basic_string@DU?$char_traits@D@std@@V?$allocator@D@2@@std@@VloggerImpl@ctk@@U?$less@V?$basic_string@DU?$char_traits@D@std@@V?$allocator@D@2@@std@@@2@V?$allocator@U?$pair@$$CBV?$basic_string@DU?$char_traits@D@std@@V?$allocator@D@2@@std@@VloggerImpl@ctk@@@std@@@2@$0A@@std@@@std@@IAEXXZ 100267f0 f i log_factory.obj
 0001:000258c0       ??1?$_Container_base_aux_alloc_real@V?$allocator@U?$pair@$$CBV?$basic_string@DU?$char_traits@D@std@@V?$allocator@D@2@@std@@VloggerImpl@ctk@@@std@@@std@@@std@@IAE@XZ 100268c0 f i log_factory.obj
 0001:00025920       ??0?$_Tree@V?$_Tmap_traits@V?$basic_string@DU?$char_traits@D@std@@V?$allocator@D@2@@std@@VloggerImpl@ctk@@U?$less@V?$basic_string@DU?$char_traits@D@std@@V?$allocator@D@2@@std@@@2@V?$allocator@U?$pair@$$CBV?$basic_string@DU?$char_traits@D@std@@V?$allocator@D@2@@std@@VloggerImpl@ctk@@@std@@@2@$0A@@std@@@std@@QAE@ABU?$less@V?$basic_string@DU?$char_traits@D@std@@V?$allocator@D@2@@std@@@1@ABV?$allocator@U?$pair@$$CBV?$basic_string@DU?$char_traits@D@std@@V?$allocator@D@2@@std@@VloggerImpl@ctk@@@std@@@1@@Z 10026920 f i log_factory.obj
 0001:00025990       ?erase@?$_Tree@V?$_Tmap_traits@V?$basic_string@DU?$char_traits@D@std@@V?$allocator@D@2@@std@@VloggerImpl@ctk@@U?$less@V?$basic_string@DU?$char_traits@D@std@@V?$allocator@D@2@@std@@@2@V?$allocator@U?$pair@$$CBV?$basic_string@DU?$char_traits@D@std@@V?$allocator@D@2@@std@@VloggerImpl@ctk@@@std@@@2@$0A@@std@@@std@@QAE?AViterator@12@Vconst_iterator@12@0@Z 10026990 f i log_factory.obj
 0001:00025a40       ??0?$allocator@U?$pair@$$CBV?$basic_string@DU?$char_traits@D@std@@V?$allocator@D@2@@std@@VloggerImpl@ctk@@@std@@@std@@QAE@XZ 10026a40 f i log_factory.obj
 0001:00025a50       ?destroy@?$allocator@PAU_Node@?$_Tree_nod@V?$_Tmap_traits@V?$basic_string@DU?$char_traits@D@std@@V?$allocator@D@2@@std@@VloggerImpl@ctk@@U?$less@V?$basic_string@DU?$char_traits@D@std@@V?$allocator@D@2@@std@@@2@V?$allocator@U?$pair@$$CBV?$basic_string@DU?$char_traits@D@std@@V?$allocator@D@2@@std@@VloggerImpl@ctk@@@std@@@2@$0A@@std@@@std@@@std@@QAEXPAPAU_Node@?$_Tree_nod@V?$_Tmap_traits@V?$basic_string@DU?$char_traits@D@std@@V?$allocator@D@2@@std@@VloggerImpl@ctk@@U?$less@V?$basic_string@DU?$char_traits@D@std@@V?$allocator@D@2@@std@@@2@V?$allocator@U?$pair@$$CBV?$basic_string@DU?$char_traits@D@std@@V?$allocator@D@2@@std@@VloggerImpl@ctk@@@std@@@2@$0A@@std@@@2@@Z 10026a50 f i log_factory.obj
 0001:00025a70       ?_Make_iter@?$_Tree@V?$_Tmap_traits@V?$basic_string@DU?$char_traits@D@std@@V?$allocator@D@2@@std@@VloggerImpl@ctk@@U?$less@V?$basic_string@DU?$char_traits@D@std@@V?$allocator@D@2@@std@@@2@V?$allocator@U?$pair@$$CBV?$basic_string@DU?$char_traits@D@std@@V?$allocator@D@2@@std@@VloggerImpl@ctk@@@std@@@2@$0A@@std@@@std@@QBE?AViterator@12@Vconst_iterator@12@@Z 10026a70 f i log_factory.obj
 0001:00025aa0       ?erase@?$_Tree@V?$_Tmap_traits@V?$basic_string@DU?$char_traits@D@std@@V?$allocator@D@2@@std@@VloggerImpl@ctk@@U?$less@V?$basic_string@DU?$char_traits@D@std@@V?$allocator@D@2@@std@@@2@V?$allocator@U?$pair@$$CBV?$basic_string@DU?$char_traits@D@std@@V?$allocator@D@2@@std@@VloggerImpl@ctk@@@std@@@2@$0A@@std@@@std@@QAE?AViterator@12@Vconst_iterator@12@@Z 10026aa0 f i log_factory.obj
 0001:00026280       ?clear@?$_Tree@V?$_Tmap_traits@V?$basic_string@DU?$char_traits@D@std@@V?$allocator@D@2@@std@@VloggerImpl@ctk@@U?$less@V?$basic_string@DU?$char_traits@D@std@@V?$allocator@D@2@@std@@@2@V?$allocator@U?$pair@$$CBV?$basic_string@DU?$char_traits@D@std@@V?$allocator@D@2@@std@@VloggerImpl@ctk@@@std@@@2@$0A@@std@@@std@@QAEXXZ 10027280 f i log_factory.obj
 0001:000262e0       ?_Init@?$_Tree@V?$_Tmap_traits@V?$basic_string@DU?$char_traits@D@std@@V?$allocator@D@2@@std@@VloggerImpl@ctk@@U?$less@V?$basic_string@DU?$char_traits@D@std@@V?$allocator@D@2@@std@@@2@V?$allocator@U?$pair@$$CBV?$basic_string@DU?$char_traits@D@std@@V?$allocator@D@2@@std@@VloggerImpl@ctk@@@std@@@2@$0A@@std@@@std@@IAEXXZ 100272e0 f i log_factory.obj
 0001:00026350       ??0?$_Tree_val@V?$_Tmap_traits@V?$basic_string@DU?$char_traits@D@std@@V?$allocator@D@2@@std@@VloggerImpl@ctk@@U?$less@V?$basic_string@DU?$char_traits@D@std@@V?$allocator@D@2@@std@@@2@V?$allocator@U?$pair@$$CBV?$basic_string@DU?$char_traits@D@std@@V?$allocator@D@2@@std@@VloggerImpl@ctk@@@std@@@2@$0A@@std@@@std@@IAE@ABU?$less@V?$basic_string@DU?$char_traits@D@std@@V?$allocator@D@2@@std@@@1@V?$allocator@U?$pair@$$CBV?$basic_string@DU?$char_traits@D@std@@V?$allocator@D@2@@std@@VloggerImpl@ctk@@@std@@@1@@Z 10027350 f i log_factory.obj
 0001:000263d0       ??0?$allocator@U?$pair@$$CBV?$basic_string@DU?$char_traits@D@std@@V?$allocator@D@2@@std@@VloggerImpl@ctk@@@std@@@std@@QAE@ABV01@@Z 100273d0 f i log_factory.obj
 0001:000263e0       ??Econst_iterator@?$_Tree@V?$_Tmap_traits@V?$basic_string@DU?$char_traits@D@std@@V?$allocator@D@2@@std@@VloggerImpl@ctk@@U?$less@V?$basic_string@DU?$char_traits@D@std@@V?$allocator@D@2@@std@@@2@V?$allocator@U?$pair@$$CBV?$basic_string@DU?$char_traits@D@std@@V?$allocator@D@2@@std@@VloggerImpl@ctk@@@std@@@2@$0A@@std@@@std@@QAE?AV012@H@Z 100273e0 f i log_factory.obj
 0001:00026420       ??9const_iterator@?$_Tree@V?$_Tmap_traits@V?$basic_string@DU?$char_traits@D@std@@V?$allocator@D@2@@std@@VloggerImpl@ctk@@U?$less@V?$basic_string@DU?$char_traits@D@std@@V?$allocator@D@2@@std@@@2@V?$allocator@U?$pair@$$CBV?$basic_string@DU?$char_traits@D@std@@V?$allocator@D@2@@std@@VloggerImpl@ctk@@@std@@@2@$0A@@std@@@std@@QBE_NABV012@@Z 10027420 f i log_factory.obj
 0001:00026450       ?_Erase@?$_Tree@V?$_Tmap_traits@V?$basic_string@DU?$char_traits@D@std@@V?$allocator@D@2@@std@@VloggerImpl@ctk@@U?$less@V?$basic_string@DU?$char_traits@D@std@@V?$allocator@D@2@@std@@@2@V?$allocator@U?$pair@$$CBV?$basic_string@DU?$char_traits@D@std@@V?$allocator@D@2@@std@@VloggerImpl@ctk@@@std@@@2@$0A@@std@@@std@@IAEXPAU_Node@?$_Tree_nod@V?$_Tmap_traits@V?$basic_string@DU?$char_traits@D@std@@V?$allocator@D@2@@std@@VloggerImpl@ctk@@U?$less@V?$basic_string@DU?$char_traits@D@std@@V?$allocator@D@2@@std@@@2@V?$allocator@U?$pair@$$CBV?$basic_string@DU?$char_traits@D@std@@V?$allocator@D@2@@std@@VloggerImpl@ctk@@@std@@@2@$0A@@std@@@2@@Z 10027450 f i log_factory.obj
 0001:000264d0       ?_Buynode@?$_Tree@V?$_Tmap_traits@V?$basic_string@DU?$char_traits@D@std@@V?$allocator@D@2@@std@@VloggerImpl@ctk@@U?$less@V?$basic_string@DU?$char_traits@D@std@@V?$allocator@D@2@@std@@@2@V?$allocator@U?$pair@$$CBV?$basic_string@DU?$char_traits@D@std@@V?$allocator@D@2@@std@@VloggerImpl@ctk@@@std@@@2@$0A@@std@@@std@@IAEPAU_Node@?$_Tree_nod@V?$_Tmap_traits@V?$basic_string@DU?$char_traits@D@std@@V?$allocator@D@2@@std@@VloggerImpl@ctk@@U?$less@V?$basic_string@DU?$char_traits@D@std@@V?$allocator@D@2@@std@@@2@V?$allocator@U?$pair@$$CBV?$basic_string@DU?$char_traits@D@std@@V?$allocator@D@2@@std@@VloggerImpl@ctk@@@std@@@2@$0A@@std@@@2@XZ 100274d0 f i log_factory.obj
 0001:00026640       ??0?$_Tree_ptr@V?$_Tmap_traits@V?$basic_string@DU?$char_traits@D@std@@V?$allocator@D@2@@std@@VloggerImpl@ctk@@U?$less@V?$basic_string@DU?$char_traits@D@std@@V?$allocator@D@2@@std@@@2@V?$allocator@U?$pair@$$CBV?$basic_string@DU?$char_traits@D@std@@V?$allocator@D@2@@std@@VloggerImpl@ctk@@@std@@@2@$0A@@std@@@std@@IAE@ABU?$less@V?$basic_string@DU?$char_traits@D@std@@V?$allocator@D@2@@std@@@1@V?$allocator@U?$pair@$$CBV?$basic_string@DU?$char_traits@D@std@@V?$allocator@D@2@@std@@VloggerImpl@ctk@@@std@@@1@@Z 10027640 f i log_factory.obj
 0001:000266c0       ?destroy@?$allocator@U_Node@?$_Tree_nod@V?$_Tmap_traits@V?$basic_string@DU?$char_traits@D@std@@V?$allocator@D@2@@std@@VloggerImpl@ctk@@U?$less@V?$basic_string@DU?$char_traits@D@std@@V?$allocator@D@2@@std@@@2@V?$allocator@U?$pair@$$CBV?$basic_string@DU?$char_traits@D@std@@V?$allocator@D@2@@std@@VloggerImpl@ctk@@@std@@@2@$0A@@std@@@std@@@std@@QAEXPAU_Node@?$_Tree_nod@V?$_Tmap_traits@V?$basic_string@DU?$char_traits@D@std@@V?$allocator@D@2@@std@@VloggerImpl@ctk@@U?$less@V?$basic_string@DU?$char_traits@D@std@@V?$allocator@D@2@@std@@@2@V?$allocator@U?$pair@$$CBV?$basic_string@DU?$char_traits@D@std@@V?$allocator@D@2@@std@@VloggerImpl@ctk@@@std@@@2@$0A@@std@@@2@@Z 100276c0 f i log_factory.obj
 0001:000266e0       ??0?$_Tree_nod@V?$_Tmap_traits@V?$basic_string@DU?$char_traits@D@std@@V?$allocator@D@2@@std@@VloggerImpl@ctk@@U?$less@V?$basic_string@DU?$char_traits@D@std@@V?$allocator@D@2@@std@@@2@V?$allocator@U?$pair@$$CBV?$basic_string@DU?$char_traits@D@std@@V?$allocator@D@2@@std@@VloggerImpl@ctk@@@std@@@2@$0A@@std@@@std@@IAE@ABU?$less@V?$basic_string@DU?$char_traits@D@std@@V?$allocator@D@2@@std@@@1@V?$allocator@U?$pair@$$CBV?$basic_string@DU?$char_traits@D@std@@V?$allocator@D@2@@std@@VloggerImpl@ctk@@@std@@@1@@Z 100276e0 f i log_factory.obj
 0001:00026760       ?construct@?$allocator@PAU_Node@?$_Tree_nod@V?$_Tmap_traits@V?$basic_string@DU?$char_traits@D@std@@V?$allocator@D@2@@std@@VloggerImpl@ctk@@U?$less@V?$basic_string@DU?$char_traits@D@std@@V?$allocator@D@2@@std@@@2@V?$allocator@U?$pair@$$CBV?$basic_string@DU?$char_traits@D@std@@V?$allocator@D@2@@std@@VloggerImpl@ctk@@@std@@@2@$0A@@std@@@std@@@std@@QAEXPAPAU_Node@?$_Tree_nod@V?$_Tmap_traits@V?$basic_string@DU?$char_traits@D@std@@V?$allocator@D@2@@std@@VloggerImpl@ctk@@U?$less@V?$basic_string@DU?$char_traits@D@std@@V?$allocator@D@2@@std@@@2@V?$allocator@U?$pair@$$CBV?$basic_string@DU?$char_traits@D@std@@V?$allocator@D@2@@std@@VloggerImpl@ctk@@@std@@@2@$0A@@std@@@2@ABQAU342@@Z 10027760 f i log_factory.obj
 0001:00026780       ??0?$_Tmap_traits@V?$basic_string@DU?$char_traits@D@std@@V?$allocator@D@2@@std@@VloggerImpl@ctk@@U?$less@V?$basic_string@DU?$char_traits@D@std@@V?$allocator@D@2@@std@@@2@V?$allocator@U?$pair@$$CBV?$basic_string@DU?$char_traits@D@std@@V?$allocator@D@2@@std@@VloggerImpl@ctk@@@std@@@2@$0A@@std@@QAE@U?$less@V?$basic_string@DU?$char_traits@D@std@@V?$allocator@D@2@@std@@@1@V?$allocator@U?$pair@$$CBV?$basic_string@DU?$char_traits@D@std@@V?$allocator@D@2@@std@@VloggerImpl@ctk@@@std@@@1@@Z 10027780 f i log_factory.obj
 0001:000267f0       ??0?$_Container_base_aux_alloc_real@V?$allocator@U?$pair@$$CBV?$basic_string@DU?$char_traits@D@std@@V?$allocator@D@2@@std@@VloggerImpl@ctk@@@std@@@std@@@std@@IAE@V?$allocator@U?$pair@$$CBV?$basic_string@DU?$char_traits@D@std@@V?$allocator@D@2@@std@@VloggerImpl@ctk@@@std@@@1@@Z 100277f0 f i log_factory.obj
 0001:000268b0       ??$_Destroy@PAU_Node@?$_Tree_nod@V?$_Tmap_traits@V?$basic_string@DU?$char_traits@D@std@@V?$allocator@D@2@@std@@VloggerImpl@ctk@@U?$less@V?$basic_string@DU?$char_traits@D@std@@V?$allocator@D@2@@std@@@2@V?$allocator@U?$pair@$$CBV?$basic_string@DU?$char_traits@D@std@@V?$allocator@D@2@@std@@VloggerImpl@ctk@@@std@@@2@$0A@@std@@@std@@@std@@YAXPAPAU_Node@?$_Tree_nod@V?$_Tmap_traits@V?$basic_string@DU?$char_traits@D@std@@V?$allocator@D@2@@std@@VloggerImpl@ctk@@U?$less@V?$basic_string@DU?$char_traits@D@std@@V?$allocator@D@2@@std@@@2@V?$allocator@U?$pair@$$CBV?$basic_string@DU?$char_traits@D@std@@V?$allocator@D@2@@std@@VloggerImpl@ctk@@@std@@@2@$0A@@std@@@0@@Z 100278b0 f i log_factory.obj
 0001:000268c0       ??$?0U?$pair@$$CBV?$basic_string@DU?$char_traits@D@std@@V?$allocator@D@2@@std@@VloggerImpl@ctk@@@std@@@?$allocator@PAU_Node@?$_Tree_nod@V?$_Tmap_traits@V?$basic_string@DU?$char_traits@D@std@@V?$allocator@D@2@@std@@VloggerImpl@ctk@@U?$less@V?$basic_string@DU?$char_traits@D@std@@V?$allocator@D@2@@std@@@2@V?$allocator@U?$pair@$$CBV?$basic_string@DU?$char_traits@D@std@@V?$allocator@D@2@@std@@VloggerImpl@ctk@@@std@@@2@$0A@@std@@@std@@@std@@QAE@ABV?$allocator@U?$pair@$$CBV?$basic_string@DU?$char_traits@D@std@@V?$allocator@D@2@@std@@VloggerImpl@ctk@@@std@@@1@@Z 100278c0 f i log_factory.obj
 0001:000268d0       ??$_Destroy@U_Node@?$_Tree_nod@V?$_Tmap_traits@V?$basic_string@DU?$char_traits@D@std@@V?$allocator@D@2@@std@@VloggerImpl@ctk@@U?$less@V?$basic_string@DU?$char_traits@D@std@@V?$allocator@D@2@@std@@@2@V?$allocator@U?$pair@$$CBV?$basic_string@DU?$char_traits@D@std@@V?$allocator@D@2@@std@@VloggerImpl@ctk@@@std@@@2@$0A@@std@@@std@@@std@@YAXPAU_Node@?$_Tree_nod@V?$_Tmap_traits@V?$basic_string@DU?$char_traits@D@std@@V?$allocator@D@2@@std@@VloggerImpl@ctk@@U?$less@V?$basic_string@DU?$char_traits@D@std@@V?$allocator@D@2@@std@@@2@V?$allocator@U?$pair@$$CBV?$basic_string@DU?$char_traits@D@std@@V?$allocator@D@2@@std@@VloggerImpl@ctk@@@std@@@2@$0A@@std@@@0@@Z 100278d0 f i log_factory.obj
 0001:000268e0       ??$?0U?$pair@$$CBV?$basic_string@DU?$char_traits@D@std@@V?$allocator@D@2@@std@@VloggerImpl@ctk@@@std@@@?$allocator@U_Node@?$_Tree_nod@V?$_Tmap_traits@V?$basic_string@DU?$char_traits@D@std@@V?$allocator@D@2@@std@@VloggerImpl@ctk@@U?$less@V?$basic_string@DU?$char_traits@D@std@@V?$allocator@D@2@@std@@@2@V?$allocator@U?$pair@$$CBV?$basic_string@DU?$char_traits@D@std@@V?$allocator@D@2@@std@@VloggerImpl@ctk@@@std@@@2@$0A@@std@@@std@@@std@@QAE@ABV?$allocator@U?$pair@$$CBV?$basic_string@DU?$char_traits@D@std@@V?$allocator@D@2@@std@@VloggerImpl@ctk@@@std@@@1@@Z 100278e0 f i log_factory.obj
 0001:000268f0       ??$_Construct@PAU_Node@?$_Tree_nod@V?$_Tmap_traits@V?$basic_string@DU?$char_traits@D@std@@V?$allocator@D@2@@std@@VloggerImpl@ctk@@U?$less@V?$basic_string@DU?$char_traits@D@std@@V?$allocator@D@2@@std@@@2@V?$allocator@U?$pair@$$CBV?$basic_string@DU?$char_traits@D@std@@V?$allocator@D@2@@std@@VloggerImpl@ctk@@@std@@@2@$0A@@std@@@std@@PAU123@@std@@YAXPAPAU_Node@?$_Tree_nod@V?$_Tmap_traits@V?$basic_string@DU?$char_traits@D@std@@V?$allocator@D@2@@std@@VloggerImpl@ctk@@U?$less@V?$basic_string@DU?$char_traits@D@std@@V?$allocator@D@2@@std@@@2@V?$allocator@U?$pair@$$CBV?$basic_string@DU?$char_traits@D@std@@V?$allocator@D@2@@std@@VloggerImpl@ctk@@@std@@@2@$0A@@std@@@0@ABQAU120@@Z 100278f0 f i log_factory.obj
 0001:00026930       ??$?0U?$pair@$$CBV?$basic_string@DU?$char_traits@D@std@@V?$allocator@D@2@@std@@VloggerImpl@ctk@@@std@@@?$allocator@V_Aux_cont@std@@@std@@QAE@ABV?$allocator@U?$pair@$$CBV?$basic_string@DU?$char_traits@D@std@@V?$allocator@D@2@@std@@VloggerImpl@ctk@@@std@@@1@@Z 10027930 f i log_factory.obj
 0001:00026940       ??_G_Node@?$_Tree_nod@V?$_Tmap_traits@V?$basic_string@DU?$char_traits@D@std@@V?$allocator@D@2@@std@@VloggerImpl@ctk@@U?$less@V?$basic_string@DU?$char_traits@D@std@@V?$allocator@D@2@@std@@@2@V?$allocator@U?$pair@$$CBV?$basic_string@DU?$char_traits@D@std@@V?$allocator@D@2@@std@@VloggerImpl@ctk@@@std@@@2@$0A@@std@@@std@@QAEPAXI@Z 10027940 f i log_factory.obj
 0001:00026970       ??1_Node@?$_Tree_nod@V?$_Tmap_traits@V?$basic_string@DU?$char_traits@D@std@@V?$allocator@D@2@@std@@VloggerImpl@ctk@@U?$less@V?$basic_string@DU?$char_traits@D@std@@V?$allocator@D@2@@std@@@2@V?$allocator@U?$pair@$$CBV?$basic_string@DU?$char_traits@D@std@@V?$allocator@D@2@@std@@VloggerImpl@ctk@@@std@@@2@$0A@@std@@@std@@QAE@XZ 10027970 f i log_factory.obj
 0001:000269c0       ??$allocate_push_maybe@VLoggerFactoryImpl@ctk@@@ctk@@YAPAVLoggerFactoryImpl@0@PAV10@PBDI1@Z 100279c0 f i log_factory.obj
 0001:000269f0       ??0loggerImpl@ctk@@QAE@XZ  100279f0 f   log_logger.obj
 0001:00026be0       ??0loggerImpl@ctk@@QAE@ABV01@@Z 10027be0 f   log_logger.obj
 0001:00026d30       ??1loggerImpl@ctk@@QAE@XZ  10027d30 f   log_logger.obj
 0001:00026e50       ??4loggerImpl@ctk@@QAEAAV01@ABV01@@Z 10027e50 f   log_logger.obj
 0001:00026e70       ?set@loggerImpl@ctk@@AAEXABV12@@Z 10027e70 f   log_logger.obj
 0001:00026ee0       ?get@loggerImpl@ctk@@ABEXAAV12@@Z 10027ee0 f   log_logger.obj
 0001:00027140       ?init@loggerImpl@ctk@@QAEAAV12@ABV?$basic_string@DU?$char_traits@D@std@@V?$allocator@D@2@@std@@@Z 10028140 f   log_logger.obj
 0001:00027190       ?close@loggerImpl@ctk@@UAEXXZ 10028190 f   log_logger.obj
 0001:000271c0       ?start@loggerImpl@ctk@@UAEXXZ 100281c0 f   log_logger.obj
 0001:00027240       ?stop@loggerImpl@ctk@@UAEXXZ 10028240 f   log_logger.obj
 0001:00027260       ?updateDebugFilename@loggerImpl@ctk@@AAEXXZ 10028260 f   log_logger.obj
 0001:00027310       ?reload@loggerImpl@ctk@@UAEXXZ 10028310 f   log_logger.obj
 0001:00027370       ?reload@loggerImpl@ctk@@UAEXABUistr@2@@Z 10028370 f   log_logger.obj
 0001:000273d0       ?writeAndPrint@loggerImpl@ctk@@UAEXABUistr@2@@Z 100283d0 f   log_logger.obj
 0001:00027470       ?write@loggerImpl@ctk@@UAEXABUistr@2@@Z 10028470 f   log_logger.obj
 0001:000274a0       ?write@loggerImpl@ctk@@UAEXPBDK@Z 100284a0 f   log_logger.obj
 0001:000274e0       ?onTimer@loggerImpl@ctk@@QAE?AUOnTimerResult@2@PAX@Z 100284e0 f   log_logger.obj
 0001:00027620       ?flush@loggerImpl@ctk@@UAEXXZ 10028620 f   log_logger.obj
 0001:000276b0       ?setMaxNumofMsg@loggerImpl@ctk@@UAEXK@Z 100286b0 f   log_logger.obj
 0001:000276d0       ?setMaxCacheSize@loggerImpl@ctk@@UAEXK@Z 100286d0 f   log_logger.obj
 0001:000276f0       ?flush_i@loggerImpl@ctk@@AAEXXZ 100286f0 f   log_logger.obj
 0001:00027770       ?flushCache@loggerImpl@ctk@@CAXAAV?$list@VString@ctk@@V?$allocator@VString@ctk@@@std@@@std@@ABVString@2@@Z 10028770 f   log_logger.obj
 0001:00027890       ?writeFile@loggerImpl@ctk@@CAXAAV?$basic_ofstream@DU?$char_traits@D@std@@@std@@ABVString@2@ABUistr@2@@Z 10028890 f   log_logger.obj
 0001:000278d0       ?writeCache@loggerImpl@ctk@@AAEXABUistr@2@@Z 100288d0 f   log_logger.obj
 0001:000279f0       ?writeCacheDebug@loggerImpl@ctk@@AAEXABUistr@2@@Z 100289f0 f   log_logger.obj
 0001:00027b10       ?writeCallback@loggerImpl@ctk@@AAEXABUistr@2@@Z 10028b10 f   log_logger.obj
 0001:00027ba0       ?renameLargeFile@loggerImpl@ctk@@SAXABVString@2@KK@Z 10028ba0 f   log_logger.obj
 0001:00027c40       ?renameLargeFile@loggerImpl@ctk@@SAXAAV?$basic_ofstream@DU?$char_traits@D@std@@@std@@ABVString@2@KK@Z 10028c40 f   log_logger.obj
 0001:00027e90       ?infoOn@loggerImpl@ctk@@UAEX_N@Z 10028e90 f   log_logger.obj
 0001:00027eb0       ?infoOn@loggerImpl@ctk@@UBE_NXZ 10028eb0 f   log_logger.obj
 0001:00027ed0       ?debugOn@loggerImpl@ctk@@UAEX_N@Z 10028ed0 f   log_logger.obj
 0001:00027ef0       ?debugOn@loggerImpl@ctk@@UBE_NXZ 10028ef0 f   log_logger.obj
 0001:00027f10       ?traceOn@loggerImpl@ctk@@UAEX_N@Z 10028f10 f   log_logger.obj
 0001:00027fe0       ?traceOn@loggerImpl@ctk@@UBE_NXZ 10028fe0 f   log_logger.obj
 0001:00028020       ?dataLogOn@loggerImpl@ctk@@UBE_NXZ 10029020 f   log_logger.obj
 0001:00028060       ?debugLogOn@loggerImpl@ctk@@UBE_NXZ 10029060 f   log_logger.obj
 0001:000280a0       ?traceLogOn@loggerImpl@ctk@@UBE_NXZ 100290a0 f   log_logger.obj
 0001:000280e0       ?diagLogOn@loggerImpl@ctk@@UBE_NXZ 100290e0 f   log_logger.obj
 0001:00028120       ?cmdLogOn@loggerImpl@ctk@@UBE_NXZ 10029120 f   log_logger.obj
 0001:00028160       ?commLogOn@loggerImpl@ctk@@UBE_NXZ 10029160 f   log_logger.obj
 0001:000281a0       ?hbLogOn@loggerImpl@ctk@@UBE_NXZ 100291a0 f   log_logger.obj
 0001:000281e0       ?appLogOn@loggerImpl@ctk@@UAEX_N@Z 100291e0 f   log_logger.obj
 0001:00028200       ?appLogOn@loggerImpl@ctk@@UBE_NXZ 10029200 f   log_logger.obj
 0001:00028220       ?logOn@loggerImpl@ctk@@UAEXABVString@2@_N@Z 10029220 f   log_logger.obj
 0001:000282a0       ?logOn@loggerImpl@ctk@@UBE_NABVString@2@@Z 100292a0 f   log_logger.obj
 0001:00028380       ?logOff@loggerImpl@ctk@@UBE_NABVString@2@@Z 10029380 f   log_logger.obj
 0001:00028470       ?msgLogOn@loggerImpl@ctk@@UAEX_N@Z 10029470 f   log_logger.obj
 0001:00028490       ?msgLogOn@loggerImpl@ctk@@UBE_NXZ 10029490 f   log_logger.obj
 0001:000284d0       ?msgOn@loggerImpl@ctk@@UAEXABVString@2@_N@Z 100294d0 f   log_logger.obj
 0001:00028550       ?msgOn@loggerImpl@ctk@@UBE_NABVString@2@@Z 10029550 f   log_logger.obj
 0001:00028690       ?msgOff@loggerImpl@ctk@@UBE_NABVString@2@@Z 10029690 f   log_logger.obj
 0001:000287d0       ?useLogfile@loggerImpl@ctk@@UAEX_N@Z 100297d0 f   log_logger.obj
 0001:000287f0       ?useLogfile@loggerImpl@ctk@@UBE_NXZ 100297f0 f   log_logger.obj
 0001:00028810       ?filename@loggerImpl@ctk@@UAEXABUistr@2@@Z 10029810 f   log_logger.obj
 0001:000288a0       ?filename@loggerImpl@ctk@@UBE?AVString@2@XZ 100298a0 f   log_logger.obj
 0001:00028920       ?useDebugLogfile@loggerImpl@ctk@@UAEX_N@Z 10029920 f   log_logger.obj
 0001:00028940       ?useDebugLogfile@loggerImpl@ctk@@UBE_NXZ 10029940 f   log_logger.obj
 0001:00028960       ?debugFilename@loggerImpl@ctk@@UAEXABUistr@2@@Z 10029960 f   log_logger.obj
 0001:000289e0       ?debugFilename@loggerImpl@ctk@@UBE?AVString@2@XZ 100299e0 f   log_logger.obj
 0001:00028a60       ?consoleOn@loggerImpl@ctk@@UAEX_N@Z 10029a60 f   log_logger.obj
 0001:00028a80       ?consoleOn@loggerImpl@ctk@@UBE_NXZ 10029a80 f   log_logger.obj
 0001:00028aa0       ?mlcOn@loggerImpl@ctk@@UAEX_N@Z 10029aa0 f   log_logger.obj
 0001:00028ac0       ?mlcOn@loggerImpl@ctk@@UBE_NXZ 10029ac0 f   log_logger.obj
 0001:00028ae0       ?id@loggerImpl@ctk@@AAEXABV?$basic_string@DU?$char_traits@D@std@@V?$allocator@D@2@@std@@@Z 10029ae0 f   log_logger.obj
 0001:00028b60       ?id@loggerImpl@ctk@@UBE?AV?$basic_string@DU?$char_traits@D@std@@V?$allocator@D@2@@std@@XZ 10029b60 f   log_logger.obj
 0001:00028bf0       ?dump@loggerImpl@ctk@@UBEAAV?$basic_ostream@DU?$char_traits@D@std@@@std@@AAV34@@Z 10029bf0 f   log_logger.obj
 0001:00028d60       ?codec@loggerImpl@ctk@@UAEXAAVstream@pml@2@@Z 10029d60 f   log_logger.obj
 0001:000293c0       ?dump@loggerImpl@ctk@@UBEAAVdumper@2@AAV32@@Z 1002a3c0 f   log_logger.obj
 0001:0002a100       ??0FlushLogThread@loggerImpl@ctk@@QAE@PAV12@ABUistr@2@@Z 1002b100 f   log_logger.obj
 0001:0002a180       ?onWait@FlushLogThread@loggerImpl@ctk@@UAE_NXZ 1002b180 f   log_logger.obj
 0001:0002a1b0       ?onWork@FlushLogThread@loggerImpl@ctk@@UAEXXZ 1002b1b0 f   log_logger.obj
 0001:0002a1e0       ??1?$map@VString@ctk@@VBit@2@U?$less@VString@ctk@@@std@@V?$allocator@U?$pair@$$CBVString@ctk@@VBit@2@@std@@@5@@std@@QAE@XZ 1002b1e0 f i log_logger.obj
 0001:0002a230       ??4?$map@VString@ctk@@VBit@2@U?$less@VString@ctk@@@std@@V?$allocator@U?$pair@$$CBVString@ctk@@VBit@2@@std@@@5@@std@@QAEAAV01@ABV01@@Z 1002b230 f i log_logger.obj
 0001:0002a250       ??_GFlushLogThread@loggerImpl@ctk@@UAEPAXI@Z 1002b250 f i log_logger.obj
 0001:0002a250       ??_EFlushLogThread@loggerImpl@ctk@@UAEPAXI@Z 1002b250 f i log_logger.obj
 0001:0002a280       ??1FlushLogThread@loggerImpl@ctk@@UAE@XZ 1002b280 f i log_logger.obj
 0001:0002a2e0       ??9?$fpos@H@std@@QBE_NABV01@@Z 1002b2e0 f i log_logger.obj
 0001:0002a310       ??0?$Pointer@VloggerImpl@ctk@@@ctk@@QAE@PAVloggerImpl@1@@Z 1002b310 f i log_logger.obj
 0001:0002a330       ??1?$Pointer@VloggerImpl@ctk@@@ctk@@QAE@XZ 1002b330 f i log_logger.obj
 0001:0002a340       ??C?$Pointer@VloggerImpl@ctk@@@ctk@@QBEPAVloggerImpl@1@XZ 1002b340 f i log_logger.obj
 0001:0002a360       ??0?$map@VString@ctk@@VBit@2@U?$less@VString@ctk@@@std@@V?$allocator@U?$pair@$$CBVString@ctk@@VBit@2@@std@@@5@@std@@QAE@XZ 1002b360 f i log_logger.obj
 0001:0002a3c0       ??A?$map@VString@ctk@@VBit@2@U?$less@VString@ctk@@@std@@V?$allocator@U?$pair@$$CBVString@ctk@@VBit@2@@std@@@5@@std@@QAEAAVBit@ctk@@ABVString@3@@Z 1002b3c0 f i log_logger.obj
 0001:0002a4c0       ??1?$_Tree@V?$_Tmap_traits@VString@ctk@@VBit@2@U?$less@VString@ctk@@@std@@V?$allocator@U?$pair@$$CBVString@ctk@@VBit@2@@std@@@5@$0A@@std@@@std@@QAE@XZ 1002b4c0 f i log_logger.obj
 0001:0002a520       ??4?$_Tree@V?$_Tmap_traits@VString@ctk@@VBit@2@U?$less@VString@ctk@@@std@@V?$allocator@U?$pair@$$CBVString@ctk@@VBit@2@@std@@@5@$0A@@std@@@std@@QAEAAV01@ABV01@@Z 1002b520 f i log_logger.obj
 0001:0002a590       ?end@?$_Tree@V?$_Tmap_traits@VString@ctk@@VBit@2@U?$less@VString@ctk@@@std@@V?$allocator@U?$pair@$$CBVString@ctk@@VBit@2@@std@@@5@$0A@@std@@@std@@QBE?AVconst_iterator@12@XZ 1002b590 f i log_logger.obj
 0001:0002a5c0       ?find@?$_Tree@V?$_Tmap_traits@VString@ctk@@VBit@2@U?$less@VString@ctk@@@std@@V?$allocator@U?$pair@$$CBVString@ctk@@VBit@2@@std@@@5@$0A@@std@@@std@@QBE?AVconst_iterator@12@ABVString@ctk@@@Z 1002b5c0 f i log_logger.obj
 0001:0002a660       ??0?$list@VString@ctk@@V?$allocator@VString@ctk@@@std@@@std@@QAE@XZ 1002b660 f i log_logger.obj
 0001:0002a6e0       ??1?$list@VString@ctk@@V?$allocator@VString@ctk@@@std@@@std@@QAE@XZ 1002b6e0 f i log_logger.obj
 0001:0002a740       ??4?$list@VString@ctk@@V?$allocator@VString@ctk@@@std@@@std@@QAEAAV01@ABV01@@Z 1002b740 f i log_logger.obj
 0001:0002a790       ?begin@?$list@VString@ctk@@V?$allocator@VString@ctk@@@std@@@std@@QAE?AV?$_Iterator@$00@12@XZ 1002b790 f i log_logger.obj
 0001:0002a7c0       ?end@?$list@VString@ctk@@V?$allocator@VString@ctk@@@std@@@std@@QAE?AV?$_Iterator@$00@12@XZ 1002b7c0 f i log_logger.obj
 0001:0002a7f0       ?size@?$list@VString@ctk@@V?$allocator@VString@ctk@@@std@@@std@@QBEIXZ 1002b7f0 f i log_logger.obj
 0001:0002a810       ?empty@?$list@VString@ctk@@V?$allocator@VString@ctk@@@std@@@std@@QBE_NXZ 1002b810 f i log_logger.obj
 0001:0002a830       ?push_back@?$list@VString@ctk@@V?$allocator@VString@ctk@@@std@@@std@@QAEXABVString@ctk@@@Z 1002b830 f i log_logger.obj
 0001:0002a870       ?swap@?$list@VString@ctk@@V?$allocator@VString@ctk@@@std@@@std@@QAEXAAV12@@Z 1002b870 f i log_logger.obj
 0001:0002a980       ??0?$Pointer@VLoggerCallback@ctk@@@ctk@@QAE@PAVLoggerCallback@1@@Z 1002b980 f i log_logger.obj
 0001:0002a9a0       ??1?$Pointer@VLoggerCallback@ctk@@@ctk@@QAE@XZ 1002b9a0 f i log_logger.obj
 0001:0002a9b0       ??4?$Pointer@VLoggerCallback@ctk@@@ctk@@QAEAAU01@ABU01@@Z 1002b9b0 f i log_logger.obj
 0001:0002a9d0       ?get@?$Pointer@VLoggerCallback@ctk@@@ctk@@QBEPAVLoggerCallback@2@XZ 1002b9d0 f i log_logger.obj
 0001:0002a9e0       ??0?$Handle@VFlushLogThread@loggerImpl@ctk@@@ctk@@QAE@PAVFlushLogThread@loggerImpl@1@@Z 1002b9e0 f i log_logger.obj
 0001:0002aa10       ??0?$Handle@VFlushLogThread@loggerImpl@ctk@@@ctk@@QAE@ABV01@@Z 1002ba10 f i log_logger.obj
 0001:0002aa40       ??1?$Handle@VFlushLogThread@loggerImpl@ctk@@@ctk@@QAE@XZ 1002ba40 f i log_logger.obj
 0001:0002aa60       ??4?$Handle@VFlushLogThread@loggerImpl@ctk@@@ctk@@QAEAAV01@PAVFlushLogThread@loggerImpl@1@@Z 1002ba60 f i log_logger.obj
 0001:0002aab0       ??C?$SmartPtrBase@VFlushLogThread@loggerImpl@ctk@@@ctk@@QBEPAVFlushLogThread@loggerImpl@1@XZ 1002bab0 f i log_logger.obj
 0001:0002ab00       ??B?$SmartPtrBase@VFlushLogThread@loggerImpl@ctk@@@ctk@@QBEPAXXZ 1002bb00 f i log_logger.obj
 0001:0002ab10       ??7?$SmartPtrBase@VFlushLogThread@loggerImpl@ctk@@@ctk@@QBE_NXZ 1002bb10 f i log_logger.obj
 0001:0002ab30       ??D?$_Const_iterator@$00@?$list@VString@ctk@@V?$allocator@VString@ctk@@@std@@@std@@QBEABVString@ctk@@XZ 1002bb30 f i log_logger.obj
 0001:0002aba0       ??E?$_Const_iterator@$00@?$list@VString@ctk@@V?$allocator@VString@ctk@@@std@@@std@@QAEAAV012@XZ 1002bba0 f i log_logger.obj
 0001:0002ac10       ??9?$_Const_iterator@$00@?$list@VString@ctk@@V?$allocator@VString@ctk@@@std@@@std@@QBE_NABV012@@Z 1002bc10 f i log_logger.obj
 0001:0002ac40       ??Dconst_iterator@?$_Tree@V?$_Tmap_traits@VString@ctk@@VBit@2@U?$less@VString@ctk@@@std@@V?$allocator@U?$pair@$$CBVString@ctk@@VBit@2@@std@@@5@$0A@@std@@@std@@QBEABU?$pair@$$CBVString@ctk@@VBit@2@@2@XZ 1002bc40 f i log_logger.obj
 0001:0002ac90       ??8const_iterator@?$_Tree@V?$_Tmap_traits@VString@ctk@@VBit@2@U?$less@VString@ctk@@@std@@V?$allocator@U?$pair@$$CBVString@ctk@@VBit@2@@std@@@5@$0A@@std@@@std@@QBE_NABV012@@Z 1002bc90 f i log_logger.obj
 0001:0002ace0       ??1?$pair@$$CBVString@ctk@@VBit@2@@std@@QAE@XZ 1002bce0 f i log_logger.obj
 0001:0002ad30       ??1?$_Tree_val@V?$_Tmap_traits@VString@ctk@@VBit@2@U?$less@VString@ctk@@@std@@V?$allocator@U?$pair@$$CBVString@ctk@@VBit@2@@std@@@5@$0A@@std@@@std@@QAE@XZ 1002bd30 f i log_logger.obj
 0001:0002ad80       ??1?$_List_val@VString@ctk@@V?$allocator@VString@ctk@@@std@@@std@@QAE@XZ 1002bd80 f i log_logger.obj
 0001:0002add0       ??1?$_Tree_ptr@V?$_Tmap_traits@VString@ctk@@VBit@2@U?$less@VString@ctk@@@std@@V?$allocator@U?$pair@$$CBVString@ctk@@VBit@2@@std@@@5@$0A@@std@@@std@@QAE@XZ 1002bdd0 f i log_logger.obj
 0001:0002ae20       ??1?$_List_ptr@VString@ctk@@V?$allocator@VString@ctk@@@std@@@std@@QAE@XZ 1002be20 f i log_logger.obj
 0001:0002ae70       ??1?$_Tree_nod@V?$_Tmap_traits@VString@ctk@@VBit@2@U?$less@VString@ctk@@@std@@V?$allocator@U?$pair@$$CBVString@ctk@@VBit@2@@std@@@5@$0A@@std@@@std@@QAE@XZ 1002be70 f i log_logger.obj
 0001:0002aec0       ??1?$_List_nod@VString@ctk@@V?$allocator@VString@ctk@@@std@@@std@@QAE@XZ 1002bec0 f i log_logger.obj
 0001:0002af10       ??1?$_Tmap_traits@VString@ctk@@VBit@2@U?$less@VString@ctk@@@std@@V?$allocator@U?$pair@$$CBVString@ctk@@VBit@2@@std@@@5@$0A@@std@@QAE@XZ 1002bf10 f i log_logger.obj
 0001:0002af60       ??8?$fpos@H@std@@QBE_NABV01@@Z 1002bf60 f i log_logger.obj
 0001:0002af90       ?get@?$Pointer@VloggerImpl@ctk@@@ctk@@QBEPAVloggerImpl@2@XZ 1002bf90 f i log_logger.obj
 0001:0002afa0       ?_Key@?$_Tree@V?$_Tmap_traits@VString@ctk@@VBit@2@U?$less@VString@ctk@@@std@@V?$allocator@U?$pair@$$CBVString@ctk@@VBit@2@@std@@@5@$0A@@std@@@std@@KAABVString@ctk@@PAU_Node@?$_Tree_nod@V?$_Tmap_traits@VString@ctk@@VBit@2@U?$less@VString@ctk@@@std@@V?$allocator@U?$pair@$$CBVString@ctk@@VBit@2@@std@@@5@$0A@@std@@@2@@Z 1002bfa0 f i log_logger.obj
 0001:0002afc0       ?_Myval@?$_Tree@V?$_Tmap_traits@VString@ctk@@VBit@2@U?$less@VString@ctk@@@std@@V?$allocator@U?$pair@$$CBVString@ctk@@VBit@2@@std@@@5@$0A@@std@@@std@@KAAAU?$pair@$$CBVString@ctk@@VBit@2@@2@PAU_Node@?$_Tree_nod@V?$_Tmap_traits@VString@ctk@@VBit@2@U?$less@VString@ctk@@@std@@V?$allocator@U?$pair@$$CBVString@ctk@@VBit@2@@std@@@5@$0A@@std@@@2@@Z 1002bfc0 f i log_logger.obj
 0001:0002afd0       ??0?$_Tree@V?$_Tmap_traits@VString@ctk@@VBit@2@U?$less@VString@ctk@@@std@@V?$allocator@U?$pair@$$CBVString@ctk@@VBit@2@@std@@@5@$0A@@std@@@std@@QAE@ABU?$less@VString@ctk@@@1@ABV?$allocator@U?$pair@$$CBVString@ctk@@VBit@2@@std@@@1@@Z 1002bfd0 f i log_logger.obj
 0001:0002b040       ?begin@?$_Tree@V?$_Tmap_traits@VString@ctk@@VBit@2@U?$less@VString@ctk@@@std@@V?$allocator@U?$pair@$$CBVString@ctk@@VBit@2@@std@@@5@$0A@@std@@@std@@QAE?AViterator@12@XZ 1002c040 f i log_logger.obj
 0001:0002b070       ?end@?$_Tree@V?$_Tmap_traits@VString@ctk@@VBit@2@U?$less@VString@ctk@@@std@@V?$allocator@U?$pair@$$CBVString@ctk@@VBit@2@@std@@@5@$0A@@std@@@std@@QAE?AViterator@12@XZ 1002c070 f i log_logger.obj
 0001:0002b0a0       ?insert@?$_Tree@V?$_Tmap_traits@VString@ctk@@VBit@2@U?$less@VString@ctk@@@std@@V?$allocator@U?$pair@$$CBVString@ctk@@VBit@2@@std@@@5@$0A@@std@@@std@@QAE?AViterator@12@Vconst_iterator@12@ABU?$pair@$$CBVString@ctk@@VBit@2@@2@@Z 1002c0a0 f i log_logger.obj
 0001:0002b6c0       ?erase@?$_Tree@V?$_Tmap_traits@VString@ctk@@VBit@2@U?$less@VString@ctk@@@std@@V?$allocator@U?$pair@$$CBVString@ctk@@VBit@2@@std@@@5@$0A@@std@@@std@@QAE?AViterator@12@Vconst_iterator@12@0@Z 1002c6c0 f i log_logger.obj
 0001:0002b770       ?lower_bound@?$_Tree@V?$_Tmap_traits@VString@ctk@@VBit@2@U?$less@VString@ctk@@@std@@V?$allocator@U?$pair@$$CBVString@ctk@@VBit@2@@std@@@5@$0A@@std@@@std@@QAE?AViterator@12@ABVString@ctk@@@Z 1002c770 f i log_logger.obj
 0001:0002b7a0       ?lower_bound@?$_Tree@V?$_Tmap_traits@VString@ctk@@VBit@2@U?$less@VString@ctk@@@std@@V?$allocator@U?$pair@$$CBVString@ctk@@VBit@2@@std@@@5@$0A@@std@@@std@@QBE?AVconst_iterator@12@ABVString@ctk@@@Z 1002c7a0 f i log_logger.obj
 0001:0002b7d0       ?_Copy@?$_Tree@V?$_Tmap_traits@VString@ctk@@VBit@2@U?$less@VString@ctk@@@std@@V?$allocator@U?$pair@$$CBVString@ctk@@VBit@2@@std@@@5@$0A@@std@@@std@@IAEXABV12@@Z 1002c7d0 f i log_logger.obj
 0001:0002b890       ?_Tidy@?$_Tree@V?$_Tmap_traits@VString@ctk@@VBit@2@U?$less@VString@ctk@@@std@@V?$allocator@U?$pair@$$CBVString@ctk@@VBit@2@@std@@@5@$0A@@std@@@std@@IAEXXZ 1002c890 f i log_logger.obj
 0001:0002b960       ??1?$_Container_base_aux_alloc_real@V?$allocator@U?$pair@$$CBVString@ctk@@VBit@2@@std@@@std@@@std@@IAE@XZ 1002c960 f i log_logger.obj
 0001:0002b9c0       ??0?$allocator@U?$pair@$$CBVString@ctk@@VBit@2@@std@@@std@@QAE@XZ 1002c9c0 f i log_logger.obj
 0001:0002b9d0       ??R?$less@VString@ctk@@@std@@QBE_NABVString@ctk@@0@Z 1002c9d0 f i log_logger.obj
 0001:0002b9f0       ??0?$allocator@VString@ctk@@@std@@QAE@XZ 1002c9f0 f i log_logger.obj
 0001:0002ba00       ?_Nextnode@?$list@VString@ctk@@V?$allocator@VString@ctk@@@std@@@std@@KAAAPAU_Node@?$_List_nod@VString@ctk@@V?$allocator@VString@ctk@@@std@@@2@PAU342@@Z 1002ca00 f i log_logger.obj
 0001:0002ba10       ?_Myval@?$list@VString@ctk@@V?$allocator@VString@ctk@@@std@@@std@@KAAAVString@ctk@@PAU_Node@?$_List_nod@VString@ctk@@V?$allocator@VString@ctk@@@std@@@2@@Z 1002ca10 f i log_logger.obj
 0001:0002ba20       ?begin@?$list@VString@ctk@@V?$allocator@VString@ctk@@@std@@@std@@QBE?AV?$_Const_iterator@$00@12@XZ 1002ca20 f i log_logger.obj
 0001:0002ba50       ?end@?$list@VString@ctk@@V?$allocator@VString@ctk@@@std@@@std@@QBE?AV?$_Const_iterator@$00@12@XZ 1002ca50 f i log_logger.obj
 0001:0002ba80       ?_Insert@?$list@VString@ctk@@V?$allocator@VString@ctk@@@std@@@std@@QAEXV?$_Const_iterator@$00@12@ABVString@ctk@@@Z 1002ca80 f i log_logger.obj
 0001:0002bb00       ?splice@?$list@VString@ctk@@V?$allocator@VString@ctk@@@std@@@std@@QAEXV?$_Const_iterator@$00@12@AAV12@@Z 1002cb00 f i log_logger.obj
 0001:0002bb90       ?splice@?$list@VString@ctk@@V?$allocator@VString@ctk@@@std@@@std@@QAEXV?$_Const_iterator@$00@12@AAV12@00@Z 1002cb90 f i log_logger.obj
 0001:0002bd40       ?_Buynode@?$list@VString@ctk@@V?$allocator@VString@ctk@@@std@@@std@@IAEPAU_Node@?$_List_nod@VString@ctk@@V?$allocator@VString@ctk@@@std@@@2@XZ 1002cd40 f i log_logger.obj
 0001:0002be40       ?_Tidy@?$list@VString@ctk@@V?$allocator@VString@ctk@@@std@@@std@@IAEXXZ 1002ce40 f i log_logger.obj
 0001:0002beb0       ??0?$_List_val@VString@ctk@@V?$allocator@VString@ctk@@@std@@@std@@QAE@V?$allocator@VString@ctk@@@1@@Z 1002ceb0 f i log_logger.obj
 0001:0002bf20       ??1?$_Container_base_aux_alloc_real@V?$allocator@VString@ctk@@@std@@@std@@IAE@XZ 1002cf20 f i log_logger.obj
 0001:0002bf80       ?set@?$Pointer@VLoggerCallback@ctk@@@ctk@@QAEAAU12@PAVLoggerCallback@2@@Z 1002cf80 f i log_logger.obj
 0001:0002bfa0       ??8?$_Const_iterator@$00@?$list@VString@ctk@@V?$allocator@VString@ctk@@@std@@@std@@QBE_NABV012@@Z 1002cfa0 f i log_logger.obj
 0001:0002c000       ??0?$_Iterator@$00@?$list@VString@ctk@@V?$allocator@VString@ctk@@@std@@@std@@QAE@PAU_Node@?$_List_nod@VString@ctk@@V?$allocator@VString@ctk@@@std@@@2@PBV12@@Z 1002d000 f i log_logger.obj
 0001:0002c020       ??0const_iterator@?$_Tree@V?$_Tmap_traits@VString@ctk@@VBit@2@U?$less@VString@ctk@@@std@@V?$allocator@U?$pair@$$CBVString@ctk@@VBit@2@@std@@@5@$0A@@std@@@std@@QAE@PAU_Node@?$_Tree_nod@V?$_Tmap_traits@VString@ctk@@VBit@2@U?$less@VString@ctk@@@std@@V?$allocator@U?$pair@$$CBVString@ctk@@VBit@2@@std@@@5@$0A@@std@@@2@PBV12@@Z 1002d020 f i log_logger.obj
 0001:0002c060       ?_Mynode@const_iterator@?$_Tree@V?$_Tmap_traits@VString@ctk@@VBit@2@U?$less@VString@ctk@@@std@@V?$allocator@U?$pair@$$CBVString@ctk@@VBit@2@@std@@@5@$0A@@std@@@std@@QBEPAU_Node@?$_Tree_nod@V?$_Tmap_traits@VString@ctk@@VBit@2@U?$less@VString@ctk@@@std@@V?$allocator@U?$pair@$$CBVString@ctk@@VBit@2@@std@@@5@$0A@@std@@@3@XZ 1002d060 f i log_logger.obj
 0001:0002c080       ??0?$pair@$$CBVString@ctk@@VBit@2@@std@@QAE@ABVString@ctk@@ABVBit@3@@Z 1002d080 f i log_logger.obj
 0001:0002c0e0       ??Diterator@?$_Tree@V?$_Tmap_traits@VString@ctk@@VBit@2@U?$less@VString@ctk@@@std@@V?$allocator@U?$pair@$$CBVString@ctk@@VBit@2@@std@@@5@$0A@@std@@@std@@QBEAAU?$pair@$$CBVString@ctk@@VBit@2@@2@XZ 1002d0e0 f i log_logger.obj
 0001:0002c100       ??0?$_Bidit@U?$pair@$$CBVString@ctk@@VBit@2@@std@@HPBU12@ABU12@@std@@QAE@XZ 1002d100 f i log_logger.obj
 0001:0002c120       ??0?$_Iterator_with_base@Ubidirectional_iterator_tag@std@@U?$pair@$$CBVString@ctk@@VBit@2@@2@HPBU32@ABU32@V_Iterator_base_aux@2@@std@@QAE@XZ 1002d120 f i log_logger.obj
 0001:0002c140       ?_Isnil@?$_Tree@V?$_Tmap_traits@VString@ctk@@VBit@2@U?$less@VString@ctk@@@std@@V?$allocator@U?$pair@$$CBVString@ctk@@VBit@2@@std@@@5@$0A@@std@@@std@@KAAADPAU_Node@?$_Tree_nod@V?$_Tmap_traits@VString@ctk@@VBit@2@U?$less@VString@ctk@@@std@@V?$allocator@U?$pair@$$CBVString@ctk@@VBit@2@@std@@@5@$0A@@std@@@2@@Z 1002d140 f i log_logger.obj
 0001:0002c150       ?_Left@?$_Tree@V?$_Tmap_traits@VString@ctk@@VBit@2@U?$less@VString@ctk@@@std@@V?$allocator@U?$pair@$$CBVString@ctk@@VBit@2@@std@@@5@$0A@@std@@@std@@KAAAPAU_Node@?$_Tree_nod@V?$_Tmap_traits@VString@ctk@@VBit@2@U?$less@VString@ctk@@@std@@V?$allocator@U?$pair@$$CBVString@ctk@@VBit@2@@std@@@5@$0A@@std@@@2@PAU342@@Z 1002d150 f i log_logger.obj
 0001:0002c160       ?_Parent@?$_Tree@V?$_Tmap_traits@VString@ctk@@VBit@2@U?$less@VString@ctk@@@std@@V?$allocator@U?$pair@$$CBVString@ctk@@VBit@2@@std@@@5@$0A@@std@@@std@@KAAAPAU_Node@?$_Tree_nod@V?$_Tmap_traits@VString@ctk@@VBit@2@U?$less@VString@ctk@@@std@@V?$allocator@U?$pair@$$CBVString@ctk@@VBit@2@@std@@@5@$0A@@std@@@2@PAU342@@Z 1002d160 f i log_logger.obj
 0001:0002c170       ?_Right@?$_Tree@V?$_Tmap_traits@VString@ctk@@VBit@2@U?$less@VString@ctk@@@std@@V?$allocator@U?$pair@$$CBVString@ctk@@VBit@2@@std@@@5@$0A@@std@@@std@@KAAAPAU_Node@?$_Tree_nod@V?$_Tmap_traits@VString@ctk@@VBit@2@U?$less@VString@ctk@@@std@@V?$allocator@U?$pair@$$CBVString@ctk@@VBit@2@@std@@@5@$0A@@std@@@2@PAU342@@Z 1002d170 f i log_logger.obj
 0001:0002c180       ?_Make_iter@?$_Tree@V?$_Tmap_traits@VString@ctk@@VBit@2@U?$less@VString@ctk@@@std@@V?$allocator@U?$pair@$$CBVString@ctk@@VBit@2@@std@@@5@$0A@@std@@@std@@QBE?AViterator@12@Vconst_iterator@12@@Z 1002d180 f i log_logger.obj
 0001:0002c1b0       ?size@?$_Tree@V?$_Tmap_traits@VString@ctk@@VBit@2@U?$less@VString@ctk@@@std@@V?$allocator@U?$pair@$$CBVString@ctk@@VBit@2@@std@@@5@$0A@@std@@@std@@QBEIXZ 1002d1b0 f i log_logger.obj
 0001:0002c1d0       ?insert@?$_Tree@V?$_Tmap_traits@VString@ctk@@VBit@2@U?$less@VString@ctk@@@std@@V?$allocator@U?$pair@$$CBVString@ctk@@VBit@2@@std@@@5@$0A@@std@@@std@@QAE?AU?$pair@Viterator@?$_Tree@V?$_Tmap_traits@VString@ctk@@VBit@2@U?$less@VString@ctk@@@std@@V?$allocator@U?$pair@$$CBVString@ctk@@VBit@2@@std@@@5@$0A@@std@@@std@@_N@2@ABU?$pair@$$CBVString@ctk@@VBit@2@@2@@Z 1002d1d0 f i log_logger.obj
 0001:0002c3a0       ?erase@?$_Tree@V?$_Tmap_traits@VString@ctk@@VBit@2@U?$less@VString@ctk@@@std@@V?$allocator@U?$pair@$$CBVString@ctk@@VBit@2@@std@@@5@$0A@@std@@@std@@QAE?AViterator@12@Vconst_iterator@12@@Z 1002d3a0 f i log_logger.obj
 0001:0002cb80       ?clear@?$_Tree@V?$_Tmap_traits@VString@ctk@@VBit@2@U?$less@VString@ctk@@@std@@V?$allocator@U?$pair@$$CBVString@ctk@@VBit@2@@std@@@5@$0A@@std@@@std@@QAEXXZ 1002db80 f i log_logger.obj
 0001:0002cbe0       ?_Copy@?$_Tree@V?$_Tmap_traits@VString@ctk@@VBit@2@U?$less@VString@ctk@@@std@@V?$allocator@U?$pair@$$CBVString@ctk@@VBit@2@@std@@@5@$0A@@std@@@std@@IAEPAU_Node@?$_Tree_nod@V?$_Tmap_traits@VString@ctk@@VBit@2@U?$less@VString@ctk@@@std@@V?$allocator@U?$pair@$$CBVString@ctk@@VBit@2@@std@@@5@$0A@@std@@@2@PAU342@0@Z 1002dbe0 f i log_logger.obj
 0001:0002cd30       ?_Init@?$_Tree@V?$_Tmap_traits@VString@ctk@@VBit@2@U?$less@VString@ctk@@@std@@V?$allocator@U?$pair@$$CBVString@ctk@@VBit@2@@std@@@5@$0A@@std@@@std@@IAEXXZ 1002dd30 f i log_logger.obj
 0001:0002cda0       ?_Insert@?$_Tree@V?$_Tmap_traits@VString@ctk@@VBit@2@U?$less@VString@ctk@@@std@@V?$allocator@U?$pair@$$CBVString@ctk@@VBit@2@@std@@@5@$0A@@std@@@std@@IAE?AViterator@12@_NPAU_Node@?$_Tree_nod@V?$_Tmap_traits@VString@ctk@@VBit@2@U?$less@VString@ctk@@@std@@V?$allocator@U?$pair@$$CBVString@ctk@@VBit@2@@std@@@5@$0A@@std@@@2@ABU?$pair@$$CBVString@ctk@@VBit@2@@2@@Z 1002dda0 f i log_logger.obj
 0001:0002d220       ?_Lbound@?$_Tree@V?$_Tmap_traits@VString@ctk@@VBit@2@U?$less@VString@ctk@@@std@@V?$allocator@U?$pair@$$CBVString@ctk@@VBit@2@@std@@@5@$0A@@std@@@std@@IBEPAU_Node@?$_Tree_nod@V?$_Tmap_traits@VString@ctk@@VBit@2@U?$less@VString@ctk@@@std@@V?$allocator@U?$pair@$$CBVString@ctk@@VBit@2@@std@@@5@$0A@@std@@@2@ABVString@ctk@@@Z 1002e220 f i log_logger.obj
 0001:0002d2b0       ?_Lmost@?$_Tree@V?$_Tmap_traits@VString@ctk@@VBit@2@U?$less@VString@ctk@@@std@@V?$allocator@U?$pair@$$CBVString@ctk@@VBit@2@@std@@@5@$0A@@std@@@std@@IBEAAPAU_Node@?$_Tree_nod@V?$_Tmap_traits@VString@ctk@@VBit@2@U?$less@VString@ctk@@@std@@V?$allocator@U?$pair@$$CBVString@ctk@@VBit@2@@std@@@5@$0A@@std@@@2@XZ 1002e2b0 f i log_logger.obj
 0001:0002d2d0       ?_Max@?$_Tree@V?$_Tmap_traits@VString@ctk@@VBit@2@U?$less@VString@ctk@@@std@@V?$allocator@U?$pair@$$CBVString@ctk@@VBit@2@@std@@@5@$0A@@std@@@std@@KAPAU_Node@?$_Tree_nod@V?$_Tmap_traits@VString@ctk@@VBit@2@U?$less@VString@ctk@@@std@@V?$allocator@U?$pair@$$CBVString@ctk@@VBit@2@@std@@@5@$0A@@std@@@2@PAU342@@Z 1002e2d0 f i log_logger.obj
 0001:0002d310       ?_Min@?$_Tree@V?$_Tmap_traits@VString@ctk@@VBit@2@U?$less@VString@ctk@@@std@@V?$allocator@U?$pair@$$CBVString@ctk@@VBit@2@@std@@@5@$0A@@std@@@std@@KAPAU_Node@?$_Tree_nod@V?$_Tmap_traits@VString@ctk@@VBit@2@U?$less@VString@ctk@@@std@@V?$allocator@U?$pair@$$CBVString@ctk@@VBit@2@@std@@@5@$0A@@std@@@2@PAU342@@Z 1002e310 f i log_logger.obj
 0001:0002d350       ?_Rmost@?$_Tree@V?$_Tmap_traits@VString@ctk@@VBit@2@U?$less@VString@ctk@@@std@@V?$allocator@U?$pair@$$CBVString@ctk@@VBit@2@@std@@@5@$0A@@std@@@std@@IBEAAPAU_Node@?$_Tree_nod@V?$_Tmap_traits@VString@ctk@@VBit@2@U?$less@VString@ctk@@@std@@V?$allocator@U?$pair@$$CBVString@ctk@@VBit@2@@std@@@5@$0A@@std@@@2@XZ 1002e350 f i log_logger.obj
 0001:0002d370       ?_Root@?$_Tree@V?$_Tmap_traits@VString@ctk@@VBit@2@U?$less@VString@ctk@@@std@@V?$allocator@U?$pair@$$CBVString@ctk@@VBit@2@@std@@@5@$0A@@std@@@std@@IBEAAPAU_Node@?$_Tree_nod@V?$_Tmap_traits@VString@ctk@@VBit@2@U?$less@VString@ctk@@@std@@V?$allocator@U?$pair@$$CBVString@ctk@@VBit@2@@std@@@5@$0A@@std@@@2@XZ 1002e370 f i log_logger.obj
 0001:0002d390       ??0?$_Tree_val@V?$_Tmap_traits@VString@ctk@@VBit@2@U?$less@VString@ctk@@@std@@V?$allocator@U?$pair@$$CBVString@ctk@@VBit@2@@std@@@5@$0A@@std@@@std@@IAE@ABU?$less@VString@ctk@@@1@V?$allocator@U?$pair@$$CBVString@ctk@@VBit@2@@std@@@1@@Z 1002e390 f i log_logger.obj
 0001:0002d410       ?_Kfn@?$_Tmap_traits@VString@ctk@@VBit@2@U?$less@VString@ctk@@@std@@V?$allocator@U?$pair@$$CBVString@ctk@@VBit@2@@std@@@5@$0A@@std@@SAABVString@ctk@@ABU?$pair@$$CBVString@ctk@@VBit@2@@2@@Z 1002e410 f i log_logger.obj
 0001:0002d420       ??0?$allocator@U?$pair@$$CBVString@ctk@@VBit@2@@std@@@std@@QAE@ABV01@@Z 1002e420 f i log_logger.obj
 0001:0002d430       ?deallocate@?$allocator@U_Node@?$_Tree_nod@V?$_Tmap_traits@VString@ctk@@VBit@2@U?$less@VString@ctk@@@std@@V?$allocator@U?$pair@$$CBVString@ctk@@VBit@2@@std@@@5@$0A@@std@@@std@@@std@@QAEXPAU_Node@?$_Tree_nod@V?$_Tmap_traits@VString@ctk@@VBit@2@U?$less@VString@ctk@@@std@@V?$allocator@U?$pair@$$CBVString@ctk@@VBit@2@@std@@@5@$0A@@std@@@2@I@Z 1002e430 f i log_logger.obj
 0001:0002d450       ?destroy@?$allocator@PAU_Node@?$_Tree_nod@V?$_Tmap_traits@VString@ctk@@VBit@2@U?$less@VString@ctk@@@std@@V?$allocator@U?$pair@$$CBVString@ctk@@VBit@2@@std@@@5@$0A@@std@@@std@@@std@@QAEXPAPAU_Node@?$_Tree_nod@V?$_Tmap_traits@VString@ctk@@VBit@2@U?$less@VString@ctk@@@std@@V?$allocator@U?$pair@$$CBVString@ctk@@VBit@2@@std@@@5@$0A@@std@@@2@@Z 1002e450 f i log_logger.obj
 0001:0002d470       ??0?$allocator@VString@ctk@@@std@@QAE@ABV01@@Z 1002e470 f i log_logger.obj
 0001:0002d480       ?_Prevnode@?$list@VString@ctk@@V?$allocator@VString@ctk@@@std@@@std@@KAAAPAU_Node@?$_List_nod@VString@ctk@@V?$allocator@VString@ctk@@@std@@@2@PAU342@@Z 1002e480 f i log_logger.obj
 0001:0002d490       ?clear@?$list@VString@ctk@@V?$allocator@VString@ctk@@@std@@@std@@QAEXXZ 1002e490 f i log_logger.obj
 0001:0002d530       ?_Splice@?$list@VString@ctk@@V?$allocator@VString@ctk@@@std@@@std@@QAEXV?$_Const_iterator@$00@12@AAV12@00I_N@Z 1002e530 f i log_logger.obj
 0001:0002d6c0       ?_Buynode@?$list@VString@ctk@@V?$allocator@VString@ctk@@@std@@@std@@IAEPAU_Node@?$_List_nod@VString@ctk@@V?$allocator@VString@ctk@@@std@@@2@PAU342@0ABVString@ctk@@@Z 1002e6c0 f i log_logger.obj
 0001:0002d800       ?_Incsize@?$list@VString@ctk@@V?$allocator@VString@ctk@@@std@@@std@@IAEXI@Z 1002e800 f i log_logger.obj
 0001:0002d8a0       ??0?$_List_ptr@VString@ctk@@V?$allocator@VString@ctk@@@std@@@std@@IAE@V?$allocator@VString@ctk@@@1@@Z 1002e8a0 f i log_logger.obj
 0001:0002d910       ?deallocate@?$allocator@U_Node@?$_List_nod@VString@ctk@@V?$allocator@VString@ctk@@@std@@@std@@@std@@QAEXPAU_Node@?$_List_nod@VString@ctk@@V?$allocator@VString@ctk@@@std@@@2@I@Z 1002e910 f i log_logger.obj
 0001:0002d930       ?allocate@?$allocator@U_Node@?$_List_nod@VString@ctk@@V?$allocator@VString@ctk@@@std@@@std@@@std@@QAEPAU_Node@?$_List_nod@VString@ctk@@V?$allocator@VString@ctk@@@std@@@2@I@Z 1002e930 f i log_logger.obj
 0001:0002d950       ?construct@?$allocator@PAU_Node@?$_List_nod@VString@ctk@@V?$allocator@VString@ctk@@@std@@@std@@@std@@QAEXPAPAU_Node@?$_List_nod@VString@ctk@@V?$allocator@VString@ctk@@@std@@@2@ABQAU342@@Z 1002e950 f i log_logger.obj
 0001:0002d970       ?destroy@?$allocator@PAU_Node@?$_List_nod@VString@ctk@@V?$allocator@VString@ctk@@@std@@@std@@@std@@QAEXPAPAU_Node@?$_List_nod@VString@ctk@@V?$allocator@VString@ctk@@@std@@@2@@Z 1002e970 f i log_logger.obj
 0001:0002d990       ??0?$_Const_iterator@$00@?$list@VString@ctk@@V?$allocator@VString@ctk@@@std@@@std@@QAE@PAU_Node@?$_List_nod@VString@ctk@@V?$allocator@VString@ctk@@@std@@@2@PBV12@@Z 1002e990 f i log_logger.obj
 0001:0002d9e0       ?_Mynode@?$_Const_iterator@$00@?$list@VString@ctk@@V?$allocator@VString@ctk@@@std@@@std@@QBEPAU_Node@?$_List_nod@VString@ctk@@V?$allocator@VString@ctk@@@std@@@3@XZ 1002e9e0 f i log_logger.obj
 0001:0002da00       ??0const_iterator@?$_Tree@V?$_Tmap_traits@VString@ctk@@VBit@2@U?$less@VString@ctk@@@std@@V?$allocator@U?$pair@$$CBVString@ctk@@VBit@2@@std@@@5@$0A@@std@@@std@@QAE@XZ 1002ea00 f i log_logger.obj
 0001:0002da20       ??Econst_iterator@?$_Tree@V?$_Tmap_traits@VString@ctk@@VBit@2@U?$less@VString@ctk@@@std@@V?$allocator@U?$pair@$$CBVString@ctk@@VBit@2@@std@@@5@$0A@@std@@@std@@QAEAAV012@XZ 1002ea20 f i log_logger.obj
 0001:0002da40       ??Econst_iterator@?$_Tree@V?$_Tmap_traits@VString@ctk@@VBit@2@U?$less@VString@ctk@@@std@@V?$allocator@U?$pair@$$CBVString@ctk@@VBit@2@@std@@@5@$0A@@std@@@std@@QAE?AV012@H@Z 1002ea40 f i log_logger.obj
 0001:0002da80       ??Fconst_iterator@?$_Tree@V?$_Tmap_traits@VString@ctk@@VBit@2@U?$less@VString@ctk@@@std@@V?$allocator@U?$pair@$$CBVString@ctk@@VBit@2@@std@@@5@$0A@@std@@@std@@QAEAAV012@XZ 1002ea80 f i log_logger.obj
 0001:0002daa0       ??9const_iterator@?$_Tree@V?$_Tmap_traits@VString@ctk@@VBit@2@U?$less@VString@ctk@@@std@@V?$allocator@U?$pair@$$CBVString@ctk@@VBit@2@@std@@@5@$0A@@std@@@std@@QBE_NABV012@@Z 1002eaa0 f i log_logger.obj
 0001:0002dad0       ??0iterator@?$_Tree@V?$_Tmap_traits@VString@ctk@@VBit@2@U?$less@VString@ctk@@@std@@V?$allocator@U?$pair@$$CBVString@ctk@@VBit@2@@std@@@5@$0A@@std@@@std@@QAE@PAU_Node@?$_Tree_nod@V?$_Tmap_traits@VString@ctk@@VBit@2@U?$less@VString@ctk@@@std@@V?$allocator@U?$pair@$$CBVString@ctk@@VBit@2@@std@@@5@$0A@@std@@@2@PBV12@@Z 1002ead0 f i log_logger.obj
 0001:0002daf0       ??0?$_Bidit@VString@ctk@@HPBV12@ABV12@@std@@QAE@XZ 1002eaf0 f i log_logger.obj
 0001:0002db10       ??0?$_Iterator_with_base@Ubidirectional_iterator_tag@std@@VString@ctk@@HPBV34@ABV34@V_Iterator_base_aux@2@@std@@QAE@XZ 1002eb10 f i log_logger.obj
 0001:0002db30       ?_Color@?$_Tree@V?$_Tmap_traits@VString@ctk@@VBit@2@U?$less@VString@ctk@@@std@@V?$allocator@U?$pair@$$CBVString@ctk@@VBit@2@@std@@@5@$0A@@std@@@std@@KAAADPAU_Node@?$_Tree_nod@V?$_Tmap_traits@VString@ctk@@VBit@2@U?$less@VString@ctk@@@std@@V?$allocator@U?$pair@$$CBVString@ctk@@VBit@2@@std@@@5@$0A@@std@@@2@@Z 1002eb30 f i log_logger.obj
 0001:0002db40       ?max_size@?$_Tree@V?$_Tmap_traits@VString@ctk@@VBit@2@U?$less@VString@ctk@@@std@@V?$allocator@U?$pair@$$CBVString@ctk@@VBit@2@@std@@@5@$0A@@std@@@std@@QBEIXZ 1002eb40 f i log_logger.obj
 0001:0002db60       ?_Erase@?$_Tree@V?$_Tmap_traits@VString@ctk@@VBit@2@U?$less@VString@ctk@@@std@@V?$allocator@U?$pair@$$CBVString@ctk@@VBit@2@@std@@@5@$0A@@std@@@std@@IAEXPAU_Node@?$_Tree_nod@V?$_Tmap_traits@VString@ctk@@VBit@2@U?$less@VString@ctk@@@std@@V?$allocator@U?$pair@$$CBVString@ctk@@VBit@2@@std@@@5@$0A@@std@@@2@@Z 1002eb60 f i log_logger.obj
 0001:0002dbe0       ?_Lrotate@?$_Tree@V?$_Tmap_traits@VString@ctk@@VBit@2@U?$less@VString@ctk@@@std@@V?$allocator@U?$pair@$$CBVString@ctk@@VBit@2@@std@@@5@$0A@@std@@@std@@IAEXPAU_Node@?$_Tree_nod@V?$_Tmap_traits@VString@ctk@@VBit@2@U?$less@VString@ctk@@@std@@V?$allocator@U?$pair@$$CBVString@ctk@@VBit@2@@std@@@5@$0A@@std@@@2@@Z 1002ebe0 f i log_logger.obj
 0001:0002dd10       ?_Rrotate@?$_Tree@V?$_Tmap_traits@VString@ctk@@VBit@2@U?$less@VString@ctk@@@std@@V?$allocator@U?$pair@$$CBVString@ctk@@VBit@2@@std@@@5@$0A@@std@@@std@@IAEXPAU_Node@?$_Tree_nod@V?$_Tmap_traits@VString@ctk@@VBit@2@U?$less@VString@ctk@@@std@@V?$allocator@U?$pair@$$CBVString@ctk@@VBit@2@@std@@@5@$0A@@std@@@2@@Z 1002ed10 f i log_logger.obj
 0001:0002de40       ?_Buynode@?$_Tree@V?$_Tmap_traits@VString@ctk@@VBit@2@U?$less@VString@ctk@@@std@@V?$allocator@U?$pair@$$CBVString@ctk@@VBit@2@@std@@@5@$0A@@std@@@std@@IAEPAU_Node@?$_Tree_nod@V?$_Tmap_traits@VString@ctk@@VBit@2@U?$less@VString@ctk@@@std@@V?$allocator@U?$pair@$$CBVString@ctk@@VBit@2@@std@@@5@$0A@@std@@@2@XZ 1002ee40 f i log_logger.obj
 0001:0002dfb0       ?_Buynode@?$_Tree@V?$_Tmap_traits@VString@ctk@@VBit@2@U?$less@VString@ctk@@@std@@V?$allocator@U?$pair@$$CBVString@ctk@@VBit@2@@std@@@5@$0A@@std@@@std@@IAEPAU_Node@?$_Tree_nod@V?$_Tmap_traits@VString@ctk@@VBit@2@U?$less@VString@ctk@@@std@@V?$allocator@U?$pair@$$CBVString@ctk@@VBit@2@@std@@@5@$0A@@std@@@2@PAU342@00ABU?$pair@$$CBVString@ctk@@VBit@2@@2@D@Z 1002efb0 f i log_logger.obj
 0001:0002e090       ??0?$_Tree_ptr@V?$_Tmap_traits@VString@ctk@@VBit@2@U?$less@VString@ctk@@@std@@V?$allocator@U?$pair@$$CBVString@ctk@@VBit@2@@std@@@5@$0A@@std@@@std@@IAE@ABU?$less@VString@ctk@@@1@V?$allocator@U?$pair@$$CBVString@ctk@@VBit@2@@std@@@1@@Z 1002f090 f i log_logger.obj
 0001:0002e110       ?destroy@?$allocator@U_Node@?$_Tree_nod@V?$_Tmap_traits@VString@ctk@@VBit@2@U?$less@VString@ctk@@@std@@V?$allocator@U?$pair@$$CBVString@ctk@@VBit@2@@std@@@5@$0A@@std@@@std@@@std@@QAEXPAU_Node@?$_Tree_nod@V?$_Tmap_traits@VString@ctk@@VBit@2@U?$less@VString@ctk@@@std@@V?$allocator@U?$pair@$$CBVString@ctk@@VBit@2@@std@@@5@$0A@@std@@@2@@Z 1002f110 f i log_logger.obj
 0001:0002e130       ?construct@?$allocator@VString@ctk@@@std@@QAEXPAVString@ctk@@ABV34@@Z 1002f130 f i log_logger.obj
 0001:0002e150       ?max_size@?$list@VString@ctk@@V?$allocator@VString@ctk@@@std@@@std@@QBEIXZ 1002f150 f i log_logger.obj
 0001:0002e170       ?erase@?$list@VString@ctk@@V?$allocator@VString@ctk@@@std@@@std@@QAE?AV?$_Iterator@$00@12@V?$_Const_iterator@$00@12@0@Z 1002f170 f i log_logger.obj
 0001:0002e220       ??0?$_List_nod@VString@ctk@@V?$allocator@VString@ctk@@@std@@@std@@IAE@V?$allocator@VString@ctk@@@1@@Z 1002f220 f i log_logger.obj
 0001:0002e290       ?destroy@?$allocator@U_Node@?$_List_nod@VString@ctk@@V?$allocator@VString@ctk@@@std@@@std@@@std@@QAEXPAU_Node@?$_List_nod@VString@ctk@@V?$allocator@VString@ctk@@@std@@@2@@Z 1002f290 f i log_logger.obj
 0001:0002e2b0       ?_Dec@const_iterator@?$_Tree@V?$_Tmap_traits@VString@ctk@@VBit@2@U?$less@VString@ctk@@@std@@V?$allocator@U?$pair@$$CBVString@ctk@@VBit@2@@std@@@5@$0A@@std@@@std@@QAEXXZ 1002f2b0 f i log_logger.obj
 0001:0002e3e0       ?_Inc@const_iterator@?$_Tree@V?$_Tmap_traits@VString@ctk@@VBit@2@U?$less@VString@ctk@@@std@@V?$allocator@U?$pair@$$CBVString@ctk@@VBit@2@@std@@@5@$0A@@std@@@std@@QAEXXZ 1002f3e0 f i log_logger.obj
 0001:0002e4c0       ??Fiterator@?$_Tree@V?$_Tmap_traits@VString@ctk@@VBit@2@U?$less@VString@ctk@@@std@@V?$allocator@U?$pair@$$CBVString@ctk@@VBit@2@@std@@@5@$0A@@std@@@std@@QAEAAV012@XZ 1002f4c0 f i log_logger.obj
 0001:0002e4e0       ??0?$pair@Viterator@?$_Tree@V?$_Tmap_traits@VString@ctk@@VBit@2@U?$less@VString@ctk@@@std@@V?$allocator@U?$pair@$$CBVString@ctk@@VBit@2@@std@@@5@$0A@@std@@@std@@_N@std@@QAE@ABViterator@?$_Tree@V?$_Tmap_traits@VString@ctk@@VBit@2@U?$less@VString@ctk@@@std@@V?$allocator@U?$pair@$$CBVString@ctk@@VBit@2@@std@@@5@$0A@@std@@@1@AB_N@Z 1002f4e0 f i log_logger.obj
 0001:0002e510       ??0?$_Tree_nod@V?$_Tmap_traits@VString@ctk@@VBit@2@U?$less@VString@ctk@@@std@@V?$allocator@U?$pair@$$CBVString@ctk@@VBit@2@@std@@@5@$0A@@std@@@std@@IAE@ABU?$less@VString@ctk@@@1@V?$allocator@U?$pair@$$CBVString@ctk@@VBit@2@@std@@@1@@Z 1002f510 f i log_logger.obj
 0001:0002e590       ?max_size@?$allocator@U?$pair@$$CBVString@ctk@@VBit@2@@std@@@std@@QBEIXZ 1002f590 f i log_logger.obj
 0001:0002e5c0       ?allocate@?$allocator@U_Node@?$_Tree_nod@V?$_Tmap_traits@VString@ctk@@VBit@2@U?$less@VString@ctk@@@std@@V?$allocator@U?$pair@$$CBVString@ctk@@VBit@2@@std@@@5@$0A@@std@@@std@@@std@@QAEPAU_Node@?$_Tree_nod@V?$_Tmap_traits@VString@ctk@@VBit@2@U?$less@VString@ctk@@@std@@V?$allocator@U?$pair@$$CBVString@ctk@@VBit@2@@std@@@5@$0A@@std@@@2@I@Z 1002f5c0 f i log_logger.obj
 0001:0002e5e0       ?construct@?$allocator@PAU_Node@?$_Tree_nod@V?$_Tmap_traits@VString@ctk@@VBit@2@U?$less@VString@ctk@@@std@@V?$allocator@U?$pair@$$CBVString@ctk@@VBit@2@@std@@@5@$0A@@std@@@std@@@std@@QAEXPAPAU_Node@?$_Tree_nod@V?$_Tmap_traits@VString@ctk@@VBit@2@U?$less@VString@ctk@@@std@@V?$allocator@U?$pair@$$CBVString@ctk@@VBit@2@@std@@@5@$0A@@std@@@2@ABQAU342@@Z 1002f5e0 f i log_logger.obj
 0001:0002e600       ?max_size@?$allocator@VString@ctk@@@std@@QBEIXZ 1002f600 f i log_logger.obj
 0001:0002e630       ?_Make_iter@?$list@VString@ctk@@V?$allocator@VString@ctk@@@std@@@std@@QBE?AV?$_Iterator@$00@12@V?$_Const_iterator@$00@12@@Z 1002f630 f i log_logger.obj
 0001:0002e650       ?erase@?$list@VString@ctk@@V?$allocator@VString@ctk@@@std@@@std@@QAE?AV?$_Iterator@$00@12@V?$_Const_iterator@$00@12@@Z 1002f650 f i log_logger.obj
 0001:0002e720       ??0?$_Container_base_aux_alloc_real@V?$allocator@VString@ctk@@@std@@@std@@IAE@V?$allocator@VString@ctk@@@1@@Z 1002f720 f i log_logger.obj
 0001:0002e7e0       ??0_Node@?$_Tree_nod@V?$_Tmap_traits@VString@ctk@@VBit@2@U?$less@VString@ctk@@@std@@V?$allocator@U?$pair@$$CBVString@ctk@@VBit@2@@std@@@5@$0A@@std@@@std@@QAE@PAU012@00ABU?$pair@$$CBVString@ctk@@VBit@2@@2@D@Z 1002f7e0 f i log_logger.obj
 0001:0002e870       ??0?$pair@$$CBVString@ctk@@VBit@2@@std@@QAE@ABU01@@Z 1002f870 f i log_logger.obj
 0001:0002e8d0       ??0?$_Tmap_traits@VString@ctk@@VBit@2@U?$less@VString@ctk@@@std@@V?$allocator@U?$pair@$$CBVString@ctk@@VBit@2@@std@@@5@$0A@@std@@QAE@U?$less@VString@ctk@@@1@V?$allocator@U?$pair@$$CBVString@ctk@@VBit@2@@std@@@1@@Z 1002f8d0 f i log_logger.obj
 0001:0002e940       ??E?$_Const_iterator@$00@?$list@VString@ctk@@V?$allocator@VString@ctk@@@std@@@std@@QAE?AV012@H@Z 1002f940 f i log_logger.obj
 0001:0002e980       ??0?$_Container_base_aux_alloc_real@V?$allocator@U?$pair@$$CBVString@ctk@@VBit@2@@std@@@std@@@std@@IAE@V?$allocator@U?$pair@$$CBVString@ctk@@VBit@2@@std@@@1@@Z 1002f980 f i log_logger.obj
 0001:0002ea40       ??$allocate@VFlushLogThread@loggerImpl@ctk@@PAV23@$$BY06$$CBD@ctk@@YAPAVFlushLogThread@loggerImpl@0@PBDI0ABQAV20@AAY06$$CBD@Z 1002fa40 f i log_logger.obj
 0001:0002ea80       ??$stopThread@VFlushLogThread@loggerImpl@ctk@@@ctk@@YA_NAAV?$Handle@VFlushLogThread@loggerImpl@ctk@@@0@@Z 1002fa80 f i log_logger.obj
 0001:0002eb20       ??$?5VloggerImpl@ctk@@@ntv@pml@ctk@@YAXABVUnit@012@AAVloggerImpl@2@@Z 1002fb20 f i log_logger.obj
 0001:0002ebb0       ??$?6$$BY04$$CBD@ctk@@YAAAVString@0@AAV10@AAY04$$CBD@Z 1002fbb0 f i log_logger.obj
 0001:0002ebd0       ??$?6VloggerImpl@ctk@@@ctk@@YAAAVdumper@0@AAV10@ABVloggerImpl@0@@Z 1002fbd0 f i log_logger.obj
 0001:0002ebf0       ??$name_value@$$CC_N@pml@ctk@@YA?AU?$Field__@$$CC_N@01@ABUistr@1@AC_N@Z 1002fbf0 f i log_logger.obj
 0001:0002ec10       ??$?U$$CC_N@pml@ctk@@YAAAVstream@01@AAV201@U?$Field__@$$CC_N@01@@Z 1002fc10 f i log_logger.obj
 0001:0002ec70       ??$name_value@V?$map@VString@ctk@@VBit@2@U?$less@VString@ctk@@@std@@V?$allocator@U?$pair@$$CBVString@ctk@@VBit@2@@std@@@5@@std@@@pml@ctk@@YA?AU?$Field__@V?$map@VString@ctk@@VBit@2@U?$less@VString@ctk@@@std@@V?$allocator@U?$pair@$$CBVString@ctk@@VBit@2@@std@@@5@@std@@@01@ABUistr@1@AAV?$map@VString@ctk@@VBit@2@U?$less@VString@ctk@@@std@@V?$allocator@U?$pair@$$CBVString@ctk@@VBit@2@@std@@@5@@std@@@Z 1002fc70 f i log_logger.obj
 0001:0002ec90       ??$?UV?$map@VString@ctk@@VBit@2@U?$less@VString@ctk@@@std@@V?$allocator@U?$pair@$$CBVString@ctk@@VBit@2@@std@@@5@@std@@@pml@ctk@@YAAAVstream@01@AAV201@U?$Field__@V?$map@VString@ctk@@VBit@2@U?$less@VString@ctk@@@std@@V?$allocator@U?$pair@$$CBVString@ctk@@VBit@2@@std@@@5@@std@@@01@@Z 1002fc90 f i log_logger.obj
 0001:0002ecf0       ??$name_value@VString@ctk@@@pml@ctk@@YA?AU?$Field__@VString@ctk@@@01@ABUistr@1@AAVString@1@@Z 1002fcf0 f i log_logger.obj
 0001:0002ed10       ??$?UVString@ctk@@@pml@ctk@@YAAAVstream@01@AAV201@U?$Field__@VString@ctk@@@01@@Z 1002fd10 f i log_logger.obj
 0001:0002ed70       ??$name_value@$$CCK@pml@ctk@@YA?AU?$Field__@$$CCK@01@ABUistr@1@ACK@Z 1002fd70 f i log_logger.obj
 0001:0002ed90       ??$?U$$CCK@pml@ctk@@YAAAVstream@01@AAV201@U?$Field__@$$CCK@01@@Z 1002fd90 f i log_logger.obj
 0001:0002edf0       ??$?6VString@ctk@@VBit@1@@ctk@@YAAAVdumper@0@AAV10@ABV?$map@VString@ctk@@VBit@2@U?$less@VString@ctk@@@std@@V?$allocator@U?$pair@$$CBVString@ctk@@VBit@2@@std@@@5@@std@@@Z 1002fdf0 f i log_logger.obj
 0001:0002ef10       ??$?6VString@ctk@@@ctk@@YAAAVdumper@0@AAV10@ABV?$list@VString@ctk@@V?$allocator@VString@ctk@@@std@@@std@@@Z 1002ff10 f i log_logger.obj
 0001:0002f030       ??$assign@V?$_Const_iterator@$00@?$list@VString@ctk@@V?$allocator@VString@ctk@@@std@@@std@@@?$list@VString@ctk@@V?$allocator@VString@ctk@@@std@@@std@@QAEXV?$_Const_iterator@$00@01@0@Z 10030030 f i log_logger.obj
 0001:0002f070       ??$?8VString@ctk@@V01@@std@@YA_NABV?$allocator@VString@ctk@@@0@0@Z 10030070 f i log_logger.obj
 0001:0002f080       ??$swap@PAU_Node@?$_List_nod@VString@ctk@@V?$allocator@VString@ctk@@@std@@@std@@@std@@YAXAAPAU_Node@?$_List_nod@VString@ctk@@V?$allocator@VString@ctk@@@std@@@0@0@Z 10030080 f i log_logger.obj
 0001:0002f0b0       ??$_Destroy@PAU_Node@?$_Tree_nod@V?$_Tmap_traits@VString@ctk@@VBit@2@U?$less@VString@ctk@@@std@@V?$allocator@U?$pair@$$CBVString@ctk@@VBit@2@@std@@@5@$0A@@std@@@std@@@std@@YAXPAPAU_Node@?$_Tree_nod@V?$_Tmap_traits@VString@ctk@@VBit@2@U?$less@VString@ctk@@@std@@V?$allocator@U?$pair@$$CBVString@ctk@@VBit@2@@std@@@5@$0A@@std@@@0@@Z 100300b0 f i log_logger.obj
 0001:0002f0c0       ??$insert@V?$_Const_iterator@$00@?$list@VString@ctk@@V?$allocator@VString@ctk@@@std@@@std@@@?$list@VString@ctk@@V?$allocator@VString@ctk@@@std@@@std@@QAEXV?$_Const_iterator@$00@01@00@Z 100300c0 f i log_logger.obj
 0001:0002f110       ??$?0VString@ctk@@@?$allocator@PAU_Node@?$_List_nod@VString@ctk@@V?$allocator@VString@ctk@@@std@@@std@@@std@@QAE@ABV?$allocator@VString@ctk@@@1@@Z 10030110 f i log_logger.obj
 0001:0002f120       ??$_Allocate@U_Node@?$_List_nod@VString@ctk@@V?$allocator@VString@ctk@@@std@@@std@@@std@@YAPAU_Node@?$_List_nod@VString@ctk@@V?$allocator@VString@ctk@@@std@@@0@IPAU120@@Z 10030120 f i log_logger.obj
 0001:0002f170       ??$_Construct@PAU_Node@?$_List_nod@VString@ctk@@V?$allocator@VString@ctk@@@std@@@std@@PAU123@@std@@YAXPAPAU_Node@?$_List_nod@VString@ctk@@V?$allocator@VString@ctk@@@std@@@0@ABQAU120@@Z 10030170 f i log_logger.obj
 0001:0002f1b0       ??$_Destroy@PAU_Node@?$_List_nod@VString@ctk@@V?$allocator@VString@ctk@@@std@@@std@@@std@@YAXPAPAU_Node@?$_List_nod@VString@ctk@@V?$allocator@VString@ctk@@@std@@@0@@Z 100301b0 f i log_logger.obj
 0001:0002f1c0       ??$?0U?$pair@$$CBVString@ctk@@VBit@2@@std@@@?$allocator@PAU_Node@?$_Tree_nod@V?$_Tmap_traits@VString@ctk@@VBit@2@U?$less@VString@ctk@@@std@@V?$allocator@U?$pair@$$CBVString@ctk@@VBit@2@@std@@@5@$0A@@std@@@std@@@std@@QAE@ABV?$allocator@U?$pair@$$CBVString@ctk@@VBit@2@@std@@@1@@Z 100301c0 f i log_logger.obj
 0001:0002f1d0       ??$_Destroy@U_Node@?$_Tree_nod@V?$_Tmap_traits@VString@ctk@@VBit@2@U?$less@VString@ctk@@@std@@V?$allocator@U?$pair@$$CBVString@ctk@@VBit@2@@std@@@5@$0A@@std@@@std@@@std@@YAXPAU_Node@?$_Tree_nod@V?$_Tmap_traits@VString@ctk@@VBit@2@U?$less@VString@ctk@@@std@@V?$allocator@U?$pair@$$CBVString@ctk@@VBit@2@@std@@@5@$0A@@std@@@0@@Z 100301d0 f i log_logger.obj
 0001:0002f1e0       ??$_Construct@VString@ctk@@V12@@std@@YAXPAVString@ctk@@ABV12@@Z 100301e0 f i log_logger.obj
 0001:0002f260       ??$?0VString@ctk@@@?$allocator@U_Node@?$_List_nod@VString@ctk@@V?$allocator@VString@ctk@@@std@@@std@@@std@@QAE@ABV?$allocator@VString@ctk@@@1@@Z 10030260 f i log_logger.obj
 0001:0002f270       ??$_Destroy@U_Node@?$_List_nod@VString@ctk@@V?$allocator@VString@ctk@@@std@@@std@@@std@@YAXPAU_Node@?$_List_nod@VString@ctk@@V?$allocator@VString@ctk@@@std@@@0@@Z 10030270 f i log_logger.obj
 0001:0002f280       ??$?0U?$pair@$$CBVString@ctk@@VBit@2@@std@@@?$allocator@U_Node@?$_Tree_nod@V?$_Tmap_traits@VString@ctk@@VBit@2@U?$less@VString@ctk@@@std@@V?$allocator@U?$pair@$$CBVString@ctk@@VBit@2@@std@@@5@$0A@@std@@@std@@@std@@QAE@ABV?$allocator@U?$pair@$$CBVString@ctk@@VBit@2@@std@@@1@@Z 10030280 f i log_logger.obj
 0001:0002f290       ??$_Allocate@U_Node@?$_Tree_nod@V?$_Tmap_traits@VString@ctk@@VBit@2@U?$less@VString@ctk@@@std@@V?$allocator@U?$pair@$$CBVString@ctk@@VBit@2@@std@@@5@$0A@@std@@@std@@@std@@YAPAU_Node@?$_Tree_nod@V?$_Tmap_traits@VString@ctk@@VBit@2@U?$less@VString@ctk@@@std@@V?$allocator@U?$pair@$$CBVString@ctk@@VBit@2@@std@@@5@$0A@@std@@@0@IPAU120@@Z 10030290 f i log_logger.obj
 0001:0002f2e0       ??$_Construct@PAU_Node@?$_Tree_nod@V?$_Tmap_traits@VString@ctk@@VBit@2@U?$less@VString@ctk@@@std@@V?$allocator@U?$pair@$$CBVString@ctk@@VBit@2@@std@@@5@$0A@@std@@@std@@PAU123@@std@@YAXPAPAU_Node@?$_Tree_nod@V?$_Tmap_traits@VString@ctk@@VBit@2@U?$less@VString@ctk@@@std@@V?$allocator@U?$pair@$$CBVString@ctk@@VBit@2@@std@@@5@$0A@@std@@@0@ABQAU120@@Z 100302e0 f i log_logger.obj
 0001:0002f320       ??$?0VString@ctk@@@?$allocator@V_Aux_cont@std@@@std@@QAE@ABV?$allocator@VString@ctk@@@1@@Z 10030320 f i log_logger.obj
 0001:0002f330       ??$?0U?$pair@$$CBVString@ctk@@VBit@2@@std@@@?$allocator@V_Aux_cont@std@@@std@@QAE@ABV?$allocator@U?$pair@$$CBVString@ctk@@VBit@2@@std@@@1@@Z 10030330 f i log_logger.obj
 0001:0002f340       ??0?$Field__@$$CC_N@pml@ctk@@QAE@ABU012@@Z 10030340 f i log_logger.obj
 0001:0002f380       ??0?$Field__@V?$map@VString@ctk@@VBit@2@U?$less@VString@ctk@@@std@@V?$allocator@U?$pair@$$CBVString@ctk@@VBit@2@@std@@@5@@std@@@pml@ctk@@QAE@ABU012@@Z 10030380 f i log_logger.obj
 0001:0002f3c0       ??0?$Field__@VString@ctk@@@pml@ctk@@QAE@ABU012@@Z 100303c0 f i log_logger.obj
 0001:0002f400       ??0?$Field__@$$CCK@pml@ctk@@QAE@ABU012@@Z 10030400 f i log_logger.obj
 0001:0002f440       ??_G_Node@?$_Tree_nod@V?$_Tmap_traits@VString@ctk@@VBit@2@U?$less@VString@ctk@@@std@@V?$allocator@U?$pair@$$CBVString@ctk@@VBit@2@@std@@@5@$0A@@std@@@std@@QAEPAXI@Z 10030440 f i log_logger.obj
 0001:0002f470       ??_G_Node@?$_List_nod@VString@ctk@@V?$allocator@VString@ctk@@@std@@@std@@QAEPAXI@Z 10030470 f i log_logger.obj
 0001:0002f4a0       ??1_Node@?$_Tree_nod@V?$_Tmap_traits@VString@ctk@@VBit@2@U?$less@VString@ctk@@@std@@V?$allocator@U?$pair@$$CBVString@ctk@@VBit@2@@std@@@5@$0A@@std@@@std@@QAE@XZ 100304a0 f i log_logger.obj
 0001:0002f4f0       ??1_Node@?$_List_nod@VString@ctk@@V?$allocator@VString@ctk@@@std@@@std@@QAE@XZ 100304f0 f i log_logger.obj
 0001:0002f540       ??0?$Field__@$$CC_N@pml@ctk@@QAE@ABUistr@2@AC_N@Z 10030540 f i log_logger.obj
 0001:0002f570       ??0?$Field__@V?$map@VString@ctk@@VBit@2@U?$less@VString@ctk@@@std@@V?$allocator@U?$pair@$$CBVString@ctk@@VBit@2@@std@@@5@@std@@@pml@ctk@@QAE@ABUistr@2@AAV?$map@VString@ctk@@VBit@2@U?$less@VString@ctk@@@std@@V?$allocator@U?$pair@$$CBVString@ctk@@VBit@2@@std@@@5@@std@@@Z 10030570 f i log_logger.obj
 0001:0002f5a0       ??0?$Field__@VString@ctk@@@pml@ctk@@QAE@ABUistr@2@AAVString@2@@Z 100305a0 f i log_logger.obj
 0001:0002f5d0       ??0?$Field__@$$CCK@pml@ctk@@QAE@ABUistr@2@ACK@Z 100305d0 f i log_logger.obj
 0001:0002f600       ??$allocate_no_mlc@VFlushLogThread@loggerImpl@ctk@@PAV23@$$BY06$$CBD@ctk@@YAPAVFlushLogThread@loggerImpl@0@PBDI0ABQAV20@AAY06$$CBD@Z 10030600 f i log_logger.obj
 0001:0002f6a0       ??$allocate_push_maybe@VFlushLogThread@loggerImpl@ctk@@@ctk@@YAPAVFlushLogThread@loggerImpl@0@PAV120@PBDI1@Z 100306a0 f i log_logger.obj
 0001:0002f6d0       ??$?5$$CC_N@pml@ctk@@YA_NABVstream@01@U?$Field__@$$CC_N@01@@Z 100306d0 f i log_logger.obj
 0001:0002f6f0       ??$?6$$CC_N@pml@ctk@@YAAAVstream@01@AAV201@U?$Field__@$$CC_N@01@@Z 100306f0 f i log_logger.obj
 0001:0002f710       ??$?5V?$map@VString@ctk@@VBit@2@U?$less@VString@ctk@@@std@@V?$allocator@U?$pair@$$CBVString@ctk@@VBit@2@@std@@@5@@std@@@pml@ctk@@YA_NABVstream@01@U?$Field__@V?$map@VString@ctk@@VBit@2@U?$less@VString@ctk@@@std@@V?$allocator@U?$pair@$$CBVString@ctk@@VBit@2@@std@@@5@@std@@@01@@Z 10030710 f i log_logger.obj
 0001:0002f730       ??$?6V?$map@VString@ctk@@VBit@2@U?$less@VString@ctk@@@std@@V?$allocator@U?$pair@$$CBVString@ctk@@VBit@2@@std@@@5@@std@@@pml@ctk@@YAAAVstream@01@AAV201@U?$Field__@V?$map@VString@ctk@@VBit@2@U?$less@VString@ctk@@@std@@V?$allocator@U?$pair@$$CBVString@ctk@@VBit@2@@std@@@5@@std@@@01@@Z 10030730 f i log_logger.obj
 0001:0002f750       ??$?5VString@ctk@@@pml@ctk@@YA_NABVstream@01@U?$Field__@VString@ctk@@@01@@Z 10030750 f i log_logger.obj
 0001:0002f770       ??$?6VString@ctk@@@pml@ctk@@YAAAVstream@01@AAV201@U?$Field__@VString@ctk@@@01@@Z 10030770 f i log_logger.obj
 0001:0002f790       ??$?5$$CCK@pml@ctk@@YA_NABVstream@01@U?$Field__@$$CCK@01@@Z 10030790 f i log_logger.obj
 0001:0002f7b0       ??$?6$$CCK@pml@ctk@@YAAAVstream@01@AAV201@U?$Field__@$$CCK@01@@Z 100307b0 f i log_logger.obj
 0001:0002f7d0       ??$output@V?$map@VString@ctk@@VBit@2@U?$less@VString@ctk@@@std@@V?$allocator@U?$pair@$$CBVString@ctk@@VBit@2@@std@@@5@@std@@@ctk@@YAAAVdumper@0@AAV10@ABV?$map@VString@ctk@@VBit@2@U?$less@VString@ctk@@@std@@V?$allocator@U?$pair@$$CBVString@ctk@@VBit@2@@std@@@5@@std@@@Z 100307d0 f i log_logger.obj
 0001:0002f830       ??$output@V?$list@VString@ctk@@V?$allocator@VString@ctk@@@std@@@std@@@ctk@@YAAAVdumper@0@AAV10@ABV?$list@VString@ctk@@V?$allocator@VString@ctk@@@std@@@std@@@Z 10030830 f i log_logger.obj
 0001:0002f890       ??$_Iter_cat@V?$_Const_iterator@$00@?$list@VString@ctk@@V?$allocator@VString@ctk@@@std@@@std@@@std@@YA?AUbidirectional_iterator_tag@0@ABV?$_Const_iterator@$00@?$list@VString@ctk@@V?$allocator@VString@ctk@@@std@@@0@@Z 10030890 f i log_logger.obj
 0001:0002f8a0       ??$_Assign@V?$_Const_iterator@$00@?$list@VString@ctk@@V?$allocator@VString@ctk@@@std@@@std@@@?$list@VString@ctk@@V?$allocator@VString@ctk@@@std@@@std@@QAEXV?$_Const_iterator@$00@01@0Uinput_iterator_tag@1@@Z 100308a0 f i log_logger.obj
 0001:0002f8f0       ??$_Insert@V?$_Const_iterator@$00@?$list@VString@ctk@@V?$allocator@VString@ctk@@@std@@@std@@@?$list@VString@ctk@@V?$allocator@VString@ctk@@@std@@@std@@QAEXV?$_Const_iterator@$00@01@00Uforward_iterator_tag@1@@Z 100308f0 f i log_logger.obj
 0001:0002f9f0       ?begin@?$_Tree@V?$_Tmap_traits@VString@ctk@@VBit@2@U?$less@VString@ctk@@@std@@V?$allocator@U?$pair@$$CBVString@ctk@@VBit@2@@std@@@5@$0A@@std@@@std@@QBE?AVconst_iterator@12@XZ 100309f0 f i log_logger.obj
 0001:0002fa20       ??F?$_Const_iterator@$00@?$list@VString@ctk@@V?$allocator@VString@ctk@@@std@@@std@@QAEAAV012@XZ 10030a20 f i log_logger.obj
 0001:0002fa90       ?set@?$Field__@$$CC_N@pml@ctk@@QBEAAVstream@23@AAV423@@Z 10030a90 f i log_logger.obj
 0001:0002fb30       ?get@?$Field__@$$CC_N@pml@ctk@@QAE_NABVstream@23@@Z 10030b30 f i log_logger.obj
 0001:0002fb80       ?set@?$Field__@V?$map@VString@ctk@@VBit@2@U?$less@VString@ctk@@@std@@V?$allocator@U?$pair@$$CBVString@ctk@@VBit@2@@std@@@5@@std@@@pml@ctk@@QBEAAVstream@23@AAV423@@Z 10030b80 f i log_logger.obj
 0001:0002fc20       ?get@?$Field__@V?$map@VString@ctk@@VBit@2@U?$less@VString@ctk@@@std@@V?$allocator@U?$pair@$$CBVString@ctk@@VBit@2@@std@@@5@@std@@@pml@ctk@@QAE_NABVstream@23@@Z 10030c20 f i log_logger.obj
 0001:0002fc70       ?set@?$Field__@VString@ctk@@@pml@ctk@@QBEAAVstream@23@AAV423@@Z 10030c70 f i log_logger.obj
 0001:0002fd00       ?get@?$Field__@VString@ctk@@@pml@ctk@@QAE_NABVstream@23@@Z 10030d00 f i log_logger.obj
 0001:0002fd50       ?set@?$Field__@$$CCK@pml@ctk@@QBEAAVstream@23@AAV423@@Z 10030d50 f i log_logger.obj
 0001:0002fdf0       ?get@?$Field__@$$CCK@pml@ctk@@QAE_NABVstream@23@@Z 10030df0 f i log_logger.obj
 0001:0002fe40       ??$make_pair@Vconst_iterator@?$_Tree@V?$_Tmap_traits@VString@ctk@@VBit@2@U?$less@VString@ctk@@@std@@V?$allocator@U?$pair@$$CBVString@ctk@@VBit@2@@std@@@5@$0A@@std@@@std@@V123@@std@@YA?AU?$pair@Vconst_iterator@?$_Tree@V?$_Tmap_traits@VString@ctk@@VBit@2@U?$less@VString@ctk@@@std@@V?$allocator@U?$pair@$$CBVString@ctk@@VBit@2@@std@@@5@$0A@@std@@@std@@V123@@0@Vconst_iterator@?$_Tree@V?$_Tmap_traits@VString@ctk@@VBit@2@U?$less@VString@ctk@@@std@@V?$allocator@U?$pair@$$CBVString@ctk@@VBit@2@@std@@@5@$0A@@std@@@0@0@Z 10030e40 f i log_logger.obj
 0001:0002fe60       ??$output_@Vconst_iterator@?$_Tree@V?$_Tmap_traits@VString@ctk@@VBit@2@U?$less@VString@ctk@@@std@@V?$allocator@U?$pair@$$CBVString@ctk@@VBit@2@@std@@@5@$0A@@std@@@std@@@ctk@@YAAAVdumper@0@AAV10@U?$pair@Vconst_iterator@?$_Tree@V?$_Tmap_traits@VString@ctk@@VBit@2@U?$less@VString@ctk@@@std@@V?$allocator@U?$pair@$$CBVString@ctk@@VBit@2@@std@@@5@$0A@@std@@@std@@V123@@std@@@Z 10030e60 f i log_logger.obj
 0001:0002fee0       ??$make_pair@V?$_Const_iterator@$00@?$list@VString@ctk@@V?$allocator@VString@ctk@@@std@@@std@@V123@@std@@YA?AU?$pair@V?$_Const_iterator@$00@?$list@VString@ctk@@V?$allocator@VString@ctk@@@std@@@std@@V123@@0@V?$_Const_iterator@$00@?$list@VString@ctk@@V?$allocator@VString@ctk@@@std@@@0@0@Z 10030ee0 f i log_logger.obj
 0001:0002ff00       ??$output_@V?$_Const_iterator@$00@?$list@VString@ctk@@V?$allocator@VString@ctk@@@std@@@std@@@ctk@@YAAAVdumper@0@AAV10@U?$pair@V?$_Const_iterator@$00@?$list@VString@ctk@@V?$allocator@VString@ctk@@@std@@@std@@V123@@std@@@Z 10030f00 f i log_logger.obj
 0001:0002ff70       ??$allocate@VUnit@ntv@pml@ctk@@@ctk@@YAPAVUnit@ntv@pml@0@PBDI0@Z 10030f70 f i log_logger.obj
 0001:0002ffa0       ??$?6VString@ctk@@VBit@1@@ntv@pml@ctk@@YAAAVUnit@012@AAV3012@ABV?$map@VString@ctk@@VBit@2@U?$less@VString@ctk@@@std@@V?$allocator@U?$pair@$$CBVString@ctk@@VBit@2@@std@@@5@@std@@@Z 10030fa0 f i log_logger.obj
 0001:0002ffc0       ??$?5VString@ctk@@VBit@1@@ntv@pml@ctk@@YAABVUnit@012@ABV3012@AAV?$map@VString@ctk@@VBit@2@U?$less@VString@ctk@@@std@@V?$allocator@U?$pair@$$CBVString@ctk@@VBit@2@@std@@@5@@std@@@Z 10030fc0 f i log_logger.obj
 0001:0002ffe0       ??0?$pair@Vconst_iterator@?$_Tree@V?$_Tmap_traits@VString@ctk@@VBit@2@U?$less@VString@ctk@@@std@@V?$allocator@U?$pair@$$CBVString@ctk@@VBit@2@@std@@@5@$0A@@std@@@std@@V123@@std@@QAE@ABVconst_iterator@?$_Tree@V?$_Tmap_traits@VString@ctk@@VBit@2@U?$less@VString@ctk@@@std@@V?$allocator@U?$pair@$$CBVString@ctk@@VBit@2@@std@@@5@$0A@@std@@@1@0@Z 10030fe0 f i log_logger.obj
 0001:00030020       ??0?$pair@V?$_Const_iterator@$00@?$list@VString@ctk@@V?$allocator@VString@ctk@@@std@@@std@@V123@@std@@QAE@ABV?$_Const_iterator@$00@?$list@VString@ctk@@V?$allocator@VString@ctk@@@std@@@1@0@Z 10031020 f i log_logger.obj
 0001:00030060       ??$?6$$CBVString@ctk@@VBit@1@@ctk@@YAAAVdumper@0@AAV10@ABU?$pair@$$CBVString@ctk@@VBit@2@@std@@@Z 10031060 f i log_logger.obj
 0001:00030140       ??$allocate_no_mlc@VUnit@ntv@pml@ctk@@@ctk@@YAPAVUnit@ntv@pml@0@PBDI0@Z 10031140 f i log_logger.obj
 0001:000301d0       ??$allocate_push_maybe@VUnit@ntv@pml@ctk@@@ctk@@YAPAVUnit@ntv@pml@0@PAV1230@PBDI1@Z 100311d0 f i log_logger.obj
 0001:00030200       ??$output@V?$map@VString@ctk@@VBit@2@U?$less@VString@ctk@@@std@@V?$allocator@U?$pair@$$CBVString@ctk@@VBit@2@@std@@@5@@std@@@ntv@pml@ctk@@YAAAVUnit@012@AAV3012@ABV?$map@VString@ctk@@VBit@2@U?$less@VString@ctk@@@std@@V?$allocator@U?$pair@$$CBVString@ctk@@VBit@2@@std@@@5@@std@@@Z 10031200 f i log_logger.obj
 0001:00030260       ??$update_random@V?$map@VString@ctk@@VBit@2@U?$less@VString@ctk@@@std@@V?$allocator@U?$pair@$$CBVString@ctk@@VBit@2@@std@@@5@@std@@@ntv@pml@ctk@@YAABVUnit@012@ABV3012@AAV?$map@VString@ctk@@VBit@2@U?$less@VString@ctk@@@std@@V?$allocator@U?$pair@$$CBVString@ctk@@VBit@2@@std@@@5@@std@@@Z 10031260 f i log_logger.obj
 0001:00030290       ??$output_@Vconst_iterator@?$_Tree@V?$_Tmap_traits@VString@ctk@@VBit@2@U?$less@VString@ctk@@@std@@V?$allocator@U?$pair@$$CBVString@ctk@@VBit@2@@std@@@5@$0A@@std@@@std@@@ntv@pml@ctk@@YAAAVUnit@012@AAV3012@U?$pair@Vconst_iterator@?$_Tree@V?$_Tmap_traits@VString@ctk@@VBit@2@U?$less@VString@ctk@@@std@@V?$allocator@U?$pair@$$CBVString@ctk@@VBit@2@@std@@@5@$0A@@std@@@std@@V123@@std@@@Z 10031290 f i log_logger.obj
 0001:00030350       ??$pair_updater@V?$map@VString@ctk@@VBit@2@U?$less@VString@ctk@@@std@@V?$allocator@U?$pair@$$CBVString@ctk@@VBit@2@@std@@@5@@std@@@ctk@@YA?AV?$pair_update_iterator@V?$map@VString@ctk@@VBit@2@U?$less@VString@ctk@@@std@@V?$allocator@U?$pair@$$CBVString@ctk@@VBit@2@@std@@@5@@std@@@0@AAV?$map@VString@ctk@@VBit@2@U?$less@VString@ctk@@@std@@V?$allocator@U?$pair@$$CBVString@ctk@@VBit@2@@std@@@5@@std@@@Z 10031350 f i log_logger.obj
 0001:00030370       ??$input_@V?$pair_update_iterator@V?$map@VString@ctk@@VBit@2@U?$less@VString@ctk@@@std@@V?$allocator@U?$pair@$$CBVString@ctk@@VBit@2@@std@@@5@@std@@@ctk@@@ntv@pml@ctk@@YAABVUnit@012@ABV3012@V?$pair_update_iterator@V?$map@VString@ctk@@VBit@2@U?$less@VString@ctk@@@std@@V?$allocator@U?$pair@$$CBVString@ctk@@VBit@2@@std@@@5@@std@@@2@@Z 10031370 f i log_logger.obj
 0001:00030450       ??0?$pair@$$CBVString@ctk@@VBit@2@@std@@QAE@XZ 10031450 f i log_logger.obj
 0001:000304b0       ??0?$pair_update_iterator@V?$map@VString@ctk@@VBit@2@U?$less@VString@ctk@@@std@@V?$allocator@U?$pair@$$CBVString@ctk@@VBit@2@@std@@@5@@std@@@ctk@@QAE@AAV?$map@VString@ctk@@VBit@2@U?$less@VString@ctk@@@std@@V?$allocator@U?$pair@$$CBVString@ctk@@VBit@2@@std@@@5@@std@@@Z 100314b0 f i log_logger.obj
 0001:000304d0       ??4?$pair_update_iterator@V?$map@VString@ctk@@VBit@2@U?$less@VString@ctk@@@std@@V?$allocator@U?$pair@$$CBVString@ctk@@VBit@2@@std@@@5@@std@@@ctk@@QAEAAV01@ABU?$pair@$$CBVString@ctk@@VBit@2@@std@@@Z 100314d0 f i log_logger.obj
 0001:00030510       ??D?$pair_update_iterator@V?$map@VString@ctk@@VBit@2@U?$less@VString@ctk@@@std@@V?$allocator@U?$pair@$$CBVString@ctk@@VBit@2@@std@@@5@@std@@@ctk@@QAEAAV01@XZ 10031510 f i log_logger.obj
 0001:00030520       ??D?$_Vector_const_iterator@PAVUnit@ntv@pml@ctk@@V?$allocator@PAVUnit@ntv@pml@ctk@@@std@@@std@@QBEABQAVUnit@ntv@pml@ctk@@XZ 10031520 f i log_logger.obj
 0001:00030570       ??E?$_Vector_const_iterator@PAVUnit@ntv@pml@ctk@@V?$allocator@PAVUnit@ntv@pml@ctk@@@std@@@std@@QAEAAV01@XZ 10031570 f i log_logger.obj
 0001:000305d0       ??9?$_Vector_const_iterator@PAVUnit@ntv@pml@ctk@@V?$allocator@PAVUnit@ntv@pml@ctk@@@std@@@std@@QBE_NABV01@@Z 100315d0 f i log_logger.obj
 0001:00030600       ?erase@?$_Tree@V?$_Tmap_traits@VString@ctk@@VBit@2@U?$less@VString@ctk@@@std@@V?$allocator@U?$pair@$$CBVString@ctk@@VBit@2@@std@@@5@$0A@@std@@@std@@QAEIABVString@ctk@@@Z 10031600 f i log_logger.obj
 0001:00030680       ??8?$_Vector_const_iterator@PAVUnit@ntv@pml@ctk@@V?$allocator@PAVUnit@ntv@pml@ctk@@@std@@@std@@QBE_NABV01@@Z 10031680 f i log_logger.obj
 0001:000306d0       ?equal_range@?$_Tree@V?$_Tmap_traits@VString@ctk@@VBit@2@U?$less@VString@ctk@@@std@@V?$allocator@U?$pair@$$CBVString@ctk@@VBit@2@@std@@@5@$0A@@std@@@std@@QAE?AU?$pair@Viterator@?$_Tree@V?$_Tmap_traits@VString@ctk@@VBit@2@U?$less@VString@ctk@@@std@@V?$allocator@U?$pair@$$CBVString@ctk@@VBit@2@@std@@@5@$0A@@std@@@std@@V123@@2@ABVString@ctk@@@Z 100316d0 f i log_logger.obj
 0001:000306f0       ?_Eqrange@?$_Tree@V?$_Tmap_traits@VString@ctk@@VBit@2@U?$less@VString@ctk@@@std@@V?$allocator@U?$pair@$$CBVString@ctk@@VBit@2@@std@@@5@$0A@@std@@@std@@IAE?AU?$pair@Viterator@?$_Tree@V?$_Tmap_traits@VString@ctk@@VBit@2@U?$less@VString@ctk@@@std@@V?$allocator@U?$pair@$$CBVString@ctk@@VBit@2@@std@@@5@$0A@@std@@@std@@V123@@2@ABVString@ctk@@@Z 100316f0 f i log_logger.obj
 0001:000308a0       ??0?$pair@Viterator@?$_Tree@V?$_Tmap_traits@VString@ctk@@VBit@2@U?$less@VString@ctk@@@std@@V?$allocator@U?$pair@$$CBVString@ctk@@VBit@2@@std@@@5@$0A@@std@@@std@@V123@@std@@QAE@ABViterator@?$_Tree@V?$_Tmap_traits@VString@ctk@@VBit@2@U?$less@VString@ctk@@@std@@V?$allocator@U?$pair@$$CBVString@ctk@@VBit@2@@std@@@5@$0A@@std@@@1@0@Z 100318a0 f i log_logger.obj
 0001:000308e0       ??$?6$$CBVString@ctk@@VBit@1@@ntv@pml@ctk@@YAXAAVUnit@012@ABU?$pair@$$CBVString@ctk@@VBit@2@@std@@@Z 100318e0 f i log_logger.obj
 0001:00030910       ??$?5VString@ctk@@VBit@1@@ntv@pml@ctk@@YAXABVUnit@012@AAU?$pair@$$CBVString@ctk@@VBit@2@@std@@@Z 10031910 f i log_logger.obj
 0001:00030940       ??$_Distance@Viterator@?$_Tree@V?$_Tmap_traits@VString@ctk@@VBit@2@U?$less@VString@ctk@@@std@@V?$allocator@U?$pair@$$CBVString@ctk@@VBit@2@@std@@@5@$0A@@std@@@std@@I@std@@YAXViterator@?$_Tree@V?$_Tmap_traits@VString@ctk@@VBit@2@U?$less@VString@ctk@@@std@@V?$allocator@U?$pair@$$CBVString@ctk@@VBit@2@@std@@@5@$0A@@std@@@0@0AAI@Z 10031940 f i log_logger.obj
 0001:00030980       ??$_Iter_cat@Viterator@?$_Tree@V?$_Tmap_traits@VString@ctk@@VBit@2@U?$less@VString@ctk@@@std@@V?$allocator@U?$pair@$$CBVString@ctk@@VBit@2@@std@@@5@$0A@@std@@@std@@@std@@YA?AUbidirectional_iterator_tag@0@ABViterator@?$_Tree@V?$_Tmap_traits@VString@ctk@@VBit@2@U?$less@VString@ctk@@@std@@V?$allocator@U?$pair@$$CBVString@ctk@@VBit@2@@std@@@5@$0A@@std@@@0@@Z 10031980 f i log_logger.obj
 0001:00030990       ??$_Distance2@Viterator@?$_Tree@V?$_Tmap_traits@VString@ctk@@VBit@2@U?$less@VString@ctk@@@std@@V?$allocator@U?$pair@$$CBVString@ctk@@VBit@2@@std@@@5@$0A@@std@@@std@@I@std@@YAXViterator@?$_Tree@V?$_Tmap_traits@VString@ctk@@VBit@2@U?$less@VString@ctk@@@std@@V?$allocator@U?$pair@$$CBVString@ctk@@VBit@2@@std@@@5@$0A@@std@@@0@0AAIUbidirectional_iterator_tag@0@@Z 10031990 f i log_logger.obj
 0001:000309d0       ??Eiterator@?$_Tree@V?$_Tmap_traits@VString@ctk@@VBit@2@U?$less@VString@ctk@@@std@@V?$allocator@U?$pair@$$CBVString@ctk@@VBit@2@@std@@@5@$0A@@std@@@std@@QAEAAV012@XZ 100319d0 f i log_logger.obj
 0001:000309f0       ?rename@ACE_OS@@YAHPBD0H@Z 100319f0 f i log_logger.obj
 0001:00030af0       ?set_errno_to_last_error@ACE_OS@@YAHXZ 10031af0 f i log_logger.obj
 0001:00030b20       ??MString@ctk@@QBE_NABV01@@Z 10031b20 f i log_logger.obj
 0001:00030b50       ??8String@ctk@@QBE_NPBD@Z  10031b50 f i log_logger.obj
 0001:00030b90       ??$?5VString@ctk@@@ctk@@YA_NABVString@0@AAV10@@Z 10031b90 f i log_logger.obj
 0001:00030bb0       ??0logger@ctk@@QAE@XZ      10031bb0 f i log_logger.obj
 0001:00030bd0       ??0?$fpos@H@std@@QAE@J@Z   10031bd0 f i log_logger.obj
 0001:00030c10       ??B?$fpos@H@std@@QBEJXZ    10031c10 f i log_logger.obj
 0001:00030c30       ?g__tssCallStack@ctk@@YAAAPAV?$map@UThreadId@ctk@@VCallStack@2@@mt@1@XZ 10031c30 f   log_tracer.obj
 0001:00030c50       ??0tracer@ctk@@AAE@XZ      10031c50 f   log_tracer.obj
 0001:00030c70       ??1tracer@ctk@@AAE@XZ      10031c70 f   log_tracer.obj
 0001:00030c80       ?callStack@tracer@ctk@@QAEAAVCallStack@2@XZ 10031c80 f   log_tracer.obj
 0001:00030d10       ?callStack@tracer@ctk@@QBEABVCallStack@2@XZ 10031d10 f   log_tracer.obj
 0001:00030da0       ?destroy_current_stack@tracer@ctk@@QAEXXZ 10031da0 f   log_tracer.obj
 0001:00030e20       ?separator@tracer@ctk@@QBEABV12@PBD@Z 10031e20 f   log_tracer.obj
 0001:00030e50       ?separator@tracer@ctk@@QBE?AUistr@2@XZ 10031e50 f   log_tracer.obj
 0001:00030e80       ?container@tracer@ctk@@QAEAAV?$stack@VCurrent@ctk@@V?$deque@VCurrent@ctk@@V?$allocator@VCurrent@ctk@@@std@@@std@@@2@XZ 10031e80 f   log_tracer.obj
 0001:00030ea0       ?container@tracer@ctk@@QBEABV?$stack@VCurrent@ctk@@V?$deque@VCurrent@ctk@@V?$allocator@VCurrent@ctk@@@std@@@std@@@2@XZ 10031ea0 f   log_tracer.obj
 0001:00030ec0       ??0TraceEntry@ctk@@QAE@AAVlogger@1@PBDI1W4LogType@01@1@Z 10031ec0 f   log_tracer.obj
 0001:00030f80       ??1TraceEntry@ctk@@QAE@XZ  10031f80 f   log_tracer.obj
 0001:00031060       ?writeLog@TraceEntry@ctk@@AAEX_NPBDDK@Z 10032060 f   log_tracer.obj
 0001:00031360       ?indentString@TraceEntry@ctk@@SAXAAV?$basic_string@DU?$char_traits@D@std@@V?$allocator@D@2@@std@@KD@Z 10032360 f   log_tracer.obj
 0001:000313b0       ?logType@TraceEntry@ctk@@QAEAAW4LogType@12@XZ 100323b0 f   log_tracer.obj
 0001:000313d0       ?logType@TraceEntry@ctk@@QBE?AW4LogType@12@XZ 100323d0 f   log_tracer.obj
 0001:000313f0       ?addType@TraceEntry@ctk@@QAEXW4LogType@12@@Z 100323f0 f   log_tracer.obj
 0001:00031410       ?info@TraceEntry@ctk@@QAEAAV?$basic_string@DU?$char_traits@D@std@@V?$allocator@D@2@@std@@XZ 10032410 f   log_tracer.obj
 0001:00031430       ?info@TraceEntry@ctk@@QBEABV?$basic_string@DU?$char_traits@D@std@@V?$allocator@D@2@@std@@XZ 10032430 f   log_tracer.obj
 0001:00031450       ?instance@tracer@ctk@@SAAAPAV12@XZ 10032450 f   log_tracer.obj
 0001:00031470       ?destroy@tracer@ctk@@SAXXZ 10032470 f   log_tracer.obj
 0001:00031480       ?push@tracer@ctk@@QAEXPBDI0@Z 10032480 f   log_tracer.obj
 0001:00031500       ?pop@tracer@ctk@@QAEXXZ    10032500 f   log_tracer.obj
 0001:00031530       ?dump@tracer@ctk@@QBEAAV?$basic_ostream@DU?$char_traits@D@std@@@std@@AAV34@@Z 10032530 f   log_tracer.obj
 0001:00031560       ?dump@tracer@ctk@@QBEAAVdumper@2@AAV32@@Z 10032560 f   log_tracer.obj
 0001:000316e0       ??6ctk@@YAAAVdumper@0@AAV10@ABVCurrent@0@@Z 100326e0 f   log_tracer.obj
 0001:000319a0       ??6ctk@@YAAAVdumper@0@AAV10@ABVCallStack@0@@Z 100329a0 f   log_tracer.obj
 0001:00031b90       ?printTraceStack@ctk@@YAXAAV?$basic_ostream@DU?$char_traits@D@std@@@std@@@Z 10032b90 f   log_tracer.obj
 0001:00031bb0       ?empty@?$stack@VCurrent@ctk@@V?$deque@VCurrent@ctk@@V?$allocator@VCurrent@ctk@@@std@@@std@@@std@@QBE_NXZ 10032bb0 f i log_tracer.obj
 0001:00031bd0       ?size@?$stack@VCurrent@ctk@@V?$deque@VCurrent@ctk@@V?$allocator@VCurrent@ctk@@@std@@@std@@@std@@QBEIXZ 10032bd0 f i log_tracer.obj
 0001:00031bf0       ?top@?$stack@VCurrent@ctk@@V?$deque@VCurrent@ctk@@V?$allocator@VCurrent@ctk@@@std@@@std@@@std@@QAEAAVCurrent@ctk@@XZ 10032bf0 f i log_tracer.obj
 0001:00031c10       ?push@?$stack@VCurrent@ctk@@V?$deque@VCurrent@ctk@@V?$allocator@VCurrent@ctk@@@std@@@std@@@std@@QAEXABVCurrent@ctk@@@Z 10032c10 f i log_tracer.obj
 0001:00031c30       ?pop@?$stack@VCurrent@ctk@@V?$deque@VCurrent@ctk@@V?$allocator@VCurrent@ctk@@@std@@@std@@@std@@QAEXXZ 10032c30 f i log_tracer.obj
 0001:00031c50       ?instance@?$Singleton_T@V?$map@UThreadId@ctk@@VCallStack@2@@mt@ctk@@@ctk@@SAAAPAV?$map@UThreadId@ctk@@VCallStack@2@@mt@2@PBDI0@Z 10032c50 f i log_tracer.obj
 0001:00031ce0       ?destroy@?$Singleton_T@V?$map@UThreadId@ctk@@VCallStack@2@@mt@ctk@@@ctk@@SAXXZ 10032ce0 f i log_tracer.obj
 0001:00031d60       ?erase@?$map@UThreadId@ctk@@VCallStack@2@@mt@ctk@@QAEKABUThreadId@3@@Z 10032d60 f i log_tracer.obj
 0001:00031dd0       ?unsafe_at@?$map@UThreadId@ctk@@VCallStack@2@@mt@ctk@@QAEAAVCallStack@3@ABUThreadId@3@@Z 10032dd0 f i log_tracer.obj
 0001:00031e40       ?instance@?$Singleton_T@Vtracer@ctk@@@ctk@@SAAAPAVtracer@2@PBDI0@Z 10032e40 f i log_tracer.obj
 0001:00031ed0       ?destroy@?$Singleton_T@Vtracer@ctk@@@ctk@@SAXXZ 10032ed0 f i log_tracer.obj
 0001:00031f50       ?size@?$deque@VCurrent@ctk@@V?$allocator@VCurrent@ctk@@@std@@@std@@QBEIXZ 10032f50 f i log_tracer.obj
 0001:00031f70       ?back@?$deque@VCurrent@ctk@@V?$allocator@VCurrent@ctk@@@std@@@std@@QAEAAVCurrent@ctk@@XZ 10032f70 f i log_tracer.obj
 0001:00031fa0       ?mtx@?$Singleton_T@V?$map@UThreadId@ctk@@VCallStack@2@@mt@ctk@@@ctk@@CAAAVMutex@2@XZ 10032fa0 f i log_tracer.obj
 0001:00032020       ?ptr@?$Singleton_T@V?$map@UThreadId@ctk@@VCallStack@2@@mt@ctk@@@ctk@@CAAAPAV?$map@UThreadId@ctk@@VCallStack@2@@mt@2@XZ 10033020 f i log_tracer.obj
 0001:00032030       ??A?$map@UThreadId@ctk@@VCallStack@2@U?$less@UThreadId@ctk@@@std@@V?$allocator@U?$pair@$$CBUThreadId@ctk@@VCallStack@2@@std@@@5@@std@@QAEAAVCallStack@ctk@@ABUThreadId@3@@Z 10033030 f i log_tracer.obj
 0001:00032190       ?erase@?$_Tree@V?$_Tmap_traits@UThreadId@ctk@@VCallStack@2@U?$less@UThreadId@ctk@@@std@@V?$allocator@U?$pair@$$CBUThreadId@ctk@@VCallStack@2@@std@@@5@$0A@@std@@@std@@QAEIABUThreadId@ctk@@@Z 10033190 f i log_tracer.obj
 0001:00032210       ?mtx@?$Singleton_T@Vtracer@ctk@@@ctk@@CAAAVMutex@2@XZ 10033210 f i log_tracer.obj
 0001:00032290       ?ptr@?$Singleton_T@Vtracer@ctk@@@ctk@@CAAAPAVtracer@2@XZ 10033290 f i log_tracer.obj
 0001:000322a0       ??1?$pair@$$CBUThreadId@ctk@@VCallStack@2@@std@@QAE@XZ 100332a0 f i log_tracer.obj
 0001:000322f0       ?_Key@?$_Tree@V?$_Tmap_traits@UThreadId@ctk@@VCallStack@2@U?$less@UThreadId@ctk@@@std@@V?$allocator@U?$pair@$$CBUThreadId@ctk@@VCallStack@2@@std@@@5@$0A@@std@@@std@@KAABUThreadId@ctk@@PAU_Node@?$_Tree_nod@V?$_Tmap_traits@UThreadId@ctk@@VCallStack@2@U?$less@UThreadId@ctk@@@std@@V?$allocator@U?$pair@$$CBUThreadId@ctk@@VCallStack@2@@std@@@5@$0A@@std@@@2@@Z 100332f0 f i log_tracer.obj
 0001:00032310       ?end@?$_Tree@V?$_Tmap_traits@UThreadId@ctk@@VCallStack@2@U?$less@UThreadId@ctk@@@std@@V?$allocator@U?$pair@$$CBUThreadId@ctk@@VCallStack@2@@std@@@5@$0A@@std@@@std@@QAE?AViterator@12@XZ 10033310 f i log_tracer.obj
 0001:00032340       ?insert@?$_Tree@V?$_Tmap_traits@UThreadId@ctk@@VCallStack@2@U?$less@UThreadId@ctk@@@std@@V?$allocator@U?$pair@$$CBUThreadId@ctk@@VCallStack@2@@std@@@5@$0A@@std@@@std@@QAE?AViterator@12@Vconst_iterator@12@ABU?$pair@$$CBUThreadId@ctk@@VCallStack@2@@2@@Z 10033340 f i log_tracer.obj
 0001:00032960       ?erase@?$_Tree@V?$_Tmap_traits@UThreadId@ctk@@VCallStack@2@U?$less@UThreadId@ctk@@@std@@V?$allocator@U?$pair@$$CBUThreadId@ctk@@VCallStack@2@@std@@@5@$0A@@std@@@std@@QAE?AViterator@12@Vconst_iterator@12@0@Z 10033960 f i log_tracer.obj
 0001:00032a10       ?lower_bound@?$_Tree@V?$_Tmap_traits@UThreadId@ctk@@VCallStack@2@U?$less@UThreadId@ctk@@@std@@V?$allocator@U?$pair@$$CBUThreadId@ctk@@VCallStack@2@@std@@@5@$0A@@std@@@std@@QAE?AViterator@12@ABUThreadId@ctk@@@Z 10033a10 f i log_tracer.obj
 0001:00032a40       ?equal_range@?$_Tree@V?$_Tmap_traits@UThreadId@ctk@@VCallStack@2@U?$less@UThreadId@ctk@@@std@@V?$allocator@U?$pair@$$CBUThreadId@ctk@@VCallStack@2@@std@@@5@$0A@@std@@@std@@QAE?AU?$pair@Viterator@?$_Tree@V?$_Tmap_traits@UThreadId@ctk@@VCallStack@2@U?$less@UThreadId@ctk@@@std@@V?$allocator@U?$pair@$$CBUThreadId@ctk@@VCallStack@2@@std@@@5@$0A@@std@@@std@@V123@@2@ABUThreadId@ctk@@@Z 10033a40 f i log_tracer.obj
 0001:00032a60       ??R?$less@UThreadId@ctk@@@std@@QBE_NABUThreadId@ctk@@0@Z 10033a60 f i log_tracer.obj
 0001:00032a90       ??8const_iterator@?$_Tree@V?$_Tmap_traits@UThreadId@ctk@@VCallStack@2@U?$less@UThreadId@ctk@@@std@@V?$allocator@U?$pair@$$CBUThreadId@ctk@@VCallStack@2@@std@@@5@$0A@@std@@@std@@QBE_NABV012@@Z 10033a90 f i log_tracer.obj
 0001:00032ae0       ?_Mynode@const_iterator@?$_Tree@V?$_Tmap_traits@UThreadId@ctk@@VCallStack@2@U?$less@UThreadId@ctk@@@std@@V?$allocator@U?$pair@$$CBUThreadId@ctk@@VCallStack@2@@std@@@5@$0A@@std@@@std@@QBEPAU_Node@?$_Tree_nod@V?$_Tmap_traits@UThreadId@ctk@@VCallStack@2@U?$less@UThreadId@ctk@@@std@@V?$allocator@U?$pair@$$CBUThreadId@ctk@@VCallStack@2@@std@@@5@$0A@@std@@@3@XZ 10033ae0 f i log_tracer.obj
 0001:00032b00       ??Diterator@?$_Tree@V?$_Tmap_traits@UThreadId@ctk@@VCallStack@2@U?$less@UThreadId@ctk@@@std@@V?$allocator@U?$pair@$$CBUThreadId@ctk@@VCallStack@2@@std@@@5@$0A@@std@@@std@@QBEAAU?$pair@$$CBUThreadId@ctk@@VCallStack@2@@2@XZ 10033b00 f i log_tracer.obj
 0001:00032b20       ??0?$pair@$$CBUThreadId@ctk@@VCallStack@2@@std@@QAE@ABUThreadId@ctk@@ABVCallStack@3@@Z 10033b20 f i log_tracer.obj
 0001:00032b90       ?_Isnil@?$_Tree@V?$_Tmap_traits@UThreadId@ctk@@VCallStack@2@U?$less@UThreadId@ctk@@@std@@V?$allocator@U?$pair@$$CBUThreadId@ctk@@VCallStack@2@@std@@@5@$0A@@std@@@std@@KAAADPAU_Node@?$_Tree_nod@V?$_Tmap_traits@UThreadId@ctk@@VCallStack@2@U?$less@UThreadId@ctk@@@std@@V?$allocator@U?$pair@$$CBUThreadId@ctk@@VCallStack@2@@std@@@5@$0A@@std@@@2@@Z 10033b90 f i log_tracer.obj
 0001:00032ba0       ?_Right@?$_Tree@V?$_Tmap_traits@UThreadId@ctk@@VCallStack@2@U?$less@UThreadId@ctk@@@std@@V?$allocator@U?$pair@$$CBUThreadId@ctk@@VCallStack@2@@std@@@5@$0A@@std@@@std@@KAAAPAU_Node@?$_Tree_nod@V?$_Tmap_traits@UThreadId@ctk@@VCallStack@2@U?$less@UThreadId@ctk@@@std@@V?$allocator@U?$pair@$$CBUThreadId@ctk@@VCallStack@2@@std@@@5@$0A@@std@@@2@PAU342@@Z 10033ba0 f i log_tracer.obj
 0001:00032bb0       ?_Myval@?$_Tree@V?$_Tmap_traits@UThreadId@ctk@@VCallStack@2@U?$less@UThreadId@ctk@@@std@@V?$allocator@U?$pair@$$CBUThreadId@ctk@@VCallStack@2@@std@@@5@$0A@@std@@@std@@KAAAU?$pair@$$CBUThreadId@ctk@@VCallStack@2@@2@PAU_Node@?$_Tree_nod@V?$_Tmap_traits@UThreadId@ctk@@VCallStack@2@U?$less@UThreadId@ctk@@@std@@V?$allocator@U?$pair@$$CBUThreadId@ctk@@VCallStack@2@@std@@@5@$0A@@std@@@2@@Z 10033bb0 f i log_tracer.obj
 0001:00032bc0       ?begin@?$_Tree@V?$_Tmap_traits@UThreadId@ctk@@VCallStack@2@U?$less@UThreadId@ctk@@@std@@V?$allocator@U?$pair@$$CBUThreadId@ctk@@VCallStack@2@@std@@@5@$0A@@std@@@std@@QAE?AViterator@12@XZ 10033bc0 f i log_tracer.obj
 0001:00032bf0       ?_Make_iter@?$_Tree@V?$_Tmap_traits@UThreadId@ctk@@VCallStack@2@U?$less@UThreadId@ctk@@@std@@V?$allocator@U?$pair@$$CBUThreadId@ctk@@VCallStack@2@@std@@@5@$0A@@std@@@std@@QBE?AViterator@12@Vconst_iterator@12@@Z 10033bf0 f i log_tracer.obj
 0001:00032c20       ?size@?$_Tree@V?$_Tmap_traits@UThreadId@ctk@@VCallStack@2@U?$less@UThreadId@ctk@@@std@@V?$allocator@U?$pair@$$CBUThreadId@ctk@@VCallStack@2@@std@@@5@$0A@@std@@@std@@QBEIXZ 10033c20 f i log_tracer.obj
 0001:00032c40       ?insert@?$_Tree@V?$_Tmap_traits@UThreadId@ctk@@VCallStack@2@U?$less@UThreadId@ctk@@@std@@V?$allocator@U?$pair@$$CBUThreadId@ctk@@VCallStack@2@@std@@@5@$0A@@std@@@std@@QAE?AU?$pair@Viterator@?$_Tree@V?$_Tmap_traits@UThreadId@ctk@@VCallStack@2@U?$less@UThreadId@ctk@@@std@@V?$allocator@U?$pair@$$CBUThreadId@ctk@@VCallStack@2@@std@@@5@$0A@@std@@@std@@_N@2@ABU?$pair@$$CBUThreadId@ctk@@VCallStack@2@@2@@Z 10033c40 f i log_tracer.obj
 0001:00032e10       ?erase@?$_Tree@V?$_Tmap_traits@UThreadId@ctk@@VCallStack@2@U?$less@UThreadId@ctk@@@std@@V?$allocator@U?$pair@$$CBUThreadId@ctk@@VCallStack@2@@std@@@5@$0A@@std@@@std@@QAE?AViterator@12@Vconst_iterator@12@@Z 10033e10 f i log_tracer.obj
 0001:000335f0       ?clear@?$_Tree@V?$_Tmap_traits@UThreadId@ctk@@VCallStack@2@U?$less@UThreadId@ctk@@@std@@V?$allocator@U?$pair@$$CBUThreadId@ctk@@VCallStack@2@@std@@@5@$0A@@std@@@std@@QAEXXZ 100345f0 f i log_tracer.obj
 0001:00033650       ?_Eqrange@?$_Tree@V?$_Tmap_traits@UThreadId@ctk@@VCallStack@2@U?$less@UThreadId@ctk@@@std@@V?$allocator@U?$pair@$$CBUThreadId@ctk@@VCallStack@2@@std@@@5@$0A@@std@@@std@@IAE?AU?$pair@Viterator@?$_Tree@V?$_Tmap_traits@UThreadId@ctk@@VCallStack@2@U?$less@UThreadId@ctk@@@std@@V?$allocator@U?$pair@$$CBUThreadId@ctk@@VCallStack@2@@std@@@5@$0A@@std@@@std@@V123@@2@ABUThreadId@ctk@@@Z 10034650 f i log_tracer.obj
 0001:00033800       ?_Insert@?$_Tree@V?$_Tmap_traits@UThreadId@ctk@@VCallStack@2@U?$less@UThreadId@ctk@@@std@@V?$allocator@U?$pair@$$CBUThreadId@ctk@@VCallStack@2@@std@@@5@$0A@@std@@@std@@IAE?AViterator@12@_NPAU_Node@?$_Tree_nod@V?$_Tmap_traits@UThreadId@ctk@@VCallStack@2@U?$less@UThreadId@ctk@@@std@@V?$allocator@U?$pair@$$CBUThreadId@ctk@@VCallStack@2@@std@@@5@$0A@@std@@@2@ABU?$pair@$$CBUThreadId@ctk@@VCallStack@2@@2@@Z 10034800 f i log_tracer.obj
 0001:00033c80       ?_Lbound@?$_Tree@V?$_Tmap_traits@UThreadId@ctk@@VCallStack@2@U?$less@UThreadId@ctk@@@std@@V?$allocator@U?$pair@$$CBUThreadId@ctk@@VCallStack@2@@std@@@5@$0A@@std@@@std@@IBEPAU_Node@?$_Tree_nod@V?$_Tmap_traits@UThreadId@ctk@@VCallStack@2@U?$less@UThreadId@ctk@@@std@@V?$allocator@U?$pair@$$CBUThreadId@ctk@@VCallStack@2@@std@@@5@$0A@@std@@@2@ABUThreadId@ctk@@@Z 10034c80 f i log_tracer.obj
 0001:00033d10       ?_Rmost@?$_Tree@V?$_Tmap_traits@UThreadId@ctk@@VCallStack@2@U?$less@UThreadId@ctk@@@std@@V?$allocator@U?$pair@$$CBUThreadId@ctk@@VCallStack@2@@std@@@5@$0A@@std@@@std@@IBEAAPAU_Node@?$_Tree_nod@V?$_Tmap_traits@UThreadId@ctk@@VCallStack@2@U?$less@UThreadId@ctk@@@std@@V?$allocator@U?$pair@$$CBUThreadId@ctk@@VCallStack@2@@std@@@5@$0A@@std@@@2@XZ 10034d10 f i log_tracer.obj
 0001:00033d30       ?_Kfn@?$_Tmap_traits@UThreadId@ctk@@VCallStack@2@U?$less@UThreadId@ctk@@@std@@V?$allocator@U?$pair@$$CBUThreadId@ctk@@VCallStack@2@@std@@@5@$0A@@std@@SAABUThreadId@ctk@@ABU?$pair@$$CBUThreadId@ctk@@VCallStack@2@@2@@Z 10034d30 f i log_tracer.obj
 0001:00033d40       ??0const_iterator@?$_Tree@V?$_Tmap_traits@UThreadId@ctk@@VCallStack@2@U?$less@UThreadId@ctk@@@std@@V?$allocator@U?$pair@$$CBUThreadId@ctk@@VCallStack@2@@std@@@5@$0A@@std@@@std@@QAE@XZ 10034d40 f i log_tracer.obj
 0001:00033d60       ??Dconst_iterator@?$_Tree@V?$_Tmap_traits@UThreadId@ctk@@VCallStack@2@U?$less@UThreadId@ctk@@@std@@V?$allocator@U?$pair@$$CBUThreadId@ctk@@VCallStack@2@@std@@@5@$0A@@std@@@std@@QBEABU?$pair@$$CBUThreadId@ctk@@VCallStack@2@@2@XZ 10034d60 f i log_tracer.obj
 0001:00033db0       ??Econst_iterator@?$_Tree@V?$_Tmap_traits@UThreadId@ctk@@VCallStack@2@U?$less@UThreadId@ctk@@@std@@V?$allocator@U?$pair@$$CBUThreadId@ctk@@VCallStack@2@@std@@@5@$0A@@std@@@std@@QAEAAV012@XZ 10034db0 f i log_tracer.obj
 0001:00033dd0       ??Econst_iterator@?$_Tree@V?$_Tmap_traits@UThreadId@ctk@@VCallStack@2@U?$less@UThreadId@ctk@@@std@@V?$allocator@U?$pair@$$CBUThreadId@ctk@@VCallStack@2@@std@@@5@$0A@@std@@@std@@QAE?AV012@H@Z 10034dd0 f i log_tracer.obj
 0001:00033e10       ??Fconst_iterator@?$_Tree@V?$_Tmap_traits@UThreadId@ctk@@VCallStack@2@U?$less@UThreadId@ctk@@@std@@V?$allocator@U?$pair@$$CBUThreadId@ctk@@VCallStack@2@@std@@@5@$0A@@std@@@std@@QAEAAV012@XZ 10034e10 f i log_tracer.obj
 0001:00033e30       ??9const_iterator@?$_Tree@V?$_Tmap_traits@UThreadId@ctk@@VCallStack@2@U?$less@UThreadId@ctk@@@std@@V?$allocator@U?$pair@$$CBUThreadId@ctk@@VCallStack@2@@std@@@5@$0A@@std@@@std@@QBE_NABV012@@Z 10034e30 f i log_tracer.obj
 0001:00033e60       ??0iterator@?$_Tree@V?$_Tmap_traits@UThreadId@ctk@@VCallStack@2@U?$less@UThreadId@ctk@@@std@@V?$allocator@U?$pair@$$CBUThreadId@ctk@@VCallStack@2@@std@@@5@$0A@@std@@@std@@QAE@PAU_Node@?$_Tree_nod@V?$_Tmap_traits@UThreadId@ctk@@VCallStack@2@U?$less@UThreadId@ctk@@@std@@V?$allocator@U?$pair@$$CBUThreadId@ctk@@VCallStack@2@@std@@@5@$0A@@std@@@2@PBV12@@Z 10034e60 f i log_tracer.obj
 0001:00033e80       ??0?$_Bidit@U?$pair@$$CBUThreadId@ctk@@VCallStack@2@@std@@HPBU12@ABU12@@std@@QAE@XZ 10034e80 f i log_tracer.obj
 0001:00033ea0       ??0?$_Iterator_with_base@Ubidirectional_iterator_tag@std@@U?$pair@$$CBUThreadId@ctk@@VCallStack@2@@2@HPBU32@ABU32@V_Iterator_base_aux@2@@std@@QAE@XZ 10034ea0 f i log_tracer.obj
 0001:00033ec0       ?_Color@?$_Tree@V?$_Tmap_traits@UThreadId@ctk@@VCallStack@2@U?$less@UThreadId@ctk@@@std@@V?$allocator@U?$pair@$$CBUThreadId@ctk@@VCallStack@2@@std@@@5@$0A@@std@@@std@@KAAADPAU_Node@?$_Tree_nod@V?$_Tmap_traits@UThreadId@ctk@@VCallStack@2@U?$less@UThreadId@ctk@@@std@@V?$allocator@U?$pair@$$CBUThreadId@ctk@@VCallStack@2@@std@@@5@$0A@@std@@@2@@Z 10034ec0 f i log_tracer.obj
 0001:00033ed0       ?_Left@?$_Tree@V?$_Tmap_traits@UThreadId@ctk@@VCallStack@2@U?$less@UThreadId@ctk@@@std@@V?$allocator@U?$pair@$$CBUThreadId@ctk@@VCallStack@2@@std@@@5@$0A@@std@@@std@@KAAAPAU_Node@?$_Tree_nod@V?$_Tmap_traits@UThreadId@ctk@@VCallStack@2@U?$less@UThreadId@ctk@@@std@@V?$allocator@U?$pair@$$CBUThreadId@ctk@@VCallStack@2@@std@@@5@$0A@@std@@@2@PAU342@@Z 10034ed0 f i log_tracer.obj
 0001:00033ee0       ?_Parent@?$_Tree@V?$_Tmap_traits@UThreadId@ctk@@VCallStack@2@U?$less@UThreadId@ctk@@@std@@V?$allocator@U?$pair@$$CBUThreadId@ctk@@VCallStack@2@@std@@@5@$0A@@std@@@std@@KAAAPAU_Node@?$_Tree_nod@V?$_Tmap_traits@UThreadId@ctk@@VCallStack@2@U?$less@UThreadId@ctk@@@std@@V?$allocator@U?$pair@$$CBUThreadId@ctk@@VCallStack@2@@std@@@5@$0A@@std@@@2@PAU342@@Z 10034ee0 f i log_tracer.obj
 0001:00033ef0       ?max_size@?$_Tree@V?$_Tmap_traits@UThreadId@ctk@@VCallStack@2@U?$less@UThreadId@ctk@@@std@@V?$allocator@U?$pair@$$CBUThreadId@ctk@@VCallStack@2@@std@@@5@$0A@@std@@@std@@QBEIXZ 10034ef0 f i log_tracer.obj
 0001:00033f10       ?_Erase@?$_Tree@V?$_Tmap_traits@UThreadId@ctk@@VCallStack@2@U?$less@UThreadId@ctk@@@std@@V?$allocator@U?$pair@$$CBUThreadId@ctk@@VCallStack@2@@std@@@5@$0A@@std@@@std@@IAEXPAU_Node@?$_Tree_nod@V?$_Tmap_traits@UThreadId@ctk@@VCallStack@2@U?$less@UThreadId@ctk@@@std@@V?$allocator@U?$pair@$$CBUThreadId@ctk@@VCallStack@2@@std@@@5@$0A@@std@@@2@@Z 10034f10 f i log_tracer.obj
 0001:00033f90       ?_Lmost@?$_Tree@V?$_Tmap_traits@UThreadId@ctk@@VCallStack@2@U?$less@UThreadId@ctk@@@std@@V?$allocator@U?$pair@$$CBUThreadId@ctk@@VCallStack@2@@std@@@5@$0A@@std@@@std@@IBEAAPAU_Node@?$_Tree_nod@V?$_Tmap_traits@UThreadId@ctk@@VCallStack@2@U?$less@UThreadId@ctk@@@std@@V?$allocator@U?$pair@$$CBUThreadId@ctk@@VCallStack@2@@std@@@5@$0A@@std@@@2@XZ 10034f90 f i log_tracer.obj
 0001:00033fb0       ?_Lrotate@?$_Tree@V?$_Tmap_traits@UThreadId@ctk@@VCallStack@2@U?$less@UThreadId@ctk@@@std@@V?$allocator@U?$pair@$$CBUThreadId@ctk@@VCallStack@2@@std@@@5@$0A@@std@@@std@@IAEXPAU_Node@?$_Tree_nod@V?$_Tmap_traits@UThreadId@ctk@@VCallStack@2@U?$less@UThreadId@ctk@@@std@@V?$allocator@U?$pair@$$CBUThreadId@ctk@@VCallStack@2@@std@@@5@$0A@@std@@@2@@Z 10034fb0 f i log_tracer.obj
 0001:000340e0       ?_Max@?$_Tree@V?$_Tmap_traits@UThreadId@ctk@@VCallStack@2@U?$less@UThreadId@ctk@@@std@@V?$allocator@U?$pair@$$CBUThreadId@ctk@@VCallStack@2@@std@@@5@$0A@@std@@@std@@KAPAU_Node@?$_Tree_nod@V?$_Tmap_traits@UThreadId@ctk@@VCallStack@2@U?$less@UThreadId@ctk@@@std@@V?$allocator@U?$pair@$$CBUThreadId@ctk@@VCallStack@2@@std@@@5@$0A@@std@@@2@PAU342@@Z 100350e0 f i log_tracer.obj
 0001:00034120       ?_Min@?$_Tree@V?$_Tmap_traits@UThreadId@ctk@@VCallStack@2@U?$less@UThreadId@ctk@@@std@@V?$allocator@U?$pair@$$CBUThreadId@ctk@@VCallStack@2@@std@@@5@$0A@@std@@@std@@KAPAU_Node@?$_Tree_nod@V?$_Tmap_traits@UThreadId@ctk@@VCallStack@2@U?$less@UThreadId@ctk@@@std@@V?$allocator@U?$pair@$$CBUThreadId@ctk@@VCallStack@2@@std@@@5@$0A@@std@@@2@PAU342@@Z 10035120 f i log_tracer.obj
 0001:00034160       ?_Root@?$_Tree@V?$_Tmap_traits@UThreadId@ctk@@VCallStack@2@U?$less@UThreadId@ctk@@@std@@V?$allocator@U?$pair@$$CBUThreadId@ctk@@VCallStack@2@@std@@@5@$0A@@std@@@std@@IBEAAPAU_Node@?$_Tree_nod@V?$_Tmap_traits@UThreadId@ctk@@VCallStack@2@U?$less@UThreadId@ctk@@@std@@V?$allocator@U?$pair@$$CBUThreadId@ctk@@VCallStack@2@@std@@@5@$0A@@std@@@2@XZ 10035160 f i log_tracer.obj
 0001:00034180       ?_Rrotate@?$_Tree@V?$_Tmap_traits@UThreadId@ctk@@VCallStack@2@U?$less@UThreadId@ctk@@@std@@V?$allocator@U?$pair@$$CBUThreadId@ctk@@VCallStack@2@@std@@@5@$0A@@std@@@std@@IAEXPAU_Node@?$_Tree_nod@V?$_Tmap_traits@UThreadId@ctk@@VCallStack@2@U?$less@UThreadId@ctk@@@std@@V?$allocator@U?$pair@$$CBUThreadId@ctk@@VCallStack@2@@std@@@5@$0A@@std@@@2@@Z 10035180 f i log_tracer.obj
 0001:000342b0       ?_Buynode@?$_Tree@V?$_Tmap_traits@UThreadId@ctk@@VCallStack@2@U?$less@UThreadId@ctk@@@std@@V?$allocator@U?$pair@$$CBUThreadId@ctk@@VCallStack@2@@std@@@5@$0A@@std@@@std@@IAEPAU_Node@?$_Tree_nod@V?$_Tmap_traits@UThreadId@ctk@@VCallStack@2@U?$less@UThreadId@ctk@@@std@@V?$allocator@U?$pair@$$CBUThreadId@ctk@@VCallStack@2@@std@@@5@$0A@@std@@@2@PAU342@00ABU?$pair@$$CBUThreadId@ctk@@VCallStack@2@@2@D@Z 100352b0 f i log_tracer.obj
 0001:00034390       ?deallocate@?$allocator@U_Node@?$_Tree_nod@V?$_Tmap_traits@UThreadId@ctk@@VCallStack@2@U?$less@UThreadId@ctk@@@std@@V?$allocator@U?$pair@$$CBUThreadId@ctk@@VCallStack@2@@std@@@5@$0A@@std@@@std@@@std@@QAEXPAU_Node@?$_Tree_nod@V?$_Tmap_traits@UThreadId@ctk@@VCallStack@2@U?$less@UThreadId@ctk@@@std@@V?$allocator@U?$pair@$$CBUThreadId@ctk@@VCallStack@2@@std@@@5@$0A@@std@@@2@I@Z 10035390 f i log_tracer.obj
 0001:000343b0       ?destroy@?$allocator@U_Node@?$_Tree_nod@V?$_Tmap_traits@UThreadId@ctk@@VCallStack@2@U?$less@UThreadId@ctk@@@std@@V?$allocator@U?$pair@$$CBUThreadId@ctk@@VCallStack@2@@std@@@5@$0A@@std@@@std@@@std@@QAEXPAU_Node@?$_Tree_nod@V?$_Tmap_traits@UThreadId@ctk@@VCallStack@2@U?$less@UThreadId@ctk@@@std@@V?$allocator@U?$pair@$$CBUThreadId@ctk@@VCallStack@2@@std@@@5@$0A@@std@@@2@@Z 100353b0 f i log_tracer.obj
 0001:000343d0       ??0const_iterator@?$_Tree@V?$_Tmap_traits@UThreadId@ctk@@VCallStack@2@U?$less@UThreadId@ctk@@@std@@V?$allocator@U?$pair@$$CBUThreadId@ctk@@VCallStack@2@@std@@@5@$0A@@std@@@std@@QAE@PAU_Node@?$_Tree_nod@V?$_Tmap_traits@UThreadId@ctk@@VCallStack@2@U?$less@UThreadId@ctk@@@std@@V?$allocator@U?$pair@$$CBUThreadId@ctk@@VCallStack@2@@std@@@5@$0A@@std@@@2@PBV12@@Z 100353d0 f i log_tracer.obj
 0001:00034410       ?_Dec@const_iterator@?$_Tree@V?$_Tmap_traits@UThreadId@ctk@@VCallStack@2@U?$less@UThreadId@ctk@@@std@@V?$allocator@U?$pair@$$CBUThreadId@ctk@@VCallStack@2@@std@@@5@$0A@@std@@@std@@QAEXXZ 10035410 f i log_tracer.obj
 0001:00034540       ?_Inc@const_iterator@?$_Tree@V?$_Tmap_traits@UThreadId@ctk@@VCallStack@2@U?$less@UThreadId@ctk@@@std@@V?$allocator@U?$pair@$$CBUThreadId@ctk@@VCallStack@2@@std@@@5@$0A@@std@@@std@@QAEXXZ 10035540 f i log_tracer.obj
 0001:00034620       ??Fiterator@?$_Tree@V?$_Tmap_traits@UThreadId@ctk@@VCallStack@2@U?$less@UThreadId@ctk@@@std@@V?$allocator@U?$pair@$$CBUThreadId@ctk@@VCallStack@2@@std@@@5@$0A@@std@@@std@@QAEAAV012@XZ 10035620 f i log_tracer.obj
 0001:00034640       ??0?$pair@Viterator@?$_Tree@V?$_Tmap_traits@UThreadId@ctk@@VCallStack@2@U?$less@UThreadId@ctk@@@std@@V?$allocator@U?$pair@$$CBUThreadId@ctk@@VCallStack@2@@std@@@5@$0A@@std@@@std@@V123@@std@@QAE@ABViterator@?$_Tree@V?$_Tmap_traits@UThreadId@ctk@@VCallStack@2@U?$less@UThreadId@ctk@@@std@@V?$allocator@U?$pair@$$CBUThreadId@ctk@@VCallStack@2@@std@@@5@$0A@@std@@@1@0@Z 10035640 f i log_tracer.obj
 0001:00034680       ??0?$pair@Viterator@?$_Tree@V?$_Tmap_traits@UThreadId@ctk@@VCallStack@2@U?$less@UThreadId@ctk@@@std@@V?$allocator@U?$pair@$$CBUThreadId@ctk@@VCallStack@2@@std@@@5@$0A@@std@@@std@@_N@std@@QAE@ABViterator@?$_Tree@V?$_Tmap_traits@UThreadId@ctk@@VCallStack@2@U?$less@UThreadId@ctk@@@std@@V?$allocator@U?$pair@$$CBUThreadId@ctk@@VCallStack@2@@std@@@5@$0A@@std@@@1@AB_N@Z 10035680 f i log_tracer.obj
 0001:000346b0       ?max_size@?$allocator@U?$pair@$$CBUThreadId@ctk@@VCallStack@2@@std@@@std@@QBEIXZ 100356b0 f i log_tracer.obj
 0001:000346e0       ?allocate@?$allocator@U_Node@?$_Tree_nod@V?$_Tmap_traits@UThreadId@ctk@@VCallStack@2@U?$less@UThreadId@ctk@@@std@@V?$allocator@U?$pair@$$CBUThreadId@ctk@@VCallStack@2@@std@@@5@$0A@@std@@@std@@@std@@QAEPAU_Node@?$_Tree_nod@V?$_Tmap_traits@UThreadId@ctk@@VCallStack@2@U?$less@UThreadId@ctk@@@std@@V?$allocator@U?$pair@$$CBUThreadId@ctk@@VCallStack@2@@std@@@5@$0A@@std@@@2@I@Z 100356e0 f i log_tracer.obj
 0001:00034700       ??0_Node@?$_Tree_nod@V?$_Tmap_traits@UThreadId@ctk@@VCallStack@2@U?$less@UThreadId@ctk@@@std@@V?$allocator@U?$pair@$$CBUThreadId@ctk@@VCallStack@2@@std@@@5@$0A@@std@@@std@@QAE@PAU012@00ABU?$pair@$$CBUThreadId@ctk@@VCallStack@2@@2@D@Z 10035700 f i log_tracer.obj
 0001:00034790       ??0?$pair@$$CBUThreadId@ctk@@VCallStack@2@@std@@QAE@ABU01@@Z 10035790 f i log_tracer.obj
 0001:00034800       ??$?6D@ctk@@YAAAVString@0@AAV10@ABD@Z 10035800 f i log_tracer.obj
 0001:00034820       ??$?6$$BY05$$CBD@ctk@@YAAAVString@0@AAV10@AAY05$$CBD@Z 10035820 f i log_tracer.obj
 0001:00034840       ??$?6VCurrent@ctk@@@ctk@@YAAAVdumper@0@AAV10@ABV?$stack@VCurrent@ctk@@V?$deque@VCurrent@ctk@@V?$allocator@VCurrent@ctk@@@std@@@std@@@0@@Z 10035840 f i log_tracer.obj
 0001:00034960       ??$allocate@V?$map@UThreadId@ctk@@VCallStack@2@@mt@ctk@@@ctk@@YAPAV?$map@UThreadId@ctk@@VCallStack@2@@mt@0@PBDI0@Z 10035960 f i log_tracer.obj
 0001:00034990       ??$destroy@V?$map@UThreadId@ctk@@VCallStack@2@@mt@ctk@@@ctk@@YAXAAPAV?$map@UThreadId@ctk@@VCallStack@2@@mt@0@PBDI1@Z 10035990 f i log_tracer.obj
 0001:000349d0       ??$allocate@Vtracer@ctk@@@ctk@@YAPAVtracer@0@PBDI0@Z 100359d0 f i log_tracer.obj
 0001:00034a00       ??$destroy@Vtracer@ctk@@@ctk@@YAXAAPAVtracer@0@PBDI1@Z 10035a00 f i log_tracer.obj
 0001:00034a40       ??$_Distance@Viterator@?$_Tree@V?$_Tmap_traits@UThreadId@ctk@@VCallStack@2@U?$less@UThreadId@ctk@@@std@@V?$allocator@U?$pair@$$CBUThreadId@ctk@@VCallStack@2@@std@@@5@$0A@@std@@@std@@I@std@@YAXViterator@?$_Tree@V?$_Tmap_traits@UThreadId@ctk@@VCallStack@2@U?$less@UThreadId@ctk@@@std@@V?$allocator@U?$pair@$$CBUThreadId@ctk@@VCallStack@2@@std@@@5@$0A@@std@@@0@0AAI@Z 10035a40 f i log_tracer.obj
 0001:00034a80       ??$_Destroy@U_Node@?$_Tree_nod@V?$_Tmap_traits@UThreadId@ctk@@VCallStack@2@U?$less@UThreadId@ctk@@@std@@V?$allocator@U?$pair@$$CBUThreadId@ctk@@VCallStack@2@@std@@@5@$0A@@std@@@std@@@std@@YAXPAU_Node@?$_Tree_nod@V?$_Tmap_traits@UThreadId@ctk@@VCallStack@2@U?$less@UThreadId@ctk@@@std@@V?$allocator@U?$pair@$$CBUThreadId@ctk@@VCallStack@2@@std@@@5@$0A@@std@@@0@@Z 10035a80 f i log_tracer.obj
 0001:00034a90       ??$_Allocate@U_Node@?$_Tree_nod@V?$_Tmap_traits@UThreadId@ctk@@VCallStack@2@U?$less@UThreadId@ctk@@@std@@V?$allocator@U?$pair@$$CBUThreadId@ctk@@VCallStack@2@@std@@@5@$0A@@std@@@std@@@std@@YAPAU_Node@?$_Tree_nod@V?$_Tmap_traits@UThreadId@ctk@@VCallStack@2@U?$less@UThreadId@ctk@@@std@@V?$allocator@U?$pair@$$CBUThreadId@ctk@@VCallStack@2@@std@@@5@$0A@@std@@@0@IPAU120@@Z 10035a90 f i log_tracer.obj
 0001:00034ae0       ??_G_Node@?$_Tree_nod@V?$_Tmap_traits@UThreadId@ctk@@VCallStack@2@U?$less@UThreadId@ctk@@@std@@V?$allocator@U?$pair@$$CBUThreadId@ctk@@VCallStack@2@@std@@@5@$0A@@std@@@std@@QAEPAXI@Z 10035ae0 f i log_tracer.obj
 0001:00034b10       ??1_Node@?$_Tree_nod@V?$_Tmap_traits@UThreadId@ctk@@VCallStack@2@U?$less@UThreadId@ctk@@@std@@V?$allocator@U?$pair@$$CBUThreadId@ctk@@VCallStack@2@@std@@@5@$0A@@std@@@std@@QAE@XZ 10035b10 f i log_tracer.obj
 0001:00034b60       ??$output@V?$deque@VCurrent@ctk@@V?$allocator@VCurrent@ctk@@@std@@@std@@@ctk@@YAAAVdumper@0@AAV10@ABV?$deque@VCurrent@ctk@@V?$allocator@VCurrent@ctk@@@std@@@std@@@Z 10035b60 f i log_tracer.obj
 0001:00034bc0       ??$allocate_no_mlc@V?$map@UThreadId@ctk@@VCallStack@2@@mt@ctk@@@ctk@@YAPAV?$map@UThreadId@ctk@@VCallStack@2@@mt@0@PBDI0@Z 10035bc0 f i log_tracer.obj
 0001:00034c50       ??$allocate_push_maybe@V?$map@UThreadId@ctk@@VCallStack@2@@mt@ctk@@@ctk@@YAPAV?$map@UThreadId@ctk@@VCallStack@2@@mt@0@PAV120@PBDI1@Z 10035c50 f i log_tracer.obj
 0001:00034c80       ??$destroy_pop_maybe@V?$map@UThreadId@ctk@@VCallStack@2@@mt@ctk@@@ctk@@YAXPAV?$map@UThreadId@ctk@@VCallStack@2@@mt@0@PBDI1@Z 10035c80 f i log_tracer.obj
 0001:00034cb0       ??$destroy_no_mlc@V?$map@UThreadId@ctk@@VCallStack@2@@mt@ctk@@@ctk@@YAXAAPAV?$map@UThreadId@ctk@@VCallStack@2@@mt@0@PBDI1@Z 10035cb0 f i log_tracer.obj
 0001:00034d00       ??$allocate_no_mlc@Vtracer@ctk@@@ctk@@YAPAVtracer@0@PBDI0@Z 10035d00 f i log_tracer.obj
 0001:00034d90       ??$allocate_push_maybe@Vtracer@ctk@@@ctk@@YAPAVtracer@0@PAV10@PBDI1@Z 10035d90 f i log_tracer.obj
 0001:00034dc0       ??$destroy_pop_maybe@Vtracer@ctk@@@ctk@@YAXPAVtracer@0@PBDI1@Z 10035dc0 f i log_tracer.obj
 0001:00034df0       ??$destroy_no_mlc@Vtracer@ctk@@@ctk@@YAXAAPAVtracer@0@PBDI1@Z 10035df0 f i log_tracer.obj
 0001:00034e40       ??$_Iter_cat@Viterator@?$_Tree@V?$_Tmap_traits@UThreadId@ctk@@VCallStack@2@U?$less@UThreadId@ctk@@@std@@V?$allocator@U?$pair@$$CBUThreadId@ctk@@VCallStack@2@@std@@@5@$0A@@std@@@std@@@std@@YA?AUbidirectional_iterator_tag@0@ABViterator@?$_Tree@V?$_Tmap_traits@UThreadId@ctk@@VCallStack@2@U?$less@UThreadId@ctk@@@std@@V?$allocator@U?$pair@$$CBUThreadId@ctk@@VCallStack@2@@std@@@5@$0A@@std@@@0@@Z 10035e40 f i log_tracer.obj
 0001:00034e50       ??$_Distance2@Viterator@?$_Tree@V?$_Tmap_traits@UThreadId@ctk@@VCallStack@2@U?$less@UThreadId@ctk@@@std@@V?$allocator@U?$pair@$$CBUThreadId@ctk@@VCallStack@2@@std@@@5@$0A@@std@@@std@@I@std@@YAXViterator@?$_Tree@V?$_Tmap_traits@UThreadId@ctk@@VCallStack@2@U?$less@UThreadId@ctk@@@std@@V?$allocator@U?$pair@$$CBUThreadId@ctk@@VCallStack@2@@std@@@5@$0A@@std@@@0@0AAIUbidirectional_iterator_tag@0@@Z 10035e50 f i log_tracer.obj
 0001:00034e90       ??_G?$map@UThreadId@ctk@@VCallStack@2@@mt@ctk@@QAEPAXI@Z 10035e90 f i log_tracer.obj
 0001:00034ec0       ??_Gtracer@ctk@@AAEPAXI@Z  10035ec0 f i log_tracer.obj
 0001:00034ef0       ??1?$map@UThreadId@ctk@@VCallStack@2@@mt@ctk@@QAE@XZ 10035ef0 f i log_tracer.obj
 0001:00034f50       ??1?$map@UThreadId@ctk@@VCallStack@2@U?$less@UThreadId@ctk@@@std@@V?$allocator@U?$pair@$$CBUThreadId@ctk@@VCallStack@2@@std@@@5@@std@@QAE@XZ 10035f50 f i log_tracer.obj
 0001:00034fa0       ??0?$map@UThreadId@ctk@@VCallStack@2@@mt@ctk@@QAE@XZ 10035fa0 f i log_tracer.obj
 0001:00035000       ??1?$_Tree@V?$_Tmap_traits@UThreadId@ctk@@VCallStack@2@U?$less@UThreadId@ctk@@@std@@V?$allocator@U?$pair@$$CBUThreadId@ctk@@VCallStack@2@@std@@@5@$0A@@std@@@std@@QAE@XZ 10036000 f i log_tracer.obj
 0001:00035060       ??Eiterator@?$_Tree@V?$_Tmap_traits@UThreadId@ctk@@VCallStack@2@U?$less@UThreadId@ctk@@@std@@V?$allocator@U?$pair@$$CBUThreadId@ctk@@VCallStack@2@@std@@@5@$0A@@std@@@std@@QAEAAV012@XZ 10036060 f i log_tracer.obj
 0001:00035080       ??1?$_Tree_val@V?$_Tmap_traits@UThreadId@ctk@@VCallStack@2@U?$less@UThreadId@ctk@@@std@@V?$allocator@U?$pair@$$CBUThreadId@ctk@@VCallStack@2@@std@@@5@$0A@@std@@@std@@QAE@XZ 10036080 f i log_tracer.obj
 0001:000350d0       ??1?$_Tree_ptr@V?$_Tmap_traits@UThreadId@ctk@@VCallStack@2@U?$less@UThreadId@ctk@@@std@@V?$allocator@U?$pair@$$CBUThreadId@ctk@@VCallStack@2@@std@@@5@$0A@@std@@@std@@QAE@XZ 100360d0 f i log_tracer.obj
 0001:00035120       ??1?$_Tree_nod@V?$_Tmap_traits@UThreadId@ctk@@VCallStack@2@U?$less@UThreadId@ctk@@@std@@V?$allocator@U?$pair@$$CBUThreadId@ctk@@VCallStack@2@@std@@@5@$0A@@std@@@std@@QAE@XZ 10036120 f i log_tracer.obj
 0001:00035170       ??1?$_Tmap_traits@UThreadId@ctk@@VCallStack@2@U?$less@UThreadId@ctk@@@std@@V?$allocator@U?$pair@$$CBUThreadId@ctk@@VCallStack@2@@std@@@5@$0A@@std@@QAE@XZ 10036170 f i log_tracer.obj
 0001:000351c0       ??0?$map@UThreadId@ctk@@VCallStack@2@U?$less@UThreadId@ctk@@@std@@V?$allocator@U?$pair@$$CBUThreadId@ctk@@VCallStack@2@@std@@@5@@std@@QAE@XZ 100361c0 f i log_tracer.obj
 0001:00035220       ?_Tidy@?$_Tree@V?$_Tmap_traits@UThreadId@ctk@@VCallStack@2@U?$less@UThreadId@ctk@@@std@@V?$allocator@U?$pair@$$CBUThreadId@ctk@@VCallStack@2@@std@@@5@$0A@@std@@@std@@IAEXXZ 10036220 f i log_tracer.obj
 0001:000352f0       ??1?$_Container_base_aux_alloc_real@V?$allocator@U?$pair@$$CBUThreadId@ctk@@VCallStack@2@@std@@@std@@@std@@IAE@XZ 100362f0 f i log_tracer.obj
 0001:00035350       ??0?$_Tree@V?$_Tmap_traits@UThreadId@ctk@@VCallStack@2@U?$less@UThreadId@ctk@@@std@@V?$allocator@U?$pair@$$CBUThreadId@ctk@@VCallStack@2@@std@@@5@$0A@@std@@@std@@QAE@ABU?$less@UThreadId@ctk@@@1@ABV?$allocator@U?$pair@$$CBUThreadId@ctk@@VCallStack@2@@std@@@1@@Z 10036350 f i log_tracer.obj
 0001:000353c0       ??0?$allocator@U?$pair@$$CBUThreadId@ctk@@VCallStack@2@@std@@@std@@QAE@XZ 100363c0 f i log_tracer.obj
 0001:000353d0       ?destroy@?$allocator@PAU_Node@?$_Tree_nod@V?$_Tmap_traits@UThreadId@ctk@@VCallStack@2@U?$less@UThreadId@ctk@@@std@@V?$allocator@U?$pair@$$CBUThreadId@ctk@@VCallStack@2@@std@@@5@$0A@@std@@@std@@@std@@QAEXPAPAU_Node@?$_Tree_nod@V?$_Tmap_traits@UThreadId@ctk@@VCallStack@2@U?$less@UThreadId@ctk@@@std@@V?$allocator@U?$pair@$$CBUThreadId@ctk@@VCallStack@2@@std@@@5@$0A@@std@@@2@@Z 100363d0 f i log_tracer.obj
 0001:000353f0       ?_Init@?$_Tree@V?$_Tmap_traits@UThreadId@ctk@@VCallStack@2@U?$less@UThreadId@ctk@@@std@@V?$allocator@U?$pair@$$CBUThreadId@ctk@@VCallStack@2@@std@@@5@$0A@@std@@@std@@IAEXXZ 100363f0 f i log_tracer.obj
 0001:00035460       ??0?$_Tree_val@V?$_Tmap_traits@UThreadId@ctk@@VCallStack@2@U?$less@UThreadId@ctk@@@std@@V?$allocator@U?$pair@$$CBUThreadId@ctk@@VCallStack@2@@std@@@5@$0A@@std@@@std@@IAE@ABU?$less@UThreadId@ctk@@@1@V?$allocator@U?$pair@$$CBUThreadId@ctk@@VCallStack@2@@std@@@1@@Z 10036460 f i log_tracer.obj
 0001:000354e0       ??0?$allocator@U?$pair@$$CBUThreadId@ctk@@VCallStack@2@@std@@@std@@QAE@ABV01@@Z 100364e0 f i log_tracer.obj
 0001:000354f0       ?_Buynode@?$_Tree@V?$_Tmap_traits@UThreadId@ctk@@VCallStack@2@U?$less@UThreadId@ctk@@@std@@V?$allocator@U?$pair@$$CBUThreadId@ctk@@VCallStack@2@@std@@@5@$0A@@std@@@std@@IAEPAU_Node@?$_Tree_nod@V?$_Tmap_traits@UThreadId@ctk@@VCallStack@2@U?$less@UThreadId@ctk@@@std@@V?$allocator@U?$pair@$$CBUThreadId@ctk@@VCallStack@2@@std@@@5@$0A@@std@@@2@XZ 100364f0 f i log_tracer.obj
 0001:00035660       ??0?$_Tree_ptr@V?$_Tmap_traits@UThreadId@ctk@@VCallStack@2@U?$less@UThreadId@ctk@@@std@@V?$allocator@U?$pair@$$CBUThreadId@ctk@@VCallStack@2@@std@@@5@$0A@@std@@@std@@IAE@ABU?$less@UThreadId@ctk@@@1@V?$allocator@U?$pair@$$CBUThreadId@ctk@@VCallStack@2@@std@@@1@@Z 10036660 f i log_tracer.obj
 0001:000356e0       ??0?$_Tree_nod@V?$_Tmap_traits@UThreadId@ctk@@VCallStack@2@U?$less@UThreadId@ctk@@@std@@V?$allocator@U?$pair@$$CBUThreadId@ctk@@VCallStack@2@@std@@@5@$0A@@std@@@std@@IAE@ABU?$less@UThreadId@ctk@@@1@V?$allocator@U?$pair@$$CBUThreadId@ctk@@VCallStack@2@@std@@@1@@Z 100366e0 f i log_tracer.obj
 0001:00035760       ?construct@?$allocator@PAU_Node@?$_Tree_nod@V?$_Tmap_traits@UThreadId@ctk@@VCallStack@2@U?$less@UThreadId@ctk@@@std@@V?$allocator@U?$pair@$$CBUThreadId@ctk@@VCallStack@2@@std@@@5@$0A@@std@@@std@@@std@@QAEXPAPAU_Node@?$_Tree_nod@V?$_Tmap_traits@UThreadId@ctk@@VCallStack@2@U?$less@UThreadId@ctk@@@std@@V?$allocator@U?$pair@$$CBUThreadId@ctk@@VCallStack@2@@std@@@5@$0A@@std@@@2@ABQAU342@@Z 10036760 f i log_tracer.obj
 0001:00035780       ??0?$_Tmap_traits@UThreadId@ctk@@VCallStack@2@U?$less@UThreadId@ctk@@@std@@V?$allocator@U?$pair@$$CBUThreadId@ctk@@VCallStack@2@@std@@@5@$0A@@std@@QAE@U?$less@UThreadId@ctk@@@1@V?$allocator@U?$pair@$$CBUThreadId@ctk@@VCallStack@2@@std@@@1@@Z 10036780 f i log_tracer.obj
 0001:000357f0       ??0?$_Container_base_aux_alloc_real@V?$allocator@U?$pair@$$CBUThreadId@ctk@@VCallStack@2@@std@@@std@@@std@@IAE@V?$allocator@U?$pair@$$CBUThreadId@ctk@@VCallStack@2@@std@@@1@@Z 100367f0 f i log_tracer.obj
 0001:000358b0       ??$make_pair@V?$_Deque_const_iterator@VCurrent@ctk@@V?$allocator@VCurrent@ctk@@@std@@$00@std@@V12@@std@@YA?AU?$pair@V?$_Deque_const_iterator@VCurrent@ctk@@V?$allocator@VCurrent@ctk@@@std@@$00@std@@V12@@0@V?$_Deque_const_iterator@VCurrent@ctk@@V?$allocator@VCurrent@ctk@@@std@@$00@0@0@Z 100368b0 f i log_tracer.obj
 0001:000358d0       ??$output_@V?$_Deque_const_iterator@VCurrent@ctk@@V?$allocator@VCurrent@ctk@@@std@@$00@std@@@ctk@@YAAAVdumper@0@AAV10@U?$pair@V?$_Deque_const_iterator@VCurrent@ctk@@V?$allocator@VCurrent@ctk@@@std@@$00@std@@V12@@std@@@Z 100368d0 f i log_tracer.obj
 0001:00035950       ??$_Destroy@PAU_Node@?$_Tree_nod@V?$_Tmap_traits@UThreadId@ctk@@VCallStack@2@U?$less@UThreadId@ctk@@@std@@V?$allocator@U?$pair@$$CBUThreadId@ctk@@VCallStack@2@@std@@@5@$0A@@std@@@std@@@std@@YAXPAPAU_Node@?$_Tree_nod@V?$_Tmap_traits@UThreadId@ctk@@VCallStack@2@U?$less@UThreadId@ctk@@@std@@V?$allocator@U?$pair@$$CBUThreadId@ctk@@VCallStack@2@@std@@@5@$0A@@std@@@0@@Z 10036950 f i log_tracer.obj
 0001:00035960       ??$?0U?$pair@$$CBUThreadId@ctk@@VCallStack@2@@std@@@?$allocator@PAU_Node@?$_Tree_nod@V?$_Tmap_traits@UThreadId@ctk@@VCallStack@2@U?$less@UThreadId@ctk@@@std@@V?$allocator@U?$pair@$$CBUThreadId@ctk@@VCallStack@2@@std@@@5@$0A@@std@@@std@@@std@@QAE@ABV?$allocator@U?$pair@$$CBUThreadId@ctk@@VCallStack@2@@std@@@1@@Z 10036960 f i log_tracer.obj
 0001:00035970       ??$?0U?$pair@$$CBUThreadId@ctk@@VCallStack@2@@std@@@?$allocator@U_Node@?$_Tree_nod@V?$_Tmap_traits@UThreadId@ctk@@VCallStack@2@U?$less@UThreadId@ctk@@@std@@V?$allocator@U?$pair@$$CBUThreadId@ctk@@VCallStack@2@@std@@@5@$0A@@std@@@std@@@std@@QAE@ABV?$allocator@U?$pair@$$CBUThreadId@ctk@@VCallStack@2@@std@@@1@@Z 10036970 f i log_tracer.obj
 0001:00035980       ??$_Construct@PAU_Node@?$_Tree_nod@V?$_Tmap_traits@UThreadId@ctk@@VCallStack@2@U?$less@UThreadId@ctk@@@std@@V?$allocator@U?$pair@$$CBUThreadId@ctk@@VCallStack@2@@std@@@5@$0A@@std@@@std@@PAU123@@std@@YAXPAPAU_Node@?$_Tree_nod@V?$_Tmap_traits@UThreadId@ctk@@VCallStack@2@U?$less@UThreadId@ctk@@@std@@V?$allocator@U?$pair@$$CBUThreadId@ctk@@VCallStack@2@@std@@@5@$0A@@std@@@0@ABQAU120@@Z 10036980 f i log_tracer.obj
 0001:000359c0       ??$?0U?$pair@$$CBUThreadId@ctk@@VCallStack@2@@std@@@?$allocator@V_Aux_cont@std@@@std@@QAE@ABV?$allocator@U?$pair@$$CBUThreadId@ctk@@VCallStack@2@@std@@@1@@Z 100369c0 f i log_tracer.obj
 0001:000359d0       ??0?$pair@V?$_Deque_const_iterator@VCurrent@ctk@@V?$allocator@VCurrent@ctk@@@std@@$00@std@@V12@@std@@QAE@ABV?$_Deque_const_iterator@VCurrent@ctk@@V?$allocator@VCurrent@ctk@@@std@@$00@1@0@Z 100369d0 f i log_tracer.obj
 0001:00035a10       ??0rawstring@ctk@@QAE@Uistr@1@@Z 10036a10 f   log_util.obj
 0001:00035a30       ??Rrawstring@ctk@@QBEAAVdumper@1@AAV21@@Z 10036a30 f   log_util.obj
 0001:00035a50       ??0namestring@ctk@@QAE@ABUistr@1@PBD@Z 10036a50 f   log_util.obj
 0001:00035a80       ??Rnamestring@ctk@@QBEAAVdumper@1@AAV21@@Z 10036a80 f   log_util.obj
 0001:00035aa0       ?indent@ctk@@YAAAVdumper@1@AAV21@@Z 10036aa0 f   log_util.obj
 0001:00035ab0       ?endline@ctk@@YAAAVdumper@1@AAV21@@Z 10036ab0 f   log_util.obj
 0001:00035ac0       ?nl@ctk@@YAAAVdumper@1@AAV21@@Z 10036ac0 f   log_util.obj
 0001:00035ad0       ??6ctk@@YAAAVdumper@0@AAV10@ABVACE_INET_Addr@@@Z 10036ad0 f   log_util.obj
 0001:00035af0       ??6std@@YAAAV?$basic_ostream@DU?$char_traits@D@std@@@0@AAV10@ABVACE_INET_Addr@@@Z 10036af0 f   log_util.obj
 0001:00035b60       ??_GThread@ctk@@UAEPAXI@Z  10036b60 f i thread.obj
 0001:00035b90       ??_EThread@ctk@@UAEPAXI@Z  10036b90 f i thread.obj
 0001:00035c00       ??_GSimpleThread@ctk@@UAEPAXI@Z 10036c00 f i thread.obj
 0001:00035c30       ??_ESimpleThread@ctk@@UAEPAXI@Z 10036c30 f i thread.obj
 0001:00035ca0       ??0ThreadControl@ctk@@QAE@XZ 10036ca0 f   thread.obj
 0001:00035d80       ??0ThreadControl@ctk@@QAE@ABV?$Handle@UWinHandleWrapper@ctk@@@1@UThreadId@1@@Z 10036d80 f   thread.obj
 0001:00035e30       ??0ThreadControl@ctk@@QAE@ABV01@@Z 10036e30 f   thread.obj
 0001:00035f30       ??4ThreadControl@ctk@@QAEAAV01@ABV01@@Z 10036f30 f   thread.obj
 0001:00036010       ??8ThreadControl@ctk@@QBE_NABV01@@Z 10037010 f   thread.obj
 0001:000360a0       ??9ThreadControl@ctk@@QBE_NABV01@@Z 100370a0 f   thread.obj
 0001:000360d0       ??MThreadControl@ctk@@QBE_NABV01@@Z 100370d0 f   thread.obj
 0001:00036160       ?id@ThreadControl@ctk@@QBE?AUThreadId@2@XZ 10037160 f   thread.obj
 0001:000361d0       ?join@ThreadControl@ctk@@QAEXXZ 100371d0 f   thread.obj
 0001:000362b0       ?detach@ThreadControl@ctk@@QAEXXZ 100372b0 f   thread.obj
 0001:000362c0       ?isAlive@ThreadControl@ctk@@QBE_NXZ 100372c0 f   thread.obj
 0001:00036390       ?sleep@ThreadControl@ctk@@SAXABVTime@2@@Z 10037390 f   thread.obj
 0001:000363b0       ?yield@ThreadControl@ctk@@SAXXZ 100373b0 f   thread.obj
 0001:000363c0       ??0Thread@ctk@@QAE@XZ      100373c0 f   thread.obj
 0001:000364b0       ??1Thread@ctk@@UAE@XZ      100374b0 f   thread.obj
 0001:00036530       ?id@Thread@ctk@@QBE?AUThreadId@2@XZ 10037530 f   thread.obj
 0001:000365f0       ?start@Thread@ctk@@QAE?AVThreadControl@2@I@Z 100375f0 f   thread.obj
 0001:000369f0       ?getThreadControl@Thread@ctk@@QBE?AVThreadControl@2@XZ 100379f0 f   thread.obj
 0001:00036ad0       ??8Thread@ctk@@QBE_NABV01@@Z 10037ad0 f   thread.obj
 0001:00036bb0       ??9Thread@ctk@@QBE_NABV01@@Z 10037bb0 f   thread.obj
 0001:00036be0       ??MThread@ctk@@QBE_NABV01@@Z 10037be0 f   thread.obj
 0001:00036cc0       ?current@ThreadControl@ctk@@SA?AV12@XZ 10037cc0 f   thread.obj
 0001:00036d20       ??0ThreadOwner@ctk@@QAE@PBD@Z 10037d20 f   thread.obj
 0001:00036da0       ??1ThreadOwner@ctk@@UAE@XZ 10037da0 f   thread.obj
 0001:00036f30       ?ownername@ThreadOwner@ctk@@QBEABVString@2@XZ 10037f30 f   thread.obj
 0001:00036f50       ?updateDateTime@ThreadInfo@ctk@@QAEXXZ 10037f50 f   thread.obj
 0001:00036fb0       ?dump@ThreadInfo@ctk@@QBEAAVdumper@2@AAV32@@Z 10037fb0 f   thread.obj
 0001:00037320       ??6ctk@@YAAAV?$basic_ostream@DU?$char_traits@D@std@@@std@@AAV12@ABUThreadId@0@@Z 10038320 f   thread.obj
 0001:00037360       ??6ctk@@YAAAVdumper@0@AAV10@ABUThreadId@0@@Z 10038360 f   thread.obj
 0001:00037380       ??6ctk@@YAAAVdumper@0@AAV10@ABUTHREAD_FACTORY@0@@Z 10038380 f   thread.obj
 0001:000373a0       ??0ThreadFactory@ctk@@QAE@XZ 100383a0 f   thread.obj
 0001:00037400       ?instance@ThreadFactory@ctk@@SAAAV12@XZ 10038400 f   thread.obj
 0001:00037420       ?destroy@ThreadFactory@ctk@@SAXXZ 10038420 f   thread.obj
 0001:00037430       ?add@ThreadFactory@ctk@@QAEXPAVSimpleThread@2@@Z 10038430 f   thread.obj
 0001:00037470       ?erase@ThreadFactory@ctk@@QAEXPAVSimpleThread@2@@Z 10038470 f   thread.obj
 0001:000374a0       ?getThreadInfo@ThreadFactory@ctk@@QAEABUThreadInfo@2@UThreadId@2@@Z 100384a0 f   thread.obj
 0001:000375f0       ??0SimpleThread@ctk@@QAE@PAVThreadOwner@1@PBD@Z 100385f0 f   thread.obj
 0001:000376b0       ??1SimpleThread@ctk@@UAE@XZ 100386b0 f   thread.obj
 0001:00037860       ?started@Thread@ctk@@QBE_NXZ 10038860 f   thread.obj
 0001:00037880       ?startAndWait@SimpleThread@ctk@@QAEXI@Z 10038880 f   thread.obj
 0001:00037910       ?startAndWait@SimpleThread@ctk@@QAE_NVTime@2@I@Z 10038910 f   thread.obj
 0001:000379a0       ?stopOnly@SimpleThread@ctk@@QAEXXZ 100389a0 f   thread.obj
 0001:00037af0       ?stop@SimpleThread@ctk@@QAEXXZ 10038af0 f   thread.obj
 0001:00037ec0       ?stop@SimpleThread@ctk@@QAE_NVTime@2@@Z 10038ec0 f   thread.obj
 0001:00038210       ?join@SimpleThread@ctk@@QAEXXZ 10039210 f   thread.obj
 0001:00038450       ?join@SimpleThread@ctk@@QAE_NVTime@2@@Z 10039450 f   thread.obj
 0001:00038930       ?detach@SimpleThread@ctk@@QAEXXZ 10039930 f   thread.obj
 0001:00038950       ?activeStopping@SimpleThread@ctk@@QBE_NXZ 10039950 f   thread.obj
 0001:00038970       ?wait@SimpleThread@ctk@@QBEXXZ 10039970 f   thread.obj
 0001:00038a00       ?wait@SimpleThread@ctk@@QBE_NABVTime@2@@Z 10039a00 f   thread.obj
 0001:00038aa0       ?notify@SimpleThread@ctk@@QAEXXZ 10039aa0 f   thread.obj
 0001:00038b10       ?living@SimpleThread@ctk@@QBE_NXZ 10039b10 f   thread.obj
 0001:00038b30       ?living@SimpleThread@ctk@@QAEX_N@Z 10039b30 f   thread.obj
 0001:00038b50       ?on_thread_exit@SimpleThread@ctk@@AAEXXZ 10039b50 f   thread.obj
 0001:00038ce0       ?owner@SimpleThread@ctk@@QBEPAVThreadOwner@2@XZ 10039ce0 f   thread.obj
 0001:00038d50       ?owner@SimpleThread@ctk@@QAEXPAVThreadOwner@2@@Z 10039d50 f   thread.obj
 0001:00038dc0       ?name@SimpleThread@ctk@@QBEABVString@2@XZ 10039dc0 f   thread.obj
 0001:00038de0       ?fullname@SimpleThread@ctk@@QBEABVString@2@XZ 10039de0 f   thread.obj
 0001:00038e00       ?threadIdString@SimpleThread@ctk@@QBEABVString@2@XZ 10039e00 f   thread.obj
 0001:00038e20       ?currDateTime@SimpleThread@ctk@@QBE?AVTime@2@XZ 10039e20 f   thread.obj
 0001:00038e50       ?currDateTimeString@SimpleThread@ctk@@QBEABVString@2@XZ 10039e50 f   thread.obj
 0001:00038e70       ?info@SimpleThread@ctk@@QBEABUThreadInfo@2@XZ 10039e70 f   thread.obj
 0001:00038ea0       ?current@SimpleThread@ctk@@SAABUThreadInfo@2@XZ 10039ea0 f   thread.obj
 0001:00038f20       ?destroyThreadFactory@SimpleThread@ctk@@SAXXZ 10039f20 f   thread.obj
 0001:00038f30       ?run_i@SimpleThread@ctk@@EAEXXZ 10039f30 f   thread.obj
 0001:00039410       ?run@SimpleThread@ctk@@MAEXXZ 1003a410 f   thread.obj
 0001:000395f0       ?onBirth_i@SimpleThread@ctk@@AAE_NXZ 1003a5f0 f   thread.obj
 0001:00039800       ?onWait_i@SimpleThread@ctk@@AAE_NXZ 1003a800 f   thread.obj
 0001:00039950       ?onWork_i@SimpleThread@ctk@@AAEXXZ 1003a950 f   thread.obj
 0001:00039ba0       ?onDeath_i@SimpleThread@ctk@@AAEXXZ 1003aba0 f   thread.obj
 0001:00039c30       ?onStop_i@SimpleThread@ctk@@AAEXXZ 1003ac30 f   thread.obj
 0001:00039dd0       ?livingEnd@SimpleThread@ctk@@QAEXXZ 1003add0 f   thread.obj
 0001:00039e90       ?onBirth@SimpleThread@ctk@@MAE_NXZ 1003ae90 f   thread.obj
 0001:00039ea0       ?onWait@SimpleThread@ctk@@MAE_NXZ 1003aea0 f   thread.obj
 0001:00039eb0       ?onWork@SimpleThread@ctk@@MAEXXZ 1003aeb0 f   thread.obj
 0001:00039ef0       ?onLoop@SimpleThread@ctk@@MAE_NXZ 1003aef0 f   thread.obj
 0001:00039f00       ?onDeath@SimpleThread@ctk@@MAEXXZ 1003af00 f   thread.obj
 0001:00039f10       ?onStop@SimpleThread@ctk@@MAEXXZ 1003af10 f   thread.obj
 0001:00039f20       ?sleep@ctk@@YAXK@Z         1003af20 f   thread.obj
 0001:00039f50       ?dump@SimpleThread@ctk@@UBEAAVdumper@2@AAV32@@Z 1003af50 f   thread.obj
 0001:0003a300       ??0Shared@ctk@@QAE@XZ      1003b300 f i thread.obj
 0001:0003a330       ??1Shared@ctk@@UAE@XZ      1003b330 f i thread.obj
 0001:0003a350       ??_EShared@ctk@@UAEPAXI@Z  1003b350 f i thread.obj
 0001:0003a350       ??_GShared@ctk@@UAEPAXI@Z  1003b350 f i thread.obj
 0001:0003a380       ??1?$map@UThreadId@ctk@@UThreadInfo@2@@mt@ctk@@QAE@XZ 1003b380 f i thread.obj
 0001:0003a3e0       ??1?$map@UThreadId@ctk@@UThreadInfo@2@U?$less@UThreadId@ctk@@@std@@V?$allocator@U?$pair@$$CBUThreadId@ctk@@UThreadInfo@2@@std@@@5@@std@@QAE@XZ 1003b3e0 f i thread.obj
 0001:0003a430       ??0ProcessId@ctk@@QAE@H@Z  1003b430 f i thread.obj
 0001:0003a450       ?__GetRef@Shared@ctk@@QBEJXZ 1003b450 f i thread.obj
 0001:0003a470       ??0?$Handle@UWinHandleWrapper@ctk@@@ctk@@QAE@PAUWinHandleWrapper@1@@Z 1003b470 f i thread.obj
 0001:0003a4a0       ??4?$Handle@UWinHandleWrapper@ctk@@@ctk@@QAEAAV01@PAUWinHandleWrapper@1@@Z 1003b4a0 f i thread.obj
 0001:0003a4f0       ??4?$Handle@UWinHandleWrapper@ctk@@@ctk@@QAEAAV01@ABV01@@Z 1003b4f0 f i thread.obj
 0001:0003a510       ??C?$SmartPtrBase@UWinHandleWrapper@ctk@@@ctk@@QBEPAUWinHandleWrapper@1@XZ 1003b510 f i thread.obj
 0001:0003a560       ??4?$Pointer@VSimpleThread@ctk@@@ctk@@QAEAAU01@PAVSimpleThread@1@@Z 1003b560 f i thread.obj
 0001:0003a580       ??D?$Pointer@VSimpleThread@ctk@@@ctk@@QBEAAVSimpleThread@1@XZ 1003b580 f i thread.obj
 0001:0003a5a0       ??0?$Monitor@VMutex@ctk@@@ctk@@QAE@XZ 1003b5a0 f i thread.obj
 0001:0003a610       ??1?$Monitor@VMutex@ctk@@@ctk@@QAE@XZ 1003b610 f i thread.obj
 0001:0003a670       ?wait@?$Monitor@VMutex@ctk@@@ctk@@QBEXXZ 1003b670 f i thread.obj
 0001:0003a710       ?timedWait@?$Monitor@VMutex@ctk@@@ctk@@QBE_NABVTime@2@@Z 1003b710 f i thread.obj
 0001:0003a7c0       ?notifyAll@?$Monitor@VMutex@ctk@@@ctk@@QAEXXZ 1003b7c0 f i thread.obj
 0001:0003a7e0       ??0?$Handle@VThread@ctk@@@ctk@@QAE@PAVThread@1@@Z 1003b7e0 f i thread.obj
 0001:0003a810       ??1?$Handle@VThread@ctk@@@ctk@@QAE@XZ 1003b810 f i thread.obj
 0001:0003a830       ??C?$SmartPtrBase@VThread@ctk@@@ctk@@QBEPAVThread@1@XZ 1003b830 f i thread.obj
 0001:0003a880       ??0?$map@UThreadId@ctk@@UThreadInfo@2@@mt@ctk@@QAE@XZ 1003b880 f i thread.obj
 0001:0003a8e0       ?erase@?$map@UThreadId@ctk@@UThreadInfo@2@@mt@ctk@@QAEKABUThreadId@3@@Z 1003b8e0 f i thread.obj
 0001:0003a950       ?unsafe_at@?$map@UThreadId@ctk@@UThreadInfo@2@@mt@ctk@@QAEAAUThreadInfo@3@ABUThreadId@3@@Z 1003b950 f i thread.obj
 0001:0003a9c0       ??1?$_Tree@V?$_Tmap_traits@UThreadId@ctk@@UThreadInfo@2@U?$less@UThreadId@ctk@@@std@@V?$allocator@U?$pair@$$CBUThreadId@ctk@@UThreadInfo@2@@std@@@5@$0A@@std@@@std@@QAE@XZ 1003b9c0 f i thread.obj
 0001:0003aa20       ?instance@?$Singleton_T@VThreadFactory@ctk@@@ctk@@SAAAPAVThreadFactory@2@PBDI0@Z 1003ba20 f i thread.obj
 0001:0003aab0       ?destroy@?$Singleton_T@VThreadFactory@ctk@@@ctk@@SAXXZ 1003bab0 f i thread.obj
 0001:0003ab30       ??0?$Guard_T@V?$Monitor@VMutex@ctk@@@ctk@@@ctk@@QAE@ABV?$Monitor@VMutex@ctk@@@1@@Z 1003bb30 f i thread.obj
 0001:0003ab60       ??1?$Guard_T@V?$Monitor@VMutex@ctk@@@ctk@@@ctk@@QAE@XZ 1003bb60 f i thread.obj
 0001:0003ab80       ??0?$Handle@VSimpleThread@ctk@@@ctk@@QAE@PAVSimpleThread@1@@Z 1003bb80 f i thread.obj
 0001:0003abb0       ??1?$Handle@VSimpleThread@ctk@@@ctk@@QAE@XZ 1003bbb0 f i thread.obj
 0001:0003abd0       ??1?$_Tree_val@V?$_Tmap_traits@UThreadId@ctk@@UThreadInfo@2@U?$less@UThreadId@ctk@@@std@@V?$allocator@U?$pair@$$CBUThreadId@ctk@@UThreadInfo@2@@std@@@5@$0A@@std@@@std@@QAE@XZ 1003bbd0 f i thread.obj
 0001:0003ac20       ??1?$_Tree_ptr@V?$_Tmap_traits@UThreadId@ctk@@UThreadInfo@2@U?$less@UThreadId@ctk@@@std@@V?$allocator@U?$pair@$$CBUThreadId@ctk@@UThreadInfo@2@@std@@@5@$0A@@std@@@std@@QAE@XZ 1003bc20 f i thread.obj
 0001:0003ac70       ??1?$_Tree_nod@V?$_Tmap_traits@UThreadId@ctk@@UThreadInfo@2@U?$less@UThreadId@ctk@@@std@@V?$allocator@U?$pair@$$CBUThreadId@ctk@@UThreadInfo@2@@std@@@5@$0A@@std@@@std@@QAE@XZ 1003bc70 f i thread.obj
 0001:0003acc0       ??1?$_Tmap_traits@UThreadId@ctk@@UThreadInfo@2@U?$less@UThreadId@ctk@@@std@@V?$allocator@U?$pair@$$CBUThreadId@ctk@@UThreadInfo@2@@std@@@5@$0A@@std@@QAE@XZ 1003bcc0 f i thread.obj
 0001:0003ad10       ?lock@?$Monitor@VMutex@ctk@@@ctk@@QBEXXZ 1003bd10 f i thread.obj
 0001:0003ad40       ?unlock@?$Monitor@VMutex@ctk@@@ctk@@QBEXXZ 1003bd40 f i thread.obj
 0001:0003ad80       ?notifyImpl@?$Monitor@VMutex@ctk@@@ctk@@ABEXH@Z 1003bd80 f i thread.obj
 0001:0003add0       ??0?$ConditionVariable@VMutex@ctk@@@ctk@@QAE@ABVMutex@1@@Z 1003bdd0 f i thread.obj
 0001:0003ae30       ??1?$ConditionVariable@VMutex@ctk@@@ctk@@QAE@XZ 1003be30 f i thread.obj
 0001:0003ae80       ?wait@?$ConditionVariable@VMutex@ctk@@@ctk@@QBEXXZ 1003be80 f i thread.obj
 0001:0003aea0       ?timedWait@?$ConditionVariable@VMutex@ctk@@@ctk@@QBE_NABVTime@2@@Z 1003bea0 f i thread.obj
 0001:0003af00       ??0?$map@UThreadId@ctk@@UThreadInfo@2@U?$less@UThreadId@ctk@@@std@@V?$allocator@U?$pair@$$CBUThreadId@ctk@@UThreadInfo@2@@std@@@5@@std@@QAE@XZ 1003bf00 f i thread.obj
 0001:0003af60       ??A?$map@UThreadId@ctk@@UThreadInfo@2@U?$less@UThreadId@ctk@@@std@@V?$allocator@U?$pair@$$CBUThreadId@ctk@@UThreadInfo@2@@std@@@5@@std@@QAEAAUThreadInfo@ctk@@ABUThreadId@3@@Z 1003bf60 f i thread.obj
 0001:0003b0c0       ?erase@?$_Tree@V?$_Tmap_traits@UThreadId@ctk@@UThreadInfo@2@U?$less@UThreadId@ctk@@@std@@V?$allocator@U?$pair@$$CBUThreadId@ctk@@UThreadInfo@2@@std@@@5@$0A@@std@@@std@@QAEIABUThreadId@ctk@@@Z 1003c0c0 f i thread.obj
 0001:0003b140       ?_Tidy@?$_Tree@V?$_Tmap_traits@UThreadId@ctk@@UThreadInfo@2@U?$less@UThreadId@ctk@@@std@@V?$allocator@U?$pair@$$CBUThreadId@ctk@@UThreadInfo@2@@std@@@5@$0A@@std@@@std@@IAEXXZ 1003c140 f i thread.obj
 0001:0003b210       ??1?$_Container_base_aux_alloc_real@V?$allocator@U?$pair@$$CBUThreadId@ctk@@UThreadInfo@2@@std@@@std@@@std@@IAE@XZ 1003c210 f i thread.obj
 0001:0003b270       ?mtx@?$Singleton_T@VThreadFactory@ctk@@@ctk@@CAAAVMutex@2@XZ 1003c270 f i thread.obj
 0001:0003b2f0       ?ptr@?$Singleton_T@VThreadFactory@ctk@@@ctk@@CAAAPAVThreadFactory@2@XZ 1003c2f0 f i thread.obj
 0001:0003b300       ??1?$pair@$$CBUThreadId@ctk@@UThreadInfo@2@@std@@QAE@XZ 1003c300 f i thread.obj
 0001:0003b350       ?signal@?$ConditionVariable@VMutex@ctk@@@ctk@@QBEXXZ 1003c350 f i thread.obj
 0001:0003b370       ?broadcast@?$ConditionVariable@VMutex@ctk@@@ctk@@QBEXXZ 1003c370 f i thread.obj
 0001:0003b390       ?_Key@?$_Tree@V?$_Tmap_traits@UThreadId@ctk@@UThreadInfo@2@U?$less@UThreadId@ctk@@@std@@V?$allocator@U?$pair@$$CBUThreadId@ctk@@UThreadInfo@2@@std@@@5@$0A@@std@@@std@@KAABUThreadId@ctk@@PAU_Node@?$_Tree_nod@V?$_Tmap_traits@UThreadId@ctk@@UThreadInfo@2@U?$less@UThreadId@ctk@@@std@@V?$allocator@U?$pair@$$CBUThreadId@ctk@@UThreadInfo@2@@std@@@5@$0A@@std@@@2@@Z 1003c390 f i thread.obj
 0001:0003b3b0       ?_Left@?$_Tree@V?$_Tmap_traits@UThreadId@ctk@@UThreadInfo@2@U?$less@UThreadId@ctk@@@std@@V?$allocator@U?$pair@$$CBUThreadId@ctk@@UThreadInfo@2@@std@@@5@$0A@@std@@@std@@KAAAPAU_Node@?$_Tree_nod@V?$_Tmap_traits@UThreadId@ctk@@UThreadInfo@2@U?$less@UThreadId@ctk@@@std@@V?$allocator@U?$pair@$$CBUThreadId@ctk@@UThreadInfo@2@@std@@@5@$0A@@std@@@2@PAU342@@Z 1003c3b0 f i thread.obj
 0001:0003b3c0       ?_Parent@?$_Tree@V?$_Tmap_traits@UThreadId@ctk@@UThreadInfo@2@U?$less@UThreadId@ctk@@@std@@V?$allocator@U?$pair@$$CBUThreadId@ctk@@UThreadInfo@2@@std@@@5@$0A@@std@@@std@@KAAAPAU_Node@?$_Tree_nod@V?$_Tmap_traits@UThreadId@ctk@@UThreadInfo@2@U?$less@UThreadId@ctk@@@std@@V?$allocator@U?$pair@$$CBUThreadId@ctk@@UThreadInfo@2@@std@@@5@$0A@@std@@@2@PAU342@@Z 1003c3c0 f i thread.obj
 0001:0003b3d0       ?_Right@?$_Tree@V?$_Tmap_traits@UThreadId@ctk@@UThreadInfo@2@U?$less@UThreadId@ctk@@@std@@V?$allocator@U?$pair@$$CBUThreadId@ctk@@UThreadInfo@2@@std@@@5@$0A@@std@@@std@@KAAAPAU_Node@?$_Tree_nod@V?$_Tmap_traits@UThreadId@ctk@@UThreadInfo@2@U?$less@UThreadId@ctk@@@std@@V?$allocator@U?$pair@$$CBUThreadId@ctk@@UThreadInfo@2@@std@@@5@$0A@@std@@@2@PAU342@@Z 1003c3d0 f i thread.obj
 0001:0003b3e0       ??0?$_Tree@V?$_Tmap_traits@UThreadId@ctk@@UThreadInfo@2@U?$less@UThreadId@ctk@@@std@@V?$allocator@U?$pair@$$CBUThreadId@ctk@@UThreadInfo@2@@std@@@5@$0A@@std@@@std@@QAE@ABU?$less@UThreadId@ctk@@@1@ABV?$allocator@U?$pair@$$CBUThreadId@ctk@@UThreadInfo@2@@std@@@1@@Z 1003c3e0 f i thread.obj
 0001:0003b450       ?begin@?$_Tree@V?$_Tmap_traits@UThreadId@ctk@@UThreadInfo@2@U?$less@UThreadId@ctk@@@std@@V?$allocator@U?$pair@$$CBUThreadId@ctk@@UThreadInfo@2@@std@@@5@$0A@@std@@@std@@QAE?AViterator@12@XZ 1003c450 f i thread.obj
 0001:0003b480       ?end@?$_Tree@V?$_Tmap_traits@UThreadId@ctk@@UThreadInfo@2@U?$less@UThreadId@ctk@@@std@@V?$allocator@U?$pair@$$CBUThreadId@ctk@@UThreadInfo@2@@std@@@5@$0A@@std@@@std@@QAE?AViterator@12@XZ 1003c480 f i thread.obj
 0001:0003b4b0       ?insert@?$_Tree@V?$_Tmap_traits@UThreadId@ctk@@UThreadInfo@2@U?$less@UThreadId@ctk@@@std@@V?$allocator@U?$pair@$$CBUThreadId@ctk@@UThreadInfo@2@@std@@@5@$0A@@std@@@std@@QAE?AViterator@12@Vconst_iterator@12@ABU?$pair@$$CBUThreadId@ctk@@UThreadInfo@2@@2@@Z 1003c4b0 f i thread.obj
 0001:0003bad0       ?erase@?$_Tree@V?$_Tmap_traits@UThreadId@ctk@@UThreadInfo@2@U?$less@UThreadId@ctk@@@std@@V?$allocator@U?$pair@$$CBUThreadId@ctk@@UThreadInfo@2@@std@@@5@$0A@@std@@@std@@QAE?AViterator@12@Vconst_iterator@12@0@Z 1003cad0 f i thread.obj
 0001:0003bb80       ?lower_bound@?$_Tree@V?$_Tmap_traits@UThreadId@ctk@@UThreadInfo@2@U?$less@UThreadId@ctk@@@std@@V?$allocator@U?$pair@$$CBUThreadId@ctk@@UThreadInfo@2@@std@@@5@$0A@@std@@@std@@QAE?AViterator@12@ABUThreadId@ctk@@@Z 1003cb80 f i thread.obj
 0001:0003bbb0       ?equal_range@?$_Tree@V?$_Tmap_traits@UThreadId@ctk@@UThreadInfo@2@U?$less@UThreadId@ctk@@@std@@V?$allocator@U?$pair@$$CBUThreadId@ctk@@UThreadInfo@2@@std@@@5@$0A@@std@@@std@@QAE?AU?$pair@Viterator@?$_Tree@V?$_Tmap_traits@UThreadId@ctk@@UThreadInfo@2@U?$less@UThreadId@ctk@@@std@@V?$allocator@U?$pair@$$CBUThreadId@ctk@@UThreadInfo@2@@std@@@5@$0A@@std@@@std@@V123@@2@ABUThreadId@ctk@@@Z 1003cbb0 f i thread.obj
 0001:0003bbd0       ??0?$allocator@U?$pair@$$CBUThreadId@ctk@@UThreadInfo@2@@std@@@std@@QAE@XZ 1003cbd0 f i thread.obj
 0001:0003bbe0       ?deallocate@?$allocator@U_Node@?$_Tree_nod@V?$_Tmap_traits@UThreadId@ctk@@UThreadInfo@2@U?$less@UThreadId@ctk@@@std@@V?$allocator@U?$pair@$$CBUThreadId@ctk@@UThreadInfo@2@@std@@@5@$0A@@std@@@std@@@std@@QAEXPAU_Node@?$_Tree_nod@V?$_Tmap_traits@UThreadId@ctk@@UThreadInfo@2@U?$less@UThreadId@ctk@@@std@@V?$allocator@U?$pair@$$CBUThreadId@ctk@@UThreadInfo@2@@std@@@5@$0A@@std@@@2@I@Z 1003cbe0 f i thread.obj
 0001:0003bc00       ?destroy@?$allocator@PAU_Node@?$_Tree_nod@V?$_Tmap_traits@UThreadId@ctk@@UThreadInfo@2@U?$less@UThreadId@ctk@@@std@@V?$allocator@U?$pair@$$CBUThreadId@ctk@@UThreadInfo@2@@std@@@5@$0A@@std@@@std@@@std@@QAEXPAPAU_Node@?$_Tree_nod@V?$_Tmap_traits@UThreadId@ctk@@UThreadInfo@2@U?$less@UThreadId@ctk@@@std@@V?$allocator@U?$pair@$$CBUThreadId@ctk@@UThreadInfo@2@@std@@@5@$0A@@std@@@2@@Z 1003cc00 f i thread.obj
 0001:0003bc20       ??8const_iterator@?$_Tree@V?$_Tmap_traits@UThreadId@ctk@@UThreadInfo@2@U?$less@UThreadId@ctk@@@std@@V?$allocator@U?$pair@$$CBUThreadId@ctk@@UThreadInfo@2@@std@@@5@$0A@@std@@@std@@QBE_NABV012@@Z 1003cc20 f i thread.obj
 0001:0003bc70       ?_Mynode@const_iterator@?$_Tree@V?$_Tmap_traits@UThreadId@ctk@@UThreadInfo@2@U?$less@UThreadId@ctk@@@std@@V?$allocator@U?$pair@$$CBUThreadId@ctk@@UThreadInfo@2@@std@@@5@$0A@@std@@@std@@QBEPAU_Node@?$_Tree_nod@V?$_Tmap_traits@UThreadId@ctk@@UThreadInfo@2@U?$less@UThreadId@ctk@@@std@@V?$allocator@U?$pair@$$CBUThreadId@ctk@@UThreadInfo@2@@std@@@5@$0A@@std@@@3@XZ 1003cc70 f i thread.obj
 0001:0003bc90       ??Diterator@?$_Tree@V?$_Tmap_traits@UThreadId@ctk@@UThreadInfo@2@U?$less@UThreadId@ctk@@@std@@V?$allocator@U?$pair@$$CBUThreadId@ctk@@UThreadInfo@2@@std@@@5@$0A@@std@@@std@@QBEAAU?$pair@$$CBUThreadId@ctk@@UThreadInfo@2@@2@XZ 1003cc90 f i thread.obj
 0001:0003bcb0       ??0?$pair@$$CBUThreadId@ctk@@UThreadInfo@2@@std@@QAE@ABUThreadId@ctk@@ABUThreadInfo@3@@Z 1003ccb0 f i thread.obj
 0001:0003bd20       ?_Isnil@?$_Tree@V?$_Tmap_traits@UThreadId@ctk@@UThreadInfo@2@U?$less@UThreadId@ctk@@@std@@V?$allocator@U?$pair@$$CBUThreadId@ctk@@UThreadInfo@2@@std@@@5@$0A@@std@@@std@@KAAADPAU_Node@?$_Tree_nod@V?$_Tmap_traits@UThreadId@ctk@@UThreadInfo@2@U?$less@UThreadId@ctk@@@std@@V?$allocator@U?$pair@$$CBUThreadId@ctk@@UThreadInfo@2@@std@@@5@$0A@@std@@@2@@Z 1003cd20 f i thread.obj
 0001:0003bd30       ?_Myval@?$_Tree@V?$_Tmap_traits@UThreadId@ctk@@UThreadInfo@2@U?$less@UThreadId@ctk@@@std@@V?$allocator@U?$pair@$$CBUThreadId@ctk@@UThreadInfo@2@@std@@@5@$0A@@std@@@std@@KAAAU?$pair@$$CBUThreadId@ctk@@UThreadInfo@2@@2@PAU_Node@?$_Tree_nod@V?$_Tmap_traits@UThreadId@ctk@@UThreadInfo@2@U?$less@UThreadId@ctk@@@std@@V?$allocator@U?$pair@$$CBUThreadId@ctk@@UThreadInfo@2@@std@@@5@$0A@@std@@@2@@Z 1003cd30 f i thread.obj
 0001:0003bd40       ?_Make_iter@?$_Tree@V?$_Tmap_traits@UThreadId@ctk@@UThreadInfo@2@U?$less@UThreadId@ctk@@@std@@V?$allocator@U?$pair@$$CBUThreadId@ctk@@UThreadInfo@2@@std@@@5@$0A@@std@@@std@@QBE?AViterator@12@Vconst_iterator@12@@Z 1003cd40 f i thread.obj
 0001:0003bd70       ?size@?$_Tree@V?$_Tmap_traits@UThreadId@ctk@@UThreadInfo@2@U?$less@UThreadId@ctk@@@std@@V?$allocator@U?$pair@$$CBUThreadId@ctk@@UThreadInfo@2@@std@@@5@$0A@@std@@@std@@QBEIXZ 1003cd70 f i thread.obj
 0001:0003bd90       ?insert@?$_Tree@V?$_Tmap_traits@UThreadId@ctk@@UThreadInfo@2@U?$less@UThreadId@ctk@@@std@@V?$allocator@U?$pair@$$CBUThreadId@ctk@@UThreadInfo@2@@std@@@5@$0A@@std@@@std@@QAE?AU?$pair@Viterator@?$_Tree@V?$_Tmap_traits@UThreadId@ctk@@UThreadInfo@2@U?$less@UThreadId@ctk@@@std@@V?$allocator@U?$pair@$$CBUThreadId@ctk@@UThreadInfo@2@@std@@@5@$0A@@std@@@std@@_N@2@ABU?$pair@$$CBUThreadId@ctk@@UThreadInfo@2@@2@@Z 1003cd90 f i thread.obj
 0001:0003bf60       ?erase@?$_Tree@V?$_Tmap_traits@UThreadId@ctk@@UThreadInfo@2@U?$less@UThreadId@ctk@@@std@@V?$allocator@U?$pair@$$CBUThreadId@ctk@@UThreadInfo@2@@std@@@5@$0A@@std@@@std@@QAE?AViterator@12@Vconst_iterator@12@@Z 1003cf60 f i thread.obj
 0001:0003c740       ?clear@?$_Tree@V?$_Tmap_traits@UThreadId@ctk@@UThreadInfo@2@U?$less@UThreadId@ctk@@@std@@V?$allocator@U?$pair@$$CBUThreadId@ctk@@UThreadInfo@2@@std@@@5@$0A@@std@@@std@@QAEXXZ 1003d740 f i thread.obj
 0001:0003c7a0       ?_Eqrange@?$_Tree@V?$_Tmap_traits@UThreadId@ctk@@UThreadInfo@2@U?$less@UThreadId@ctk@@@std@@V?$allocator@U?$pair@$$CBUThreadId@ctk@@UThreadInfo@2@@std@@@5@$0A@@std@@@std@@IAE?AU?$pair@Viterator@?$_Tree@V?$_Tmap_traits@UThreadId@ctk@@UThreadInfo@2@U?$less@UThreadId@ctk@@@std@@V?$allocator@U?$pair@$$CBUThreadId@ctk@@UThreadInfo@2@@std@@@5@$0A@@std@@@std@@V123@@2@ABUThreadId@ctk@@@Z 1003d7a0 f i thread.obj
 0001:0003c950       ?_Init@?$_Tree@V?$_Tmap_traits@UThreadId@ctk@@UThreadInfo@2@U?$less@UThreadId@ctk@@@std@@V?$allocator@U?$pair@$$CBUThreadId@ctk@@UThreadInfo@2@@std@@@5@$0A@@std@@@std@@IAEXXZ 1003d950 f i thread.obj
 0001:0003c9c0       ?_Insert@?$_Tree@V?$_Tmap_traits@UThreadId@ctk@@UThreadInfo@2@U?$less@UThreadId@ctk@@@std@@V?$allocator@U?$pair@$$CBUThreadId@ctk@@UThreadInfo@2@@std@@@5@$0A@@std@@@std@@IAE?AViterator@12@_NPAU_Node@?$_Tree_nod@V?$_Tmap_traits@UThreadId@ctk@@UThreadInfo@2@U?$less@UThreadId@ctk@@@std@@V?$allocator@U?$pair@$$CBUThreadId@ctk@@UThreadInfo@2@@std@@@5@$0A@@std@@@2@ABU?$pair@$$CBUThreadId@ctk@@UThreadInfo@2@@2@@Z 1003d9c0 f i thread.obj
 0001:0003ce40       ?_Lbound@?$_Tree@V?$_Tmap_traits@UThreadId@ctk@@UThreadInfo@2@U?$less@UThreadId@ctk@@@std@@V?$allocator@U?$pair@$$CBUThreadId@ctk@@UThreadInfo@2@@std@@@5@$0A@@std@@@std@@IBEPAU_Node@?$_Tree_nod@V?$_Tmap_traits@UThreadId@ctk@@UThreadInfo@2@U?$less@UThreadId@ctk@@@std@@V?$allocator@U?$pair@$$CBUThreadId@ctk@@UThreadInfo@2@@std@@@5@$0A@@std@@@2@ABUThreadId@ctk@@@Z 1003de40 f i thread.obj
 0001:0003ced0       ?_Lmost@?$_Tree@V?$_Tmap_traits@UThreadId@ctk@@UThreadInfo@2@U?$less@UThreadId@ctk@@@std@@V?$allocator@U?$pair@$$CBUThreadId@ctk@@UThreadInfo@2@@std@@@5@$0A@@std@@@std@@IBEAAPAU_Node@?$_Tree_nod@V?$_Tmap_traits@UThreadId@ctk@@UThreadInfo@2@U?$less@UThreadId@ctk@@@std@@V?$allocator@U?$pair@$$CBUThreadId@ctk@@UThreadInfo@2@@std@@@5@$0A@@std@@@2@XZ 1003ded0 f i thread.obj
 0001:0003cef0       ?_Rmost@?$_Tree@V?$_Tmap_traits@UThreadId@ctk@@UThreadInfo@2@U?$less@UThreadId@ctk@@@std@@V?$allocator@U?$pair@$$CBUThreadId@ctk@@UThreadInfo@2@@std@@@5@$0A@@std@@@std@@IBEAAPAU_Node@?$_Tree_nod@V?$_Tmap_traits@UThreadId@ctk@@UThreadInfo@2@U?$less@UThreadId@ctk@@@std@@V?$allocator@U?$pair@$$CBUThreadId@ctk@@UThreadInfo@2@@std@@@5@$0A@@std@@@2@XZ 1003def0 f i thread.obj
 0001:0003cf10       ??0?$_Tree_val@V?$_Tmap_traits@UThreadId@ctk@@UThreadInfo@2@U?$less@UThreadId@ctk@@@std@@V?$allocator@U?$pair@$$CBUThreadId@ctk@@UThreadInfo@2@@std@@@5@$0A@@std@@@std@@IAE@ABU?$less@UThreadId@ctk@@@1@V?$allocator@U?$pair@$$CBUThreadId@ctk@@UThreadInfo@2@@std@@@1@@Z 1003df10 f i thread.obj
 0001:0003cf90       ?_Kfn@?$_Tmap_traits@UThreadId@ctk@@UThreadInfo@2@U?$less@UThreadId@ctk@@@std@@V?$allocator@U?$pair@$$CBUThreadId@ctk@@UThreadInfo@2@@std@@@5@$0A@@std@@SAABUThreadId@ctk@@ABU?$pair@$$CBUThreadId@ctk@@UThreadInfo@2@@2@@Z 1003df90 f i thread.obj
 0001:0003cfa0       ??0?$allocator@U?$pair@$$CBUThreadId@ctk@@UThreadInfo@2@@std@@@std@@QAE@ABV01@@Z 1003dfa0 f i thread.obj
 0001:0003cfb0       ??0const_iterator@?$_Tree@V?$_Tmap_traits@UThreadId@ctk@@UThreadInfo@2@U?$less@UThreadId@ctk@@@std@@V?$allocator@U?$pair@$$CBUThreadId@ctk@@UThreadInfo@2@@std@@@5@$0A@@std@@@std@@QAE@XZ 1003dfb0 f i thread.obj
 0001:0003cfd0       ??Dconst_iterator@?$_Tree@V?$_Tmap_traits@UThreadId@ctk@@UThreadInfo@2@U?$less@UThreadId@ctk@@@std@@V?$allocator@U?$pair@$$CBUThreadId@ctk@@UThreadInfo@2@@std@@@5@$0A@@std@@@std@@QBEABU?$pair@$$CBUThreadId@ctk@@UThreadInfo@2@@2@XZ 1003dfd0 f i thread.obj
 0001:0003d020       ??Econst_iterator@?$_Tree@V?$_Tmap_traits@UThreadId@ctk@@UThreadInfo@2@U?$less@UThreadId@ctk@@@std@@V?$allocator@U?$pair@$$CBUThreadId@ctk@@UThreadInfo@2@@std@@@5@$0A@@std@@@std@@QAEAAV012@XZ 1003e020 f i thread.obj
 0001:0003d040       ??Econst_iterator@?$_Tree@V?$_Tmap_traits@UThreadId@ctk@@UThreadInfo@2@U?$less@UThreadId@ctk@@@std@@V?$allocator@U?$pair@$$CBUThreadId@ctk@@UThreadInfo@2@@std@@@5@$0A@@std@@@std@@QAE?AV012@H@Z 1003e040 f i thread.obj
 0001:0003d080       ??Fconst_iterator@?$_Tree@V?$_Tmap_traits@UThreadId@ctk@@UThreadInfo@2@U?$less@UThreadId@ctk@@@std@@V?$allocator@U?$pair@$$CBUThreadId@ctk@@UThreadInfo@2@@std@@@5@$0A@@std@@@std@@QAEAAV012@XZ 1003e080 f i thread.obj
 0001:0003d0a0       ??9const_iterator@?$_Tree@V?$_Tmap_traits@UThreadId@ctk@@UThreadInfo@2@U?$less@UThreadId@ctk@@@std@@V?$allocator@U?$pair@$$CBUThreadId@ctk@@UThreadInfo@2@@std@@@5@$0A@@std@@@std@@QBE_NABV012@@Z 1003e0a0 f i thread.obj
 0001:0003d0d0       ??0iterator@?$_Tree@V?$_Tmap_traits@UThreadId@ctk@@UThreadInfo@2@U?$less@UThreadId@ctk@@@std@@V?$allocator@U?$pair@$$CBUThreadId@ctk@@UThreadInfo@2@@std@@@5@$0A@@std@@@std@@QAE@PAU_Node@?$_Tree_nod@V?$_Tmap_traits@UThreadId@ctk@@UThreadInfo@2@U?$less@UThreadId@ctk@@@std@@V?$allocator@U?$pair@$$CBUThreadId@ctk@@UThreadInfo@2@@std@@@5@$0A@@std@@@2@PBV12@@Z 1003e0d0 f i thread.obj
 0001:0003d0f0       ??0?$_Bidit@U?$pair@$$CBUThreadId@ctk@@UThreadInfo@2@@std@@HPBU12@ABU12@@std@@QAE@XZ 1003e0f0 f i thread.obj
 0001:0003d110       ??0?$_Iterator_with_base@Ubidirectional_iterator_tag@std@@U?$pair@$$CBUThreadId@ctk@@UThreadInfo@2@@2@HPBU32@ABU32@V_Iterator_base_aux@2@@std@@QAE@XZ 1003e110 f i thread.obj
 0001:0003d130       ?_Color@?$_Tree@V?$_Tmap_traits@UThreadId@ctk@@UThreadInfo@2@U?$less@UThreadId@ctk@@@std@@V?$allocator@U?$pair@$$CBUThreadId@ctk@@UThreadInfo@2@@std@@@5@$0A@@std@@@std@@KAAADPAU_Node@?$_Tree_nod@V?$_Tmap_traits@UThreadId@ctk@@UThreadInfo@2@U?$less@UThreadId@ctk@@@std@@V?$allocator@U?$pair@$$CBUThreadId@ctk@@UThreadInfo@2@@std@@@5@$0A@@std@@@2@@Z 1003e130 f i thread.obj
 0001:0003d140       ?max_size@?$_Tree@V?$_Tmap_traits@UThreadId@ctk@@UThreadInfo@2@U?$less@UThreadId@ctk@@@std@@V?$allocator@U?$pair@$$CBUThreadId@ctk@@UThreadInfo@2@@std@@@5@$0A@@std@@@std@@QBEIXZ 1003e140 f i thread.obj
 0001:0003d160       ?_Erase@?$_Tree@V?$_Tmap_traits@UThreadId@ctk@@UThreadInfo@2@U?$less@UThreadId@ctk@@@std@@V?$allocator@U?$pair@$$CBUThreadId@ctk@@UThreadInfo@2@@std@@@5@$0A@@std@@@std@@IAEXPAU_Node@?$_Tree_nod@V?$_Tmap_traits@UThreadId@ctk@@UThreadInfo@2@U?$less@UThreadId@ctk@@@std@@V?$allocator@U?$pair@$$CBUThreadId@ctk@@UThreadInfo@2@@std@@@5@$0A@@std@@@2@@Z 1003e160 f i thread.obj
 0001:0003d1e0       ?_Lrotate@?$_Tree@V?$_Tmap_traits@UThreadId@ctk@@UThreadInfo@2@U?$less@UThreadId@ctk@@@std@@V?$allocator@U?$pair@$$CBUThreadId@ctk@@UThreadInfo@2@@std@@@5@$0A@@std@@@std@@IAEXPAU_Node@?$_Tree_nod@V?$_Tmap_traits@UThreadId@ctk@@UThreadInfo@2@U?$less@UThreadId@ctk@@@std@@V?$allocator@U?$pair@$$CBUThreadId@ctk@@UThreadInfo@2@@std@@@5@$0A@@std@@@2@@Z 1003e1e0 f i thread.obj
 0001:0003d310       ?_Max@?$_Tree@V?$_Tmap_traits@UThreadId@ctk@@UThreadInfo@2@U?$less@UThreadId@ctk@@@std@@V?$allocator@U?$pair@$$CBUThreadId@ctk@@UThreadInfo@2@@std@@@5@$0A@@std@@@std@@KAPAU_Node@?$_Tree_nod@V?$_Tmap_traits@UThreadId@ctk@@UThreadInfo@2@U?$less@UThreadId@ctk@@@std@@V?$allocator@U?$pair@$$CBUThreadId@ctk@@UThreadInfo@2@@std@@@5@$0A@@std@@@2@PAU342@@Z 1003e310 f i thread.obj
 0001:0003d350       ?_Min@?$_Tree@V?$_Tmap_traits@UThreadId@ctk@@UThreadInfo@2@U?$less@UThreadId@ctk@@@std@@V?$allocator@U?$pair@$$CBUThreadId@ctk@@UThreadInfo@2@@std@@@5@$0A@@std@@@std@@KAPAU_Node@?$_Tree_nod@V?$_Tmap_traits@UThreadId@ctk@@UThreadInfo@2@U?$less@UThreadId@ctk@@@std@@V?$allocator@U?$pair@$$CBUThreadId@ctk@@UThreadInfo@2@@std@@@5@$0A@@std@@@2@PAU342@@Z 1003e350 f i thread.obj
 0001:0003d390       ?_Root@?$_Tree@V?$_Tmap_traits@UThreadId@ctk@@UThreadInfo@2@U?$less@UThreadId@ctk@@@std@@V?$allocator@U?$pair@$$CBUThreadId@ctk@@UThreadInfo@2@@std@@@5@$0A@@std@@@std@@IBEAAPAU_Node@?$_Tree_nod@V?$_Tmap_traits@UThreadId@ctk@@UThreadInfo@2@U?$less@UThreadId@ctk@@@std@@V?$allocator@U?$pair@$$CBUThreadId@ctk@@UThreadInfo@2@@std@@@5@$0A@@std@@@2@XZ 1003e390 f i thread.obj
 0001:0003d3b0       ?_Rrotate@?$_Tree@V?$_Tmap_traits@UThreadId@ctk@@UThreadInfo@2@U?$less@UThreadId@ctk@@@std@@V?$allocator@U?$pair@$$CBUThreadId@ctk@@UThreadInfo@2@@std@@@5@$0A@@std@@@std@@IAEXPAU_Node@?$_Tree_nod@V?$_Tmap_traits@UThreadId@ctk@@UThreadInfo@2@U?$less@UThreadId@ctk@@@std@@V?$allocator@U?$pair@$$CBUThreadId@ctk@@UThreadInfo@2@@std@@@5@$0A@@std@@@2@@Z 1003e3b0 f i thread.obj
 0001:0003d4e0       ?_Buynode@?$_Tree@V?$_Tmap_traits@UThreadId@ctk@@UThreadInfo@2@U?$less@UThreadId@ctk@@@std@@V?$allocator@U?$pair@$$CBUThreadId@ctk@@UThreadInfo@2@@std@@@5@$0A@@std@@@std@@IAEPAU_Node@?$_Tree_nod@V?$_Tmap_traits@UThreadId@ctk@@UThreadInfo@2@U?$less@UThreadId@ctk@@@std@@V?$allocator@U?$pair@$$CBUThreadId@ctk@@UThreadInfo@2@@std@@@5@$0A@@std@@@2@XZ 1003e4e0 f i thread.obj
 0001:0003d650       ?_Buynode@?$_Tree@V?$_Tmap_traits@UThreadId@ctk@@UThreadInfo@2@U?$less@UThreadId@ctk@@@std@@V?$allocator@U?$pair@$$CBUThreadId@ctk@@UThreadInfo@2@@std@@@5@$0A@@std@@@std@@IAEPAU_Node@?$_Tree_nod@V?$_Tmap_traits@UThreadId@ctk@@UThreadInfo@2@U?$less@UThreadId@ctk@@@std@@V?$allocator@U?$pair@$$CBUThreadId@ctk@@UThreadInfo@2@@std@@@5@$0A@@std@@@2@PAU342@00ABU?$pair@$$CBUThreadId@ctk@@UThreadInfo@2@@2@D@Z 1003e650 f i thread.obj
 0001:0003d730       ??0?$_Tree_ptr@V?$_Tmap_traits@UThreadId@ctk@@UThreadInfo@2@U?$less@UThreadId@ctk@@@std@@V?$allocator@U?$pair@$$CBUThreadId@ctk@@UThreadInfo@2@@std@@@5@$0A@@std@@@std@@IAE@ABU?$less@UThreadId@ctk@@@1@V?$allocator@U?$pair@$$CBUThreadId@ctk@@UThreadInfo@2@@std@@@1@@Z 1003e730 f i thread.obj
 0001:0003d7b0       ?destroy@?$allocator@U_Node@?$_Tree_nod@V?$_Tmap_traits@UThreadId@ctk@@UThreadInfo@2@U?$less@UThreadId@ctk@@@std@@V?$allocator@U?$pair@$$CBUThreadId@ctk@@UThreadInfo@2@@std@@@5@$0A@@std@@@std@@@std@@QAEXPAU_Node@?$_Tree_nod@V?$_Tmap_traits@UThreadId@ctk@@UThreadInfo@2@U?$less@UThreadId@ctk@@@std@@V?$allocator@U?$pair@$$CBUThreadId@ctk@@UThreadInfo@2@@std@@@5@$0A@@std@@@2@@Z 1003e7b0 f i thread.obj
 0001:0003d7d0       ??0const_iterator@?$_Tree@V?$_Tmap_traits@UThreadId@ctk@@UThreadInfo@2@U?$less@UThreadId@ctk@@@std@@V?$allocator@U?$pair@$$CBUThreadId@ctk@@UThreadInfo@2@@std@@@5@$0A@@std@@@std@@QAE@PAU_Node@?$_Tree_nod@V?$_Tmap_traits@UThreadId@ctk@@UThreadInfo@2@U?$less@UThreadId@ctk@@@std@@V?$allocator@U?$pair@$$CBUThreadId@ctk@@UThreadInfo@2@@std@@@5@$0A@@std@@@2@PBV12@@Z 1003e7d0 f i thread.obj
 0001:0003d810       ?_Dec@const_iterator@?$_Tree@V?$_Tmap_traits@UThreadId@ctk@@UThreadInfo@2@U?$less@UThreadId@ctk@@@std@@V?$allocator@U?$pair@$$CBUThreadId@ctk@@UThreadInfo@2@@std@@@5@$0A@@std@@@std@@QAEXXZ 1003e810 f i thread.obj
 0001:0003d940       ?_Inc@const_iterator@?$_Tree@V?$_Tmap_traits@UThreadId@ctk@@UThreadInfo@2@U?$less@UThreadId@ctk@@@std@@V?$allocator@U?$pair@$$CBUThreadId@ctk@@UThreadInfo@2@@std@@@5@$0A@@std@@@std@@QAEXXZ 1003e940 f i thread.obj
 0001:0003da20       ??Fiterator@?$_Tree@V?$_Tmap_traits@UThreadId@ctk@@UThreadInfo@2@U?$less@UThreadId@ctk@@@std@@V?$allocator@U?$pair@$$CBUThreadId@ctk@@UThreadInfo@2@@std@@@5@$0A@@std@@@std@@QAEAAV012@XZ 1003ea20 f i thread.obj
 0001:0003da40       ??0?$pair@Viterator@?$_Tree@V?$_Tmap_traits@UThreadId@ctk@@UThreadInfo@2@U?$less@UThreadId@ctk@@@std@@V?$allocator@U?$pair@$$CBUThreadId@ctk@@UThreadInfo@2@@std@@@5@$0A@@std@@@std@@V123@@std@@QAE@ABViterator@?$_Tree@V?$_Tmap_traits@UThreadId@ctk@@UThreadInfo@2@U?$less@UThreadId@ctk@@@std@@V?$allocator@U?$pair@$$CBUThreadId@ctk@@UThreadInfo@2@@std@@@5@$0A@@std@@@1@0@Z 1003ea40 f i thread.obj
 0001:0003da80       ??0?$pair@Viterator@?$_Tree@V?$_Tmap_traits@UThreadId@ctk@@UThreadInfo@2@U?$less@UThreadId@ctk@@@std@@V?$allocator@U?$pair@$$CBUThreadId@ctk@@UThreadInfo@2@@std@@@5@$0A@@std@@@std@@_N@std@@QAE@ABViterator@?$_Tree@V?$_Tmap_traits@UThreadId@ctk@@UThreadInfo@2@U?$less@UThreadId@ctk@@@std@@V?$allocator@U?$pair@$$CBUThreadId@ctk@@UThreadInfo@2@@std@@@5@$0A@@std@@@1@AB_N@Z 1003ea80 f i thread.obj
 0001:0003dab0       ??0?$_Tree_nod@V?$_Tmap_traits@UThreadId@ctk@@UThreadInfo@2@U?$less@UThreadId@ctk@@@std@@V?$allocator@U?$pair@$$CBUThreadId@ctk@@UThreadInfo@2@@std@@@5@$0A@@std@@@std@@IAE@ABU?$less@UThreadId@ctk@@@1@V?$allocator@U?$pair@$$CBUThreadId@ctk@@UThreadInfo@2@@std@@@1@@Z 1003eab0 f i thread.obj
 0001:0003db30       ?max_size@?$allocator@U?$pair@$$CBUThreadId@ctk@@UThreadInfo@2@@std@@@std@@QBEIXZ 1003eb30 f i thread.obj
 0001:0003db60       ?allocate@?$allocator@U_Node@?$_Tree_nod@V?$_Tmap_traits@UThreadId@ctk@@UThreadInfo@2@U?$less@UThreadId@ctk@@@std@@V?$allocator@U?$pair@$$CBUThreadId@ctk@@UThreadInfo@2@@std@@@5@$0A@@std@@@std@@@std@@QAEPAU_Node@?$_Tree_nod@V?$_Tmap_traits@UThreadId@ctk@@UThreadInfo@2@U?$less@UThreadId@ctk@@@std@@V?$allocator@U?$pair@$$CBUThreadId@ctk@@UThreadInfo@2@@std@@@5@$0A@@std@@@2@I@Z 1003eb60 f i thread.obj
 0001:0003db80       ?construct@?$allocator@PAU_Node@?$_Tree_nod@V?$_Tmap_traits@UThreadId@ctk@@UThreadInfo@2@U?$less@UThreadId@ctk@@@std@@V?$allocator@U?$pair@$$CBUThreadId@ctk@@UThreadInfo@2@@std@@@5@$0A@@std@@@std@@@std@@QAEXPAPAU_Node@?$_Tree_nod@V?$_Tmap_traits@UThreadId@ctk@@UThreadInfo@2@U?$less@UThreadId@ctk@@@std@@V?$allocator@U?$pair@$$CBUThreadId@ctk@@UThreadInfo@2@@std@@@5@$0A@@std@@@2@ABQAU342@@Z 1003eb80 f i thread.obj
 0001:0003dba0       ??0_Node@?$_Tree_nod@V?$_Tmap_traits@UThreadId@ctk@@UThreadInfo@2@U?$less@UThreadId@ctk@@@std@@V?$allocator@U?$pair@$$CBUThreadId@ctk@@UThreadInfo@2@@std@@@5@$0A@@std@@@std@@QAE@PAU012@00ABU?$pair@$$CBUThreadId@ctk@@UThreadInfo@2@@2@D@Z 1003eba0 f i thread.obj
 0001:0003dc30       ??0?$pair@$$CBUThreadId@ctk@@UThreadInfo@2@@std@@QAE@ABU01@@Z 1003ec30 f i thread.obj
 0001:0003dca0       ??0?$_Tmap_traits@UThreadId@ctk@@UThreadInfo@2@U?$less@UThreadId@ctk@@@std@@V?$allocator@U?$pair@$$CBUThreadId@ctk@@UThreadInfo@2@@std@@@5@$0A@@std@@QAE@U?$less@UThreadId@ctk@@@1@V?$allocator@U?$pair@$$CBUThreadId@ctk@@UThreadInfo@2@@std@@@1@@Z 1003eca0 f i thread.obj
 0001:0003dd10       ??0?$_Container_base_aux_alloc_real@V?$allocator@U?$pair@$$CBUThreadId@ctk@@UThreadInfo@2@@std@@@std@@@std@@IAE@V?$allocator@U?$pair@$$CBUThreadId@ctk@@UThreadInfo@2@@std@@@1@@Z 1003ed10 f i thread.obj
 0001:0003ddd0       ??0?$ACE_Condition@VACE_Thread_Mutex@@@@QAE@AAVACE_Thread_Mutex@@HPB_WPAX@Z 1003edd0 f i thread.obj
 0001:0003de60       ??1?$ACE_Condition@VACE_Thread_Mutex@@@@QAE@XZ 1003ee60 f i thread.obj
 0001:0003ded0       ?wait@?$ACE_Condition@VACE_Thread_Mutex@@@@QAEHXZ 1003eed0 f i thread.obj
 0001:0003df00       ?wait@?$ACE_Condition@VACE_Thread_Mutex@@@@QAEHPBVACE_Time_Value@@@Z 1003ef00 f i thread.obj
 0001:0003df20       ?signal@?$ACE_Condition@VACE_Thread_Mutex@@@@QAEHXZ 1003ef20 f i thread.obj
 0001:0003df40       ?broadcast@?$ACE_Condition@VACE_Thread_Mutex@@@@QAEHXZ 1003ef40 f i thread.obj
 0001:0003df60       ??$allocate@UWinHandleWrapper@ctk@@PAX_N@ctk@@YAPAUWinHandleWrapper@0@PBDI0ABQAXAB_N@Z 1003ef60 f i thread.obj
 0001:0003dfa0       ??$allocate@UWinHandleWrapper@ctk@@PAX@ctk@@YAPAUWinHandleWrapper@0@PBDI0ABQAX@Z 1003efa0 f i thread.obj
 0001:0003dfe0       ??$?6VSimpleThread@ctk@@@ctk@@YAAAVdumper@0@AAV10@ABVSimpleThread@0@@Z 1003efe0 f i thread.obj
 0001:0003e000       ??$?6VThreadFactory@ctk@@@ctk@@YAAAVdumper@0@AAV10@ABVThreadFactory@0@@Z 1003f000 f i thread.obj
 0001:0003e020       ?dump@ThreadFactory@ctk@@QBEAAVdumper@2@AAV32@@Z 1003f020 f i thread.obj
 0001:0003e1a0       ??$?6UThreadId@ctk@@UThreadInfo@1@@mt@ctk@@YAAAVdumper@1@AAV21@ABV?$map@UThreadId@ctk@@UThreadInfo@2@@01@@Z 1003f1a0 f i thread.obj
 0001:0003e1c0       ??$?6UProcessId@ctk@@@ctk@@YAAAVString@0@AAV10@ABUProcessId@0@@Z 1003f1c0 f i thread.obj
 0001:0003e1e0       ??$?6UThreadId@ctk@@@ctk@@YAAAVString@0@AAV10@ABUThreadId@0@@Z 1003f1e0 f i thread.obj
 0001:0003e200       ??$allocate@VThreadFactory@ctk@@@ctk@@YAPAVThreadFactory@0@PBDI0@Z 1003f200 f i thread.obj
 0001:0003e230       ??$destroy@VThreadFactory@ctk@@@ctk@@YAXAAPAVThreadFactory@0@PBDI1@Z 1003f230 f i thread.obj
 0001:0003e270       ??$_Distance@Viterator@?$_Tree@V?$_Tmap_traits@UThreadId@ctk@@UThreadInfo@2@U?$less@UThreadId@ctk@@@std@@V?$allocator@U?$pair@$$CBUThreadId@ctk@@UThreadInfo@2@@std@@@5@$0A@@std@@@std@@I@std@@YAXViterator@?$_Tree@V?$_Tmap_traits@UThreadId@ctk@@UThreadInfo@2@U?$less@UThreadId@ctk@@@std@@V?$allocator@U?$pair@$$CBUThreadId@ctk@@UThreadInfo@2@@std@@@5@$0A@@std@@@0@0AAI@Z 1003f270 f i thread.obj
 0001:0003e2b0       ??$_Destroy@PAU_Node@?$_Tree_nod@V?$_Tmap_traits@UThreadId@ctk@@UThreadInfo@2@U?$less@UThreadId@ctk@@@std@@V?$allocator@U?$pair@$$CBUThreadId@ctk@@UThreadInfo@2@@std@@@5@$0A@@std@@@std@@@std@@YAXPAPAU_Node@?$_Tree_nod@V?$_Tmap_traits@UThreadId@ctk@@UThreadInfo@2@U?$less@UThreadId@ctk@@@std@@V?$allocator@U?$pair@$$CBUThreadId@ctk@@UThreadInfo@2@@std@@@5@$0A@@std@@@0@@Z 1003f2b0 f i thread.obj
 0001:0003e2c0       ??$?0U?$pair@$$CBUThreadId@ctk@@UThreadInfo@2@@std@@@?$allocator@PAU_Node@?$_Tree_nod@V?$_Tmap_traits@UThreadId@ctk@@UThreadInfo@2@U?$less@UThreadId@ctk@@@std@@V?$allocator@U?$pair@$$CBUThreadId@ctk@@UThreadInfo@2@@std@@@5@$0A@@std@@@std@@@std@@QAE@ABV?$allocator@U?$pair@$$CBUThreadId@ctk@@UThreadInfo@2@@std@@@1@@Z 1003f2c0 f i thread.obj
 0001:0003e2d0       ??$_Destroy@U_Node@?$_Tree_nod@V?$_Tmap_traits@UThreadId@ctk@@UThreadInfo@2@U?$less@UThreadId@ctk@@@std@@V?$allocator@U?$pair@$$CBUThreadId@ctk@@UThreadInfo@2@@std@@@5@$0A@@std@@@std@@@std@@YAXPAU_Node@?$_Tree_nod@V?$_Tmap_traits@UThreadId@ctk@@UThreadInfo@2@U?$less@UThreadId@ctk@@@std@@V?$allocator@U?$pair@$$CBUThreadId@ctk@@UThreadInfo@2@@std@@@5@$0A@@std@@@0@@Z 1003f2d0 f i thread.obj
 0001:0003e2e0       ??$?0U?$pair@$$CBUThreadId@ctk@@UThreadInfo@2@@std@@@?$allocator@U_Node@?$_Tree_nod@V?$_Tmap_traits@UThreadId@ctk@@UThreadInfo@2@U?$less@UThreadId@ctk@@@std@@V?$allocator@U?$pair@$$CBUThreadId@ctk@@UThreadInfo@2@@std@@@5@$0A@@std@@@std@@@std@@QAE@ABV?$allocator@U?$pair@$$CBUThreadId@ctk@@UThreadInfo@2@@std@@@1@@Z 1003f2e0 f i thread.obj
 0001:0003e2f0       ??$_Allocate@U_Node@?$_Tree_nod@V?$_Tmap_traits@UThreadId@ctk@@UThreadInfo@2@U?$less@UThreadId@ctk@@@std@@V?$allocator@U?$pair@$$CBUThreadId@ctk@@UThreadInfo@2@@std@@@5@$0A@@std@@@std@@@std@@YAPAU_Node@?$_Tree_nod@V?$_Tmap_traits@UThreadId@ctk@@UThreadInfo@2@U?$less@UThreadId@ctk@@@std@@V?$allocator@U?$pair@$$CBUThreadId@ctk@@UThreadInfo@2@@std@@@5@$0A@@std@@@0@IPAU120@@Z 1003f2f0 f i thread.obj
 0001:0003e340       ??$_Construct@PAU_Node@?$_Tree_nod@V?$_Tmap_traits@UThreadId@ctk@@UThreadInfo@2@U?$less@UThreadId@ctk@@@std@@V?$allocator@U?$pair@$$CBUThreadId@ctk@@UThreadInfo@2@@std@@@5@$0A@@std@@@std@@PAU123@@std@@YAXPAPAU_Node@?$_Tree_nod@V?$_Tmap_traits@UThreadId@ctk@@UThreadInfo@2@U?$less@UThreadId@ctk@@@std@@V?$allocator@U?$pair@$$CBUThreadId@ctk@@UThreadInfo@2@@std@@@5@$0A@@std@@@0@ABQAU120@@Z 1003f340 f i thread.obj
 0001:0003e380       ??$?0U?$pair@$$CBUThreadId@ctk@@UThreadInfo@2@@std@@@?$allocator@V_Aux_cont@std@@@std@@QAE@ABV?$allocator@U?$pair@$$CBUThreadId@ctk@@UThreadInfo@2@@std@@@1@@Z 1003f380 f i thread.obj
 0001:0003e390       ??_G_Node@?$_Tree_nod@V?$_Tmap_traits@UThreadId@ctk@@UThreadInfo@2@U?$less@UThreadId@ctk@@@std@@V?$allocator@U?$pair@$$CBUThreadId@ctk@@UThreadInfo@2@@std@@@5@$0A@@std@@@std@@QAEPAXI@Z 1003f390 f i thread.obj
 0001:0003e3c0       ??1_Node@?$_Tree_nod@V?$_Tmap_traits@UThreadId@ctk@@UThreadInfo@2@U?$less@UThreadId@ctk@@@std@@V?$allocator@U?$pair@$$CBUThreadId@ctk@@UThreadInfo@2@@std@@@5@$0A@@std@@@std@@QAE@XZ 1003f3c0 f i thread.obj
 0001:0003e410       ?dump@?$map@UThreadId@ctk@@UThreadInfo@2@@mt@ctk@@QBEAAVdumper@3@AAV43@@Z 1003f410 f i thread.obj
 0001:0003e560       ?wait@?$ACE_Condition@VACE_Thread_Mutex@@@@QAEHAAVACE_Thread_Mutex@@PBVACE_Time_Value@@@Z 1003f560 f i thread.obj
 0001:0003e5e0       ?remove@?$ACE_Condition@VACE_Thread_Mutex@@@@QAEHXZ 1003f5e0 f i thread.obj
 0001:0003e630       ??$allocate_no_mlc@UWinHandleWrapper@ctk@@PAX_N@ctk@@YAPAUWinHandleWrapper@0@PBDI0ABQAXAB_N@Z 1003f630 f i thread.obj
 0001:0003e6d0       ??0WinHandleWrapper@ctk@@QAE@PAX_N@Z 1003f6d0 f i thread.obj
 0001:0003e740       ??_GWinHandleWrapper@ctk@@UAEPAXI@Z 1003f740 f i thread.obj
 0001:0003e740       ??_EWinHandleWrapper@ctk@@UAEPAXI@Z 1003f740 f i thread.obj
 0001:0003e770       ??1WinHandleWrapper@ctk@@UAE@XZ 1003f770 f i thread.obj
 0001:0003e7f0       ??$allocate_push_maybe@UWinHandleWrapper@ctk@@@ctk@@YAPAUWinHandleWrapper@0@PAU10@PBDI1@Z 1003f7f0 f i thread.obj
 0001:0003e820       ??$allocate_no_mlc@UWinHandleWrapper@ctk@@PAX@ctk@@YAPAUWinHandleWrapper@0@PBDI0ABQAX@Z 1003f820 f i thread.obj
 0001:0003e8b0       ??$?YUProcessId@ctk@@@String@ctk@@QAEAAV01@ABUProcessId@1@@Z 1003f8b0 f i thread.obj
 0001:0003e990       ??6ctk@@YAAAV?$basic_ostream@DU?$char_traits@D@std@@@std@@AAV12@ABUProcessId@0@@Z 1003f990 f i thread.obj
 0001:0003e9d0       ??$?YUThreadId@ctk@@@String@ctk@@QAEAAV01@ABUThreadId@1@@Z 1003f9d0 f i thread.obj
 0001:0003eab0       ??$allocate_no_mlc@VThreadFactory@ctk@@@ctk@@YAPAVThreadFactory@0@PBDI0@Z 1003fab0 f i thread.obj
 0001:0003eb40       ??$allocate_push_maybe@VThreadFactory@ctk@@@ctk@@YAPAVThreadFactory@0@PAV10@PBDI1@Z 1003fb40 f i thread.obj
 0001:0003eb70       ??$destroy_pop_maybe@VThreadFactory@ctk@@@ctk@@YAXPAVThreadFactory@0@PBDI1@Z 1003fb70 f i thread.obj
 0001:0003eba0       ??$destroy_no_mlc@VThreadFactory@ctk@@@ctk@@YAXAAPAVThreadFactory@0@PBDI1@Z 1003fba0 f i thread.obj
 0001:0003ebf0       ??$_Iter_cat@Viterator@?$_Tree@V?$_Tmap_traits@UThreadId@ctk@@UThreadInfo@2@U?$less@UThreadId@ctk@@@std@@V?$allocator@U?$pair@$$CBUThreadId@ctk@@UThreadInfo@2@@std@@@5@$0A@@std@@@std@@@std@@YA?AUbidirectional_iterator_tag@0@ABViterator@?$_Tree@V?$_Tmap_traits@UThreadId@ctk@@UThreadInfo@2@U?$less@UThreadId@ctk@@@std@@V?$allocator@U?$pair@$$CBUThreadId@ctk@@UThreadInfo@2@@std@@@5@$0A@@std@@@0@@Z 1003fbf0 f i thread.obj
 0001:0003ec00       ??$_Distance2@Viterator@?$_Tree@V?$_Tmap_traits@UThreadId@ctk@@UThreadInfo@2@U?$less@UThreadId@ctk@@@std@@V?$allocator@U?$pair@$$CBUThreadId@ctk@@UThreadInfo@2@@std@@@5@$0A@@std@@@std@@I@std@@YAXViterator@?$_Tree@V?$_Tmap_traits@UThreadId@ctk@@UThreadInfo@2@U?$less@UThreadId@ctk@@@std@@V?$allocator@U?$pair@$$CBUThreadId@ctk@@UThreadInfo@2@@std@@@5@$0A@@std@@@0@0AAIUbidirectional_iterator_tag@0@@Z 1003fc00 f i thread.obj
 0001:0003ec40       ??$output@V?$map@UThreadId@ctk@@UThreadInfo@2@U?$less@UThreadId@ctk@@@std@@V?$allocator@U?$pair@$$CBUThreadId@ctk@@UThreadInfo@2@@std@@@5@@std@@@ctk@@YAAAVdumper@0@AAV10@ABV?$map@UThreadId@ctk@@UThreadInfo@2@U?$less@UThreadId@ctk@@@std@@V?$allocator@U?$pair@$$CBUThreadId@ctk@@UThreadInfo@2@@std@@@5@@std@@@Z 1003fc40 f i thread.obj
 0001:0003eca0       ??_GThreadFactory@ctk@@QAEPAXI@Z 1003fca0 f i thread.obj
 0001:0003ecd0       ??1ThreadFactory@ctk@@QAE@XZ 1003fcd0 f i thread.obj
 0001:0003ed20       ?begin@?$_Tree@V?$_Tmap_traits@UThreadId@ctk@@UThreadInfo@2@U?$less@UThreadId@ctk@@@std@@V?$allocator@U?$pair@$$CBUThreadId@ctk@@UThreadInfo@2@@std@@@5@$0A@@std@@@std@@QBE?AVconst_iterator@12@XZ 1003fd20 f i thread.obj
 0001:0003ed50       ?end@?$_Tree@V?$_Tmap_traits@UThreadId@ctk@@UThreadInfo@2@U?$less@UThreadId@ctk@@@std@@V?$allocator@U?$pair@$$CBUThreadId@ctk@@UThreadInfo@2@@std@@@5@$0A@@std@@@std@@QBE?AVconst_iterator@12@XZ 1003fd50 f i thread.obj
 0001:0003ed80       ??Eiterator@?$_Tree@V?$_Tmap_traits@UThreadId@ctk@@UThreadInfo@2@U?$less@UThreadId@ctk@@@std@@V?$allocator@U?$pair@$$CBUThreadId@ctk@@UThreadInfo@2@@std@@@5@$0A@@std@@@std@@QAEAAV012@XZ 1003fd80 f i thread.obj
 0001:0003eda0       ??$make_pair@Vconst_iterator@?$_Tree@V?$_Tmap_traits@UThreadId@ctk@@UThreadInfo@2@U?$less@UThreadId@ctk@@@std@@V?$allocator@U?$pair@$$CBUThreadId@ctk@@UThreadInfo@2@@std@@@5@$0A@@std@@@std@@V123@@std@@YA?AU?$pair@Vconst_iterator@?$_Tree@V?$_Tmap_traits@UThreadId@ctk@@UThreadInfo@2@U?$less@UThreadId@ctk@@@std@@V?$allocator@U?$pair@$$CBUThreadId@ctk@@UThreadInfo@2@@std@@@5@$0A@@std@@@std@@V123@@0@Vconst_iterator@?$_Tree@V?$_Tmap_traits@UThreadId@ctk@@UThreadInfo@2@U?$less@UThreadId@ctk@@@std@@V?$allocator@U?$pair@$$CBUThreadId@ctk@@UThreadInfo@2@@std@@@5@$0A@@std@@@0@0@Z 1003fda0 f i thread.obj
 0001:0003edc0       ??$output_@Vconst_iterator@?$_Tree@V?$_Tmap_traits@UThreadId@ctk@@UThreadInfo@2@U?$less@UThreadId@ctk@@@std@@V?$allocator@U?$pair@$$CBUThreadId@ctk@@UThreadInfo@2@@std@@@5@$0A@@std@@@std@@@ctk@@YAAAVdumper@0@AAV10@U?$pair@Vconst_iterator@?$_Tree@V?$_Tmap_traits@UThreadId@ctk@@UThreadInfo@2@U?$less@UThreadId@ctk@@@std@@V?$allocator@U?$pair@$$CBUThreadId@ctk@@UThreadInfo@2@@std@@@5@$0A@@std@@@std@@V123@@std@@@Z 1003fdc0 f i thread.obj
 0001:0003ee40       ??0?$pair@Vconst_iterator@?$_Tree@V?$_Tmap_traits@UThreadId@ctk@@UThreadInfo@2@U?$less@UThreadId@ctk@@@std@@V?$allocator@U?$pair@$$CBUThreadId@ctk@@UThreadInfo@2@@std@@@5@$0A@@std@@@std@@V123@@std@@QAE@ABVconst_iterator@?$_Tree@V?$_Tmap_traits@UThreadId@ctk@@UThreadInfo@2@U?$less@UThreadId@ctk@@@std@@V?$allocator@U?$pair@$$CBUThreadId@ctk@@UThreadInfo@2@@std@@@5@$0A@@std@@@1@0@Z 1003fe40 f i thread.obj
 0001:0003ee80       ??$?6$$CBUThreadId@ctk@@UThreadInfo@1@@ctk@@YAAAVdumper@0@AAV10@ABU?$pair@$$CBUThreadId@ctk@@UThreadInfo@2@@std@@@Z 1003fe80 f i thread.obj
 0001:0003ef60       ??$?6UThreadInfo@ctk@@@ctk@@YAAAVdumper@0@AAV10@ABUThreadInfo@0@@Z 1003ff60 f i thread.obj
 0001:0003ef80       ?getpid@ACE_OS@@YAHXZ      1003ff80 f i thread.obj
 0001:0003ef90       ?thr_yield@ACE_OS@@YAXXZ   1003ff90 f i thread.obj
 0001:0003efa0       ??MTime@ctk@@QBE_NABV01@@Z 1003ffa0 f i thread.obj
 0001:0003eff0       ??9Time@ctk@@QBE_NABV01@@Z 1003fff0 f i thread.obj
 0001:0003f040       ??1ThreadStartedException@ctk@@UAE@XZ 10040040 f i thread.obj
 0001:0003f090       ??0ThreadStartedException@ctk@@QAE@ABV01@@Z 10040090 f i thread.obj
 0001:0003f0f0       ??_EThreadStartedException@ctk@@UAEPAXI@Z 100400f0 f i thread.obj
 0001:0003f160       ??1ThreadNotStartedException@ctk@@UAE@XZ 10040160 f i thread.obj
 0001:0003f1b0       ??0ThreadNotStartedException@ctk@@QAE@ABV01@@Z 100401b0 f i thread.obj
 0001:0003f210       ??_EThreadNotStartedException@ctk@@UAEPAXI@Z 10040210 f i thread.obj
 0001:0003f280       ??0NullHandleException@ctk@@QAE@PBDI0@Z 10040280 f   threadexception.obj
 0001:0003f310       ??0ThreadSyscallException@ctk@@QAE@PBDI0H@Z 10040310 f   threadexception.obj
 0001:0003f390       ?dump@ThreadSyscallException@ctk@@UBEXAAV?$basic_ostream@DU?$char_traits@D@std@@@std@@@Z 10040390 f   threadexception.obj
 0001:0003f430       ?error@ThreadSyscallException@ctk@@QBEHXZ 10040430 f   threadexception.obj
 0001:0003f450       ??0ThreadLockedException@ctk@@QAE@PBDI0@Z 10040450 f   threadexception.obj
 0001:0003f4c0       ??0ThreadStartedException@ctk@@QAE@PBDI0@Z 100404c0 f   threadexception.obj
 0001:0003f530       ??0ThreadNotStartedException@ctk@@QAE@PBDI0@Z 10040530 f   threadexception.obj
 0001:0003f5a0       ??_EThreadLockedException@ctk@@UAEPAXI@Z 100405a0 f i threadexception.obj
 0001:0003f610       ??1ThreadLockedException@ctk@@UAE@XZ 10040610 f i threadexception.obj
 0001:0003f660       ??6ntv@pml@ctk@@YAAAVUnit@012@AAV3012@ABVShowPattern@12@@Z 10040660 f   ntv.obj
 0001:0003f700       ??6ntv@pml@ctk@@YAAAVUnit@012@AAV3012@ABVShowMode@12@@Z 10040700 f   ntv.obj
 0001:0003f7a0       ??$?6VShowPattern@pml@ctk@@@ctk@@YAAAVString@0@AAV10@ABVShowPattern@pml@0@@Z 100407a0 f i ntv.obj
 0001:0003f7c0       ??$?6VShowMode@pml@ctk@@@ctk@@YAAAVString@0@AAV10@ABVShowMode@pml@0@@Z 100407c0 f i ntv.obj
 0001:0003f7e0       ??$?YVShowPattern@pml@ctk@@@String@ctk@@QAEAAV01@ABVShowPattern@pml@1@@Z 100407e0 f i ntv.obj
 0001:0003f8c0       ??$?YVShowMode@pml@ctk@@@String@ctk@@QAEAAV01@ABVShowMode@pml@1@@Z 100408c0 f i ntv.obj
 0001:0003f9a0       ??_GListValue@ntv@pml@ctk@@UAEPAXI@Z 100409a0 f i ntv_listvalue.obj
 0001:0003f9d0       ??_EListValue@ntv@pml@ctk@@UAEPAXI@Z 100409d0 f i ntv_listvalue.obj
 0001:0003fa40       ??0ListValue@ntv@pml@ctk@@QAE@PAVUnit@123@@Z 10040a40 f   ntv_listvalue.obj
 0001:0003fac0       ??0ListValue@ntv@pml@ctk@@QAE@ABV?$vector@PAVUnit@ntv@pml@ctk@@V?$allocator@PAVUnit@ntv@pml@ctk@@@std@@@std@@PAVUnit@123@@Z 10040ac0 f   ntv_listvalue.obj
 0001:0003fba0       ??1ListValue@ntv@pml@ctk@@UAE@XZ 10040ba0 f   ntv_listvalue.obj
 0001:0003fc10       ?clear@ListValue@ntv@pml@ctk@@QAEXXZ 10040c10 f   ntv_listvalue.obj
 0001:0003fc90       ?push_back@ListValue@ntv@pml@ctk@@QAEAAV1234@ABQAVUnit@234@@Z 10040c90 f   ntv_listvalue.obj
 0001:0003fcb0       ?single@ListValue@ntv@pml@ctk@@UBE_NXZ 10040cb0 f   ntv_listvalue.obj
 0001:0003fcc0       ?clone@ListValue@ntv@pml@ctk@@UBEPAV1234@XZ 10040cc0 f   ntv_listvalue.obj
 0001:0003fcf0       ?data@ListValue@ntv@pml@ctk@@QBEABV?$vector@PAVUnit@ntv@pml@ctk@@V?$allocator@PAVUnit@ntv@pml@ctk@@@std@@@std@@XZ 10040cf0 f   ntv_listvalue.obj
 0001:0003fd10       ?empty@ListValue@ntv@pml@ctk@@QBE_NXZ 10040d10 f   ntv_listvalue.obj
 0001:0003fd30       ?size@ListValue@ntv@pml@ctk@@QBEKXZ 10040d30 f   ntv_listvalue.obj
 0001:0003fd50       ?begin@ListValue@ntv@pml@ctk@@QBE?AV?$_Vector_const_iterator@PAVUnit@ntv@pml@ctk@@V?$allocator@PAVUnit@ntv@pml@ctk@@@std@@@std@@XZ 10040d50 f   ntv_listvalue.obj
 0001:0003fd70       ?end@ListValue@ntv@pml@ctk@@QBE?AV?$_Vector_const_iterator@PAVUnit@ntv@pml@ctk@@V?$allocator@PAVUnit@ntv@pml@ctk@@@std@@@std@@XZ 10040d70 f   ntv_listvalue.obj
 0001:0003fd90       ?at@ListValue@ntv@pml@ctk@@QBEPAVUnit@234@K@Z 10040d90 f   ntv_listvalue.obj
 0001:0003fec0       ?dump@ListValue@ntv@pml@ctk@@UBEAAV?$basic_ostream@DU?$char_traits@D@std@@@std@@AAV56@@Z 10040ec0 f   ntv_listvalue.obj
 0001:0003ff30       ?dump@ListValue@ntv@pml@ctk@@UBEAAVdumper@4@AAV54@@Z 10040f30 f   ntv_listvalue.obj
 0001:0003ffc0       ??0?$vector@PAVUnit@ntv@pml@ctk@@V?$allocator@PAVUnit@ntv@pml@ctk@@@std@@@std@@QAE@XZ 10040fc0 f i ntv_listvalue.obj
 0001:00040030       ??1?$vector@PAVUnit@ntv@pml@ctk@@V?$allocator@PAVUnit@ntv@pml@ctk@@@std@@@std@@QAE@XZ 10041030 f i ntv_listvalue.obj
 0001:00040090       ?begin@?$vector@PAVUnit@ntv@pml@ctk@@V?$allocator@PAVUnit@ntv@pml@ctk@@@std@@@std@@QAE?AV?$_Vector_iterator@PAVUnit@ntv@pml@ctk@@V?$allocator@PAVUnit@ntv@pml@ctk@@@std@@@2@XZ 10041090 f i ntv_listvalue.obj
 0001:000400c0       ?begin@?$vector@PAVUnit@ntv@pml@ctk@@V?$allocator@PAVUnit@ntv@pml@ctk@@@std@@@std@@QBE?AV?$_Vector_const_iterator@PAVUnit@ntv@pml@ctk@@V?$allocator@PAVUnit@ntv@pml@ctk@@@std@@@2@XZ 100410c0 f i ntv_listvalue.obj
 0001:000400f0       ?end@?$vector@PAVUnit@ntv@pml@ctk@@V?$allocator@PAVUnit@ntv@pml@ctk@@@std@@@std@@QAE?AV?$_Vector_iterator@PAVUnit@ntv@pml@ctk@@V?$allocator@PAVUnit@ntv@pml@ctk@@@std@@@2@XZ 100410f0 f i ntv_listvalue.obj
 0001:00040120       ?end@?$vector@PAVUnit@ntv@pml@ctk@@V?$allocator@PAVUnit@ntv@pml@ctk@@@std@@@std@@QBE?AV?$_Vector_const_iterator@PAVUnit@ntv@pml@ctk@@V?$allocator@PAVUnit@ntv@pml@ctk@@@std@@@2@XZ 10041120 f i ntv_listvalue.obj
 0001:00040150       ?size@?$vector@PAVUnit@ntv@pml@ctk@@V?$allocator@PAVUnit@ntv@pml@ctk@@@std@@@std@@QBEIXZ 10041150 f i ntv_listvalue.obj
 0001:00040170       ?empty@?$vector@PAVUnit@ntv@pml@ctk@@V?$allocator@PAVUnit@ntv@pml@ctk@@@std@@@std@@QBE_NXZ 10041170 f i ntv_listvalue.obj
 0001:00040190       ??A?$vector@PAVUnit@ntv@pml@ctk@@V?$allocator@PAVUnit@ntv@pml@ctk@@@std@@@std@@QBEABQAVUnit@ntv@pml@ctk@@I@Z 10041190 f i ntv_listvalue.obj
 0001:000401c0       ?push_back@?$vector@PAVUnit@ntv@pml@ctk@@V?$allocator@PAVUnit@ntv@pml@ctk@@@std@@@std@@QAEXABQAVUnit@ntv@pml@ctk@@@Z 100411c0 f i ntv_listvalue.obj
 0001:00040240       ?clear@?$vector@PAVUnit@ntv@pml@ctk@@V?$allocator@PAVUnit@ntv@pml@ctk@@@std@@@std@@QAEXXZ 10041240 f i ntv_listvalue.obj
 0001:000402a0       ??D?$_Vector_iterator@PAVUnit@ntv@pml@ctk@@V?$allocator@PAVUnit@ntv@pml@ctk@@@std@@@std@@QBEAAPAVUnit@ntv@pml@ctk@@XZ 100412a0 f i ntv_listvalue.obj
 0001:000402c0       ??E?$_Vector_iterator@PAVUnit@ntv@pml@ctk@@V?$allocator@PAVUnit@ntv@pml@ctk@@@std@@@std@@QAEAAV01@XZ 100412c0 f i ntv_listvalue.obj
 0001:000402e0       ??1?$_Vector_val@PAVUnit@ntv@pml@ctk@@V?$allocator@PAVUnit@ntv@pml@ctk@@@std@@@std@@QAE@XZ 100412e0 f i ntv_listvalue.obj
 0001:00040330       ?capacity@?$vector@PAVUnit@ntv@pml@ctk@@V?$allocator@PAVUnit@ntv@pml@ctk@@@std@@@std@@QBEIXZ 10041330 f i ntv_listvalue.obj
 0001:00040370       ?insert@?$vector@PAVUnit@ntv@pml@ctk@@V?$allocator@PAVUnit@ntv@pml@ctk@@@std@@@std@@QAE?AV?$_Vector_iterator@PAVUnit@ntv@pml@ctk@@V?$allocator@PAVUnit@ntv@pml@ctk@@@std@@@2@V?$_Vector_const_iterator@PAVUnit@ntv@pml@ctk@@V?$allocator@PAVUnit@ntv@pml@ctk@@@std@@@2@ABQAVUnit@ntv@pml@ctk@@@Z 10041370 f i ntv_listvalue.obj
 0001:000403f0       ?erase@?$vector@PAVUnit@ntv@pml@ctk@@V?$allocator@PAVUnit@ntv@pml@ctk@@@std@@@std@@QAE?AV?$_Vector_iterator@PAVUnit@ntv@pml@ctk@@V?$allocator@PAVUnit@ntv@pml@ctk@@@std@@@2@V?$_Vector_const_iterator@PAVUnit@ntv@pml@ctk@@V?$allocator@PAVUnit@ntv@pml@ctk@@@std@@@2@0@Z 100413f0 f i ntv_listvalue.obj
 0001:00040490       ?_Buy@?$vector@PAVUnit@ntv@pml@ctk@@V?$allocator@PAVUnit@ntv@pml@ctk@@@std@@@std@@IAE_NI@Z 10041490 f i ntv_listvalue.obj
 0001:00040510       ?_Tidy@?$vector@PAVUnit@ntv@pml@ctk@@V?$allocator@PAVUnit@ntv@pml@ctk@@@std@@@std@@IAEXXZ 10041510 f i ntv_listvalue.obj
 0001:00040580       ?_Ufill@?$vector@PAVUnit@ntv@pml@ctk@@V?$allocator@PAVUnit@ntv@pml@ctk@@@std@@@std@@IAEPAPAVUnit@ntv@pml@ctk@@PAPAV3456@IABQAV3456@@Z 10041580 f i ntv_listvalue.obj
 0001:000405c0       ??0?$_Vector_val@PAVUnit@ntv@pml@ctk@@V?$allocator@PAVUnit@ntv@pml@ctk@@@std@@@std@@IAE@V?$allocator@PAVUnit@ntv@pml@ctk@@@1@@Z 100415c0 f i ntv_listvalue.obj
 0001:00040630       ??1?$_Container_base_aux_alloc_real@V?$allocator@PAVUnit@ntv@pml@ctk@@@std@@@std@@IAE@XZ 10041630 f i ntv_listvalue.obj
 0001:00040690       ??0?$allocator@PAVUnit@ntv@pml@ctk@@@std@@QAE@XZ 10041690 f i ntv_listvalue.obj
 0001:000406a0       ??0?$_Vector_const_iterator@PAVUnit@ntv@pml@ctk@@V?$allocator@PAVUnit@ntv@pml@ctk@@@std@@@std@@QAE@PAPAVUnit@ntv@pml@ctk@@PBV_Container_base_aux@1@@Z 100416a0 f i ntv_listvalue.obj
 0001:00040700       ??0?$_Vector_iterator@PAVUnit@ntv@pml@ctk@@V?$allocator@PAVUnit@ntv@pml@ctk@@@std@@@std@@QAE@PAPAVUnit@ntv@pml@ctk@@PBV_Container_base_aux@1@@Z 10041700 f i ntv_listvalue.obj
 0001:00040720       ??0?$_Ranit@PAVUnit@ntv@pml@ctk@@HPBQAV1234@ABQAV1234@@std@@QAE@XZ 10041720 f i ntv_listvalue.obj
 0001:00040740       ??0?$_Iterator_with_base@Urandom_access_iterator_tag@std@@PAVUnit@ntv@pml@ctk@@HPBQAV3456@ABQAV3456@V_Iterator_base_aux@2@@std@@QAE@XZ 10041740 f i ntv_listvalue.obj
 0001:00040760       ?_Make_iter@?$vector@PAVUnit@ntv@pml@ctk@@V?$allocator@PAVUnit@ntv@pml@ctk@@@std@@@std@@QBE?AV?$_Vector_iterator@PAVUnit@ntv@pml@ctk@@V?$allocator@PAVUnit@ntv@pml@ctk@@@std@@@2@V?$_Vector_const_iterator@PAVUnit@ntv@pml@ctk@@V?$allocator@PAVUnit@ntv@pml@ctk@@@std@@@2@@Z 10041760 f i ntv_listvalue.obj
 0001:00040780       ?max_size@?$vector@PAVUnit@ntv@pml@ctk@@V?$allocator@PAVUnit@ntv@pml@ctk@@@std@@@std@@QBEIXZ 10041780 f i ntv_listvalue.obj
 0001:000407a0       ?_Destroy@?$vector@PAVUnit@ntv@pml@ctk@@V?$allocator@PAVUnit@ntv@pml@ctk@@@std@@@std@@IAEXPAPAVUnit@ntv@pml@ctk@@0@Z 100417a0 f i ntv_listvalue.obj
 0001:000407d0       ?_Insert_n@?$vector@PAVUnit@ntv@pml@ctk@@V?$allocator@PAVUnit@ntv@pml@ctk@@@std@@@std@@IAEXV?$_Vector_const_iterator@PAVUnit@ntv@pml@ctk@@V?$allocator@PAVUnit@ntv@pml@ctk@@@std@@@2@IABQAVUnit@ntv@pml@ctk@@@Z 100417d0 f i ntv_listvalue.obj
 0001:00040b80       ?_Xlen@?$vector@PAVUnit@ntv@pml@ctk@@V?$allocator@PAVUnit@ntv@pml@ctk@@@std@@@std@@KAXXZ 10041b80 f i ntv_listvalue.obj
 0001:00040c00       ??0?$_Container_base_aux_alloc_real@V?$allocator@PAVUnit@ntv@pml@ctk@@@std@@@std@@IAE@V?$allocator@PAVUnit@ntv@pml@ctk@@@1@@Z 10041c00 f i ntv_listvalue.obj
 0001:00040cc0       ??0?$allocator@PAVUnit@ntv@pml@ctk@@@std@@QAE@ABV01@@Z 10041cc0 f i ntv_listvalue.obj
 0001:00040cd0       ?deallocate@?$allocator@PAVUnit@ntv@pml@ctk@@@std@@QAEXPAPAVUnit@ntv@pml@ctk@@I@Z 10041cd0 f i ntv_listvalue.obj
 0001:00040cf0       ?allocate@?$allocator@PAVUnit@ntv@pml@ctk@@@std@@QAEPAPAVUnit@ntv@pml@ctk@@I@Z 10041cf0 f i ntv_listvalue.obj
 0001:00040d10       ??G?$_Vector_const_iterator@PAVUnit@ntv@pml@ctk@@V?$allocator@PAVUnit@ntv@pml@ctk@@@std@@@std@@QBEHABV01@@Z 10041d10 f i ntv_listvalue.obj
 0001:00040d60       ??H?$_Vector_iterator@PAVUnit@ntv@pml@ctk@@V?$allocator@PAVUnit@ntv@pml@ctk@@@std@@@std@@QBE?AV01@H@Z 10041d60 f i ntv_listvalue.obj
 0001:00040da0       ?max_size@?$allocator@PAVUnit@ntv@pml@ctk@@@std@@QBEIXZ 10041da0 f i ntv_listvalue.obj
 0001:00040dd0       ??Y?$_Vector_iterator@PAVUnit@ntv@pml@ctk@@V?$allocator@PAVUnit@ntv@pml@ctk@@@std@@@std@@QAEAAV01@H@Z 10041dd0 f i ntv_listvalue.obj
 0001:00040df0       ??Y?$_Vector_const_iterator@PAVUnit@ntv@pml@ctk@@V?$allocator@PAVUnit@ntv@pml@ctk@@@std@@@std@@QAEAAV01@H@Z 10041df0 f i ntv_listvalue.obj
 0001:00040e70       ??$allocate@VUnit@ntv@pml@ctk@@V1234@@ctk@@YAPAVUnit@ntv@pml@0@PBDI0ABV1230@@Z 10041e70 f i ntv_listvalue.obj
 0001:00040eb0       ??$destroy@VUnit@ntv@pml@ctk@@@ctk@@YAXAAPAVUnit@ntv@pml@0@PBDI1@Z 10041eb0 f i ntv_listvalue.obj
 0001:00040ef0       ??$allocate@VListValue@ntv@pml@ctk@@V?$vector@PAVUnit@ntv@pml@ctk@@V?$allocator@PAVUnit@ntv@pml@ctk@@@std@@@std@@@ctk@@YAPAVListValue@ntv@pml@0@PBDI0ABV?$vector@PAVUnit@ntv@pml@ctk@@V?$allocator@PAVUnit@ntv@pml@ctk@@@std@@@std@@@Z 10041ef0 f i ntv_listvalue.obj
 0001:00040f30       ??$write@VUnit@ntv@pml@ctk@@@dumper@ctk@@QAEAAV01@ABUistr@1@ABVUnit@ntv@pml@1@PBD@Z 10041f30 f i ntv_listvalue.obj
 0001:00040f90       ??$unchecked_copy@PAPAVUnit@ntv@pml@ctk@@PAPAV1234@@stdext@@YAPAPAVUnit@ntv@pml@ctk@@PAPAV1234@00@Z 10041f90 f i ntv_listvalue.obj
 0001:00041000       ??$unchecked_uninitialized_fill_n@PAPAVUnit@ntv@pml@ctk@@IPAV1234@V?$allocator@PAVUnit@ntv@pml@ctk@@@std@@@stdext@@YAXPAPAVUnit@ntv@pml@ctk@@IABQAV1234@AAV?$allocator@PAVUnit@ntv@pml@ctk@@@std@@@Z 10042000 f i ntv_listvalue.obj
 0001:00041050       ??$_Destroy_range@V?$allocator@PAVUnit@ntv@pml@ctk@@@std@@@std@@YAXPAPAVUnit@ntv@pml@ctk@@0AAV?$allocator@PAVUnit@ntv@pml@ctk@@@0@@Z 10042050 f i ntv_listvalue.obj
 0001:00041090       ??$_Umove@PAPAVUnit@ntv@pml@ctk@@@?$vector@PAVUnit@ntv@pml@ctk@@V?$allocator@PAVUnit@ntv@pml@ctk@@@std@@@std@@IAEPAPAVUnit@ntv@pml@ctk@@PAPAV2345@00@Z 10042090 f i ntv_listvalue.obj
 0001:000410c0       ??$fill@PAPAVUnit@ntv@pml@ctk@@PAV1234@@std@@YAXPAPAVUnit@ntv@pml@ctk@@0ABQAV1234@@Z 100420c0 f i ntv_listvalue.obj
 0001:000410f0       ??$_Unchecked_move_backward@PAPAVUnit@ntv@pml@ctk@@PAPAV1234@@stdext@@YAPAPAVUnit@ntv@pml@ctk@@PAPAV1234@00@Z 100420f0 f i ntv_listvalue.obj
 0001:00041160       ??$?0PAVUnit@ntv@pml@ctk@@@?$allocator@V_Aux_cont@std@@@std@@QAE@ABV?$allocator@PAVUnit@ntv@pml@ctk@@@1@@Z 10042160 f i ntv_listvalue.obj
 0001:00041170       ??$_Allocate@PAVUnit@ntv@pml@ctk@@@std@@YAPAPAVUnit@ntv@pml@ctk@@IPAPAV1234@@Z 10042170 f i ntv_listvalue.obj
 0001:000411c0       ??$allocate_no_mlc@VUnit@ntv@pml@ctk@@V1234@@ctk@@YAPAVUnit@ntv@pml@0@PBDI0ABV1230@@Z 100421c0 f i ntv_listvalue.obj
 0001:00041250       ??$destroy_pop_maybe@VUnit@ntv@pml@ctk@@@ctk@@YAXPAVUnit@ntv@pml@0@PBDI1@Z 10042250 f i ntv_listvalue.obj
 0001:00041280       ??$destroy_no_mlc@VUnit@ntv@pml@ctk@@@ctk@@YAXAAPAVUnit@ntv@pml@0@PBDI1@Z 10042280 f i ntv_listvalue.obj
 0001:000412d0       ??$allocate_no_mlc@VListValue@ntv@pml@ctk@@V?$vector@PAVUnit@ntv@pml@ctk@@V?$allocator@PAVUnit@ntv@pml@ctk@@@std@@@std@@@ctk@@YAPAVListValue@ntv@pml@0@PBDI0ABV?$vector@PAVUnit@ntv@pml@ctk@@V?$allocator@PAVUnit@ntv@pml@ctk@@@std@@@std@@@Z 100422d0 f i ntv_listvalue.obj
 0001:00041360       ??$allocate_push_maybe@VListValue@ntv@pml@ctk@@@ctk@@YAPAVListValue@ntv@pml@0@PAV1230@PBDI1@Z 10042360 f i ntv_listvalue.obj
 0001:00041390       ??$?6VUnit@ntv@pml@ctk@@@ctk@@YAAAVdumper@0@AAV10@ABVUnit@ntv@pml@0@@Z 10042390 f i ntv_listvalue.obj
 0001:000413b0       ??$_Checked_base@PAPAVUnit@ntv@pml@ctk@@@std@@YAPAPAVUnit@ntv@pml@ctk@@AAPAPAV1234@@Z 100423b0 f i ntv_listvalue.obj
 0001:000413d0       ??$_Iter_random@PAPAVUnit@ntv@pml@ctk@@PAPAV1234@@std@@YA?AUrandom_access_iterator_tag@0@ABQAPAVUnit@ntv@pml@ctk@@0@Z 100423d0 f i ntv_listvalue.obj
 0001:000413e0       ??$_Ptr_cat@PAPAVUnit@ntv@pml@ctk@@PAPAV1234@@std@@YA?AU_Scalar_ptr_iterator_tag@0@AAPAPAVUnit@ntv@pml@ctk@@0@Z 100423e0 f i ntv_listvalue.obj
 0001:000413f0       ??$_Copy_opt@PAPAVUnit@ntv@pml@ctk@@PAPAV1234@Urandom_access_iterator_tag@std@@@std@@YAPAPAVUnit@ntv@pml@ctk@@PAPAV1234@00Urandom_access_iterator_tag@0@U_Scalar_ptr_iterator_tag@0@U_Range_checked_iterator_tag@0@@Z 100423f0 f i ntv_listvalue.obj
 0001:00041440       ??$_Uninit_fill_n@PAPAVUnit@ntv@pml@ctk@@IPAV1234@V?$allocator@PAVUnit@ntv@pml@ctk@@@std@@@std@@YAXPAPAVUnit@ntv@pml@ctk@@IABQAV1234@AAV?$allocator@PAVUnit@ntv@pml@ctk@@@0@U_Scalar_ptr_iterator_tag@0@U_Range_checked_iterator_tag@0@@Z 10042440 f i ntv_listvalue.obj
 0001:00041460       ??$_Destroy_range@V?$allocator@PAVUnit@ntv@pml@ctk@@@std@@@std@@YAXPAPAVUnit@ntv@pml@ctk@@0AAV?$allocator@PAVUnit@ntv@pml@ctk@@@0@U_Scalar_ptr_iterator_tag@0@@Z 10042460 f i ntv_listvalue.obj
 0001:00041470       ??$_Unchecked_uninitialized_move@PAPAVUnit@ntv@pml@ctk@@PAPAV1234@V?$allocator@PAVUnit@ntv@pml@ctk@@@std@@@stdext@@YAPAPAVUnit@ntv@pml@ctk@@PAPAV1234@00AAV?$allocator@PAVUnit@ntv@pml@ctk@@@std@@@Z 10042470 f i ntv_listvalue.obj
 0001:000414c0       ??$_Fill@PAPAVUnit@ntv@pml@ctk@@PAV1234@@std@@YAXPAPAVUnit@ntv@pml@ctk@@0ABQAV1234@@Z 100424c0 f i ntv_listvalue.obj
 0001:000414f0       ??$_Move_cat@PAPAVUnit@ntv@pml@ctk@@@std@@YA?AU_Undefined_move_tag@0@ABQAPAVUnit@ntv@pml@ctk@@@Z 100424f0 f i ntv_listvalue.obj
 0001:00041500       ??$_Move_backward_opt@PAPAVUnit@ntv@pml@ctk@@PAPAV1234@Urandom_access_iterator_tag@std@@U_Undefined_move_tag@6@@std@@YAPAPAVUnit@ntv@pml@ctk@@PAPAV1234@00Urandom_access_iterator_tag@0@U_Undefined_move_tag@0@U_Range_checked_iterator_tag@0@@Z 10042500 f i ntv_listvalue.obj
 0001:00041550       ??_GUnit@ntv@pml@ctk@@QAEPAXI@Z 10042550 f i ntv_listvalue.obj
 0001:00041580       ??$_Checked_base@PAPAVUnit@ntv@pml@ctk@@@std@@YAPAPAVUnit@ntv@pml@ctk@@AAPAPAV1234@U_Unchanged_checked_iterator_base_type_tag@0@@Z 10042580 f i ntv_listvalue.obj
 0001:00041590       ??$unchecked_fill_n@PAPAVUnit@ntv@pml@ctk@@IPAV1234@@stdext@@YAXPAPAVUnit@ntv@pml@ctk@@IABQAV1234@@Z 10042590 f i ntv_listvalue.obj
 0001:000415d0       ??$_Uninit_move@PAPAVUnit@ntv@pml@ctk@@PAPAV1234@V?$allocator@PAVUnit@ntv@pml@ctk@@@std@@U_Undefined_move_tag@6@@std@@YAPAPAVUnit@ntv@pml@ctk@@PAPAV1234@00AAV?$allocator@PAVUnit@ntv@pml@ctk@@@0@U_Undefined_move_tag@0@U_Range_checked_iterator_tag@0@@Z 100425d0 f i ntv_listvalue.obj
 0001:000415f0       ??$_Copy_backward_opt@PAPAVUnit@ntv@pml@ctk@@PAPAV1234@Urandom_access_iterator_tag@std@@@std@@YAPAPAVUnit@ntv@pml@ctk@@PAPAV1234@00Urandom_access_iterator_tag@0@U_Scalar_ptr_iterator_tag@0@U_Range_checked_iterator_tag@0@@Z 100425f0 f i ntv_listvalue.obj
 0001:00041640       ??$_Iter_cat@PAPAVUnit@ntv@pml@ctk@@@std@@YA?AUrandom_access_iterator_tag@0@ABQAPAVUnit@ntv@pml@ctk@@@Z 10042640 f i ntv_listvalue.obj
 0001:00041650       ??$_Fill_n@PAPAVUnit@ntv@pml@ctk@@IPAV1234@@std@@YAXPAPAVUnit@ntv@pml@ctk@@IABQAV1234@Urandom_access_iterator_tag@0@U_Range_checked_iterator_tag@0@@Z 10042650 f i ntv_listvalue.obj
 0001:00041690       ??$unchecked_uninitialized_copy@PAPAVUnit@ntv@pml@ctk@@PAPAV1234@V?$allocator@PAVUnit@ntv@pml@ctk@@@std@@@stdext@@YAPAPAVUnit@ntv@pml@ctk@@PAPAV1234@00AAV?$allocator@PAVUnit@ntv@pml@ctk@@@std@@@Z 10042690 f i ntv_listvalue.obj
 0001:000416f0       ??$_Fill_n@PAPAVUnit@ntv@pml@ctk@@IPAV1234@@std@@YAXPAPAVUnit@ntv@pml@ctk@@IABQAV1234@U_Range_checked_iterator_tag@0@@Z 100426f0 f i ntv_listvalue.obj
 0001:00041720       ??$_Uninit_copy@PAPAVUnit@ntv@pml@ctk@@PAPAV1234@V?$allocator@PAVUnit@ntv@pml@ctk@@@std@@@std@@YAPAPAVUnit@ntv@pml@ctk@@PAPAV1234@00AAV?$allocator@PAVUnit@ntv@pml@ctk@@@0@U_Scalar_ptr_iterator_tag@0@U_Range_checked_iterator_tag@0@@Z 10042720 f i ntv_listvalue.obj
 0001:00041770       ??_GStringValue@ntv@pml@ctk@@UAEPAXI@Z 10042770 f i ntv_stringvalue.obj
 0001:000417a0       ??_EStringValue@ntv@pml@ctk@@UAEPAXI@Z 100427a0 f i ntv_stringvalue.obj
 0001:00041810       ??0StringValue@ntv@pml@ctk@@QAE@PAVUnit@123@@Z 10042810 f   ntv_stringvalue.obj
 0001:00041880       ??0StringValue@ntv@pml@ctk@@QAE@Uistr@3@PAVUnit@123@@Z 10042880 f   ntv_stringvalue.obj
 0001:00041900       ??4StringValue@ntv@pml@ctk@@QAEAAV0123@Uistr@3@@Z 10042900 f   ntv_stringvalue.obj
 0001:00041930       ?assign@StringValue@ntv@pml@ctk@@QAEAAV1234@Uistr@4@@Z 10042930 f   ntv_stringvalue.obj
 0001:00041960       ?create@StringValue@ntv@pml@ctk@@SAPAV1234@Uistr@4@@Z 10042960 f   ntv_stringvalue.obj
 0001:00041980       ?single@StringValue@ntv@pml@ctk@@UBE_NXZ 10042980 f   ntv_stringvalue.obj
 0001:00041990       ?clone@StringValue@ntv@pml@ctk@@UBEPAV1234@XZ 10042990 f   ntv_stringvalue.obj
 0001:000419c0       ?data@StringValue@ntv@pml@ctk@@QBEABVString@4@XZ 100429c0 f   ntv_stringvalue.obj
 0001:000419e0       ?dump@StringValue@ntv@pml@ctk@@UBEAAV?$basic_ostream@DU?$char_traits@D@std@@@std@@AAV56@@Z 100429e0 f   ntv_stringvalue.obj
 0001:00041a70       ?dump@StringValue@ntv@pml@ctk@@UBEAAVdumper@4@AAV54@@Z 10042a70 f   ntv_stringvalue.obj
 0001:00041a90       ??$allocate@VStringValue@ntv@pml@ctk@@Uistr@4@@ctk@@YAPAVStringValue@ntv@pml@0@PBDI0ABUistr@0@@Z 10042a90 f i ntv_stringvalue.obj
 0001:00041ad0       ??$allocate_no_mlc@VStringValue@ntv@pml@ctk@@Uistr@4@@ctk@@YAPAVStringValue@ntv@pml@0@PBDI0ABUistr@0@@Z 10042ad0 f i ntv_stringvalue.obj
 0001:00041b70       ??$allocate_push_maybe@VStringValue@ntv@pml@ctk@@@ctk@@YAPAVStringValue@ntv@pml@0@PAV1230@PBDI1@Z 10042b70 f i ntv_stringvalue.obj
 0001:00041ba0       ??0Unit@ntv@pml@ctk@@QAE@PAV0123@@Z 10042ba0 f   ntv_unit.obj
 0001:00041c40       ??0Unit@ntv@pml@ctk@@QAE@Uistr@3@PAV0123@@Z 10042c40 f   ntv_unit.obj
 0001:00041d00       ??0Unit@ntv@pml@ctk@@QAE@PAVValueBase@123@PAV0123@@Z 10042d00 f   ntv_unit.obj
 0001:00041da0       ??0Unit@ntv@pml@ctk@@QAE@Uistr@3@0PAVValueBase@123@PAV0123@@Z 10042da0 f   ntv_unit.obj
 0001:00041e70       ??0Unit@ntv@pml@ctk@@QAE@Uistr@3@00PAV0123@@Z 10042e70 f   ntv_unit.obj
 0001:00041f50       ??0Unit@ntv@pml@ctk@@QAE@ABV0123@@Z 10042f50 f   ntv_unit.obj
 0001:00042030       ??1Unit@ntv@pml@ctk@@QAE@XZ 10043030 f   ntv_unit.obj
 0001:000420b0       ??4Unit@ntv@pml@ctk@@QAEAAV0123@ABV0123@@Z 100430b0 f   ntv_unit.obj
 0001:00042120       ?addOrUpdateChild@Unit@ntv@pml@ctk@@QAE_NPAV1234@@Z 10043120 f   ntv_unit.obj
 0001:000421b0       ?addChild@Unit@ntv@pml@ctk@@QAE_NPAV1234@@Z 100431b0 f   ntv_unit.obj
 0001:00042360       ?addChild@Unit@ntv@pml@ctk@@QAE_NUistr@4@@Z 10043360 f   ntv_unit.obj
 0001:000423a0       ?addChild@Unit@ntv@pml@ctk@@QAE_NUistr@4@0@Z 100433a0 f   ntv_unit.obj
 0001:000423e0       ?addChild@Unit@ntv@pml@ctk@@QAE_NUistr@4@00@Z 100433e0 f   ntv_unit.obj
 0001:00042420       ?addChild@Unit@ntv@pml@ctk@@QAE_NABV1234@@Z 10043420 f   ntv_unit.obj
 0001:00042460       ?getChild@Unit@ntv@pml@ctk@@QBE_NUistr@4@AAVString@4@@Z 10043460 f   ntv_unit.obj
 0001:000424b0       ??6Unit@ntv@pml@ctk@@QAEX_N@Z 100434b0 f   ntv_unit.obj
 0001:00042540       ??6Unit@ntv@pml@ctk@@QAEXD@Z 10043540 f   ntv_unit.obj
 0001:000425d0       ??6Unit@ntv@pml@ctk@@QAEXE@Z 100435d0 f   ntv_unit.obj
 0001:00042660       ??6Unit@ntv@pml@ctk@@QAEXF@Z 10043660 f   ntv_unit.obj
 0001:000426f0       ??6Unit@ntv@pml@ctk@@QAEXG@Z 100436f0 f   ntv_unit.obj
 0001:00042780       ??6Unit@ntv@pml@ctk@@QAEXJ@Z 10043780 f   ntv_unit.obj
 0001:00042810       ??6Unit@ntv@pml@ctk@@QAEXK@Z 10043810 f   ntv_unit.obj
 0001:000428a0       ??6Unit@ntv@pml@ctk@@QAEXH@Z 100438a0 f   ntv_unit.obj
 0001:00042930       ??6Unit@ntv@pml@ctk@@QAEXI@Z 10043930 f   ntv_unit.obj
 0001:000429c0       ??6Unit@ntv@pml@ctk@@QAEX_J@Z 100439c0 f   ntv_unit.obj
 0001:00042a50       ??6Unit@ntv@pml@ctk@@QAEX_K@Z 10043a50 f   ntv_unit.obj
 0001:00042ae0       ??6Unit@ntv@pml@ctk@@QAEXM@Z 10043ae0 f   ntv_unit.obj
 0001:00042b70       ??6Unit@ntv@pml@ctk@@QAEXN@Z 10043b70 f   ntv_unit.obj
 0001:00042c00       ??6Unit@ntv@pml@ctk@@QAEXUistr@3@@Z 10043c00 f   ntv_unit.obj
 0001:00042c90       ??6Unit@ntv@pml@ctk@@QAEXUiwstr@3@@Z 10043c90 f   ntv_unit.obj
 0001:00042d70       ??6Unit@ntv@pml@ctk@@QAEXPBD@Z 10043d70 f   ntv_unit.obj
 0001:00042e00       ??6Unit@ntv@pml@ctk@@QAEXPBE@Z 10043e00 f   ntv_unit.obj
 0001:00042e90       ??6Unit@ntv@pml@ctk@@QAEXPB_W@Z 10043e90 f   ntv_unit.obj
 0001:00042ec0       ??6Unit@ntv@pml@ctk@@QAEXABVBit@3@@Z 10043ec0 f   ntv_unit.obj
 0001:00042f60       ??6Unit@ntv@pml@ctk@@QAEXABVShort@3@@Z 10043f60 f   ntv_unit.obj
 0001:00042ff0       ??6Unit@ntv@pml@ctk@@QAEXABVLong@3@@Z 10043ff0 f   ntv_unit.obj
 0001:00043080       ??6Unit@ntv@pml@ctk@@QAEXABVLonglong@3@@Z 10044080 f   ntv_unit.obj
 0001:00043110       ??6Unit@ntv@pml@ctk@@QAEXABVByte@3@@Z 10044110 f   ntv_unit.obj
 0001:000431c0       ??6Unit@ntv@pml@ctk@@QAEXABVUshort@3@@Z 100441c0 f   ntv_unit.obj
 0001:00043250       ??6Unit@ntv@pml@ctk@@QAEXABVUlong@3@@Z 10044250 f   ntv_unit.obj
 0001:000432e0       ??6Unit@ntv@pml@ctk@@QAEXABVWchar@3@@Z 100442e0 f   ntv_unit.obj
 0001:00043410       ??6Unit@ntv@pml@ctk@@QAEXABVString@3@@Z 10044410 f   ntv_unit.obj
 0001:000434a0       ??6Unit@ntv@pml@ctk@@QAEXABV?$basic_string@_WU?$char_traits@_W@std@@V?$allocator@_W@2@@std@@@Z 100444a0 f   ntv_unit.obj
 0001:000434d0       ??6Unit@ntv@pml@ctk@@QAEXABVBytes@3@@Z 100444d0 f   ntv_unit.obj
 0001:00043590       ??6Unit@ntv@pml@ctk@@QAEXABVTime@3@@Z 10044590 f   ntv_unit.obj
 0001:00043620       ??6Unit@ntv@pml@ctk@@QAEXABV0123@@Z 10044620 f   ntv_unit.obj
 0001:00043670       ??YUnit@ntv@pml@ctk@@QAEXABV0123@@Z 10044670 f   ntv_unit.obj
 0001:000436e0       ??5Unit@ntv@pml@ctk@@QBE_NAA_N@Z 100446e0 f   ntv_unit.obj
 0001:00043770       ??5Unit@ntv@pml@ctk@@QBE_NAAD@Z 10044770 f   ntv_unit.obj
 0001:000437c0       ??5Unit@ntv@pml@ctk@@QBE_NAAE@Z 100447c0 f   ntv_unit.obj
 0001:00043810       ??5Unit@ntv@pml@ctk@@QBE_NAAF@Z 10044810 f   ntv_unit.obj
 0001:00043860       ??5Unit@ntv@pml@ctk@@QBE_NAAG@Z 10044860 f   ntv_unit.obj
 0001:000438b0       ??5Unit@ntv@pml@ctk@@QBE_NAAJ@Z 100448b0 f   ntv_unit.obj
 0001:00043900       ??5Unit@ntv@pml@ctk@@QBE_NAAK@Z 10044900 f   ntv_unit.obj
 0001:00043950       ??5Unit@ntv@pml@ctk@@QBE_NAAH@Z 10044950 f   ntv_unit.obj
 0001:000439a0       ??5Unit@ntv@pml@ctk@@QBE_NAAI@Z 100449a0 f   ntv_unit.obj
 0001:000439f0       ??5Unit@ntv@pml@ctk@@QBE_NAA_J@Z 100449f0 f   ntv_unit.obj
 0001:00043a40       ??5Unit@ntv@pml@ctk@@QBE_NAA_K@Z 10044a40 f   ntv_unit.obj
 0001:00043a90       ??5Unit@ntv@pml@ctk@@QBE_NAAM@Z 10044a90 f   ntv_unit.obj
 0001:00043ae0       ??5Unit@ntv@pml@ctk@@QBE_NAAN@Z 10044ae0 f   ntv_unit.obj
 0001:00043b30       ??5Unit@ntv@pml@ctk@@QBE_NAC_N@Z 10044b30 f   ntv_unit.obj
 0001:00043b70       ??5Unit@ntv@pml@ctk@@QBE_NACD@Z 10044b70 f   ntv_unit.obj
 0001:00043ba0       ??5Unit@ntv@pml@ctk@@QBE_NACE@Z 10044ba0 f   ntv_unit.obj
 0001:00043bd0       ??5Unit@ntv@pml@ctk@@QBE_NACF@Z 10044bd0 f   ntv_unit.obj
 0001:00043c10       ??5Unit@ntv@pml@ctk@@QBE_NACG@Z 10044c10 f   ntv_unit.obj
 0001:00043c50       ??5Unit@ntv@pml@ctk@@QBE_NACJ@Z 10044c50 f   ntv_unit.obj
 0001:00043c80       ??5Unit@ntv@pml@ctk@@QBE_NACK@Z 10044c80 f   ntv_unit.obj
 0001:00043cb0       ??5Unit@ntv@pml@ctk@@QBE_NACH@Z 10044cb0 f   ntv_unit.obj
 0001:00043ce0       ??5Unit@ntv@pml@ctk@@QBE_NACI@Z 10044ce0 f   ntv_unit.obj
 0001:00043d10       ??5Unit@ntv@pml@ctk@@QBE_NAC_J@Z 10044d10 f   ntv_unit.obj
 0001:00043d50       ??5Unit@ntv@pml@ctk@@QBE_NAC_K@Z 10044d50 f   ntv_unit.obj
 0001:00043d90       ??5Unit@ntv@pml@ctk@@QBE_NACM@Z 10044d90 f   ntv_unit.obj
 0001:00043dc0       ??5Unit@ntv@pml@ctk@@QBE_NACN@Z 10044dc0 f   ntv_unit.obj
 0001:00043df0       ??5Unit@ntv@pml@ctk@@QBE_NAAVBit@3@@Z 10044df0 f   ntv_unit.obj
 0001:00043e30       ??5Unit@ntv@pml@ctk@@QBE_NAAVShort@3@@Z 10044e30 f   ntv_unit.obj
 0001:00043e70       ??5Unit@ntv@pml@ctk@@QBE_NAAVLong@3@@Z 10044e70 f   ntv_unit.obj
 0001:00043eb0       ??5Unit@ntv@pml@ctk@@QBE_NAAVLonglong@3@@Z 10044eb0 f   ntv_unit.obj
 0001:00043f00       ??5Unit@ntv@pml@ctk@@QBE_NAAVByte@3@@Z 10044f00 f   ntv_unit.obj
 0001:00043f70       ??5Unit@ntv@pml@ctk@@QBE_NAAVUshort@3@@Z 10044f70 f   ntv_unit.obj
 0001:00043fb0       ??5Unit@ntv@pml@ctk@@QBE_NAAVUlong@3@@Z 10044fb0 f   ntv_unit.obj
 0001:00043ff0       ??5Unit@ntv@pml@ctk@@QBE_NAAVWchar@3@@Z 10044ff0 f   ntv_unit.obj
 0001:00044190       ??5Unit@ntv@pml@ctk@@QBE_NAAVString@3@@Z 10045190 f   ntv_unit.obj
 0001:000441d0       ??5Unit@ntv@pml@ctk@@QBE_NAAV?$basic_string@_WU?$char_traits@_W@std@@V?$allocator@_W@2@@std@@@Z 100451d0 f   ntv_unit.obj
 0001:00044300       ??5Unit@ntv@pml@ctk@@QBE_NAAVBytes@3@@Z 10045300 f   ntv_unit.obj
 0001:000443c0       ??5Unit@ntv@pml@ctk@@QBE_NAAVTime@3@@Z 100453c0 f   ntv_unit.obj
 0001:000444c0       ??5Unit@ntv@pml@ctk@@QBE_NAAV0123@@Z 100454c0 f   ntv_unit.obj
 0001:000444e0       ?value@Unit@ntv@pml@ctk@@QAEXUistr@4@@Z 100454e0 f   ntv_unit.obj
 0001:00044510       ?setValue@Unit@ntv@pml@ctk@@QAEXUistr@4@@Z 10045510 f   ntv_unit.obj
 0001:000445c0       ?popValue@Unit@ntv@pml@ctk@@QAEPAVValueBase@234@XZ 100455c0 f   ntv_unit.obj
 0001:000445f0       ?getValue@Unit@ntv@pml@ctk@@QBE_NAAPAVStringValue@234@@Z 100455f0 f   ntv_unit.obj
 0001:00044660       ?getValue@Unit@ntv@pml@ctk@@QBE_NAAPAVListValue@234@@Z 10045660 f   ntv_unit.obj
 0001:000446d0       ?name@Unit@ntv@pml@ctk@@QAEAAV1234@Uistr@4@@Z 100456d0 f   ntv_unit.obj
 0001:00044700       ?type@Unit@ntv@pml@ctk@@QAEAAV1234@Uistr@4@@Z 10045700 f   ntv_unit.obj
 0001:00044730       ?value@Unit@ntv@pml@ctk@@QAEAAV1234@PAVValueBase@234@@Z 10045730 f   ntv_unit.obj
 0001:00044760       ?name@Unit@ntv@pml@ctk@@QAEAAVString@4@XZ 10045760 f   ntv_unit.obj
 0001:00044770       ?name@Unit@ntv@pml@ctk@@QBEABVString@4@XZ 10045770 f   ntv_unit.obj
 0001:00044780       ?type@Unit@ntv@pml@ctk@@QBEABVString@4@XZ 10045780 f   ntv_unit.obj
 0001:000447a0       ?value@Unit@ntv@pml@ctk@@QBEPAVValueBase@234@XZ 100457a0 f   ntv_unit.obj
 0001:000447c0       ?getStringValue@Unit@ntv@pml@ctk@@QBE?AUistr@4@XZ 100457c0 f   ntv_unit.obj
 0001:00044810       ?stringValue@Unit@ntv@pml@ctk@@QBEPAVStringValue@234@XZ 10045810 f   ntv_unit.obj
 0001:00044840       ?listValue@Unit@ntv@pml@ctk@@QBEPBVListValue@234@XZ 10045840 f   ntv_unit.obj
 0001:00044870       ?empty@Unit@ntv@pml@ctk@@QBE_NXZ 10045870 f   ntv_unit.obj
 0001:000448d0       ?simple@Unit@ntv@pml@ctk@@QBE_NXZ 100458d0 f   ntv_unit.obj
 0001:00044920       ?valueEmpty@Unit@ntv@pml@ctk@@QBE_NXZ 10045920 f   ntv_unit.obj
 0001:00044990       ?childWasSingle@Unit@ntv@pml@ctk@@QBE_NXZ 10045990 f   ntv_unit.obj
 0001:00044a30       ?childrenWereUnnamedList@Unit@ntv@pml@ctk@@QBE_NXZ 10045a30 f   ntv_unit.obj
 0001:00044b10       ?parent@Unit@ntv@pml@ctk@@QAEAAV1234@PAV1234@@Z 10045b10 f   ntv_unit.obj
 0001:00044b30       ?index@Unit@ntv@pml@ctk@@QAEAAV1234@K@Z 10045b30 f   ntv_unit.obj
 0001:00044b50       ?parent@Unit@ntv@pml@ctk@@QBEPBV1234@XZ 10045b50 f   ntv_unit.obj
 0001:00044b70       ?index@Unit@ntv@pml@ctk@@QBEKXZ 10045b70 f   ntv_unit.obj
 0001:00044b90       ?root@Unit@ntv@pml@ctk@@QBEPBV1234@XZ 10045b90 f   ntv_unit.obj
 0001:00044bc0       ?path@Unit@ntv@pml@ctk@@QBE?AVString@4@XZ 10045bc0 f   ntv_unit.obj
 0001:00044d70       ?numofChildren@Unit@ntv@pml@ctk@@QBEKXZ 10045d70 f   ntv_unit.obj
 0001:00044db0       ?childAt@Unit@ntv@pml@ctk@@QBEPBV1234@K@Z 10045db0 f   ntv_unit.obj
 0001:00044ee0       ?at@Unit@ntv@pml@ctk@@QAEPAV1234@Uistr@4@@Z 10045ee0 f   ntv_unit.obj
 0001:00044fc0       ?at@Unit@ntv@pml@ctk@@QBEPBV1234@Uistr@4@@Z 10045fc0 f   ntv_unit.obj
 0001:00045110       ?at@Unit@ntv@pml@ctk@@QBEPBV1234@PBD0@Z 10046110 f   ntv_unit.obj
 0001:00045140       ?at@Unit@ntv@pml@ctk@@QBEPBV1234@PBE0@Z 10046140 f   ntv_unit.obj
 0001:00045170       ??RUnit@ntv@pml@ctk@@QBEABV0123@K@Z 10046170 f   ntv_unit.obj
 0001:000451a0       ??AUnit@ntv@pml@ctk@@QBEABV0123@Uistr@3@@Z 100461a0 f   ntv_unit.obj
 0001:000451e0       ??AUnit@ntv@pml@ctk@@QAEAAV0123@Uistr@3@@Z 100461e0 f   ntv_unit.obj
 0001:00045210       ?init@Unit@ntv@pml@ctk@@AAEXXZ 10046210 f   ntv_unit.obj
 0001:00045230       ?clear@Unit@ntv@pml@ctk@@QAEXXZ 10046230 f   ntv_unit.obj
 0001:00045280       ?initValueAsList@Unit@ntv@pml@ctk@@QAEXXZ 10046280 f   ntv_unit.obj
 0001:000452d0       ?clearValue@Unit@ntv@pml@ctk@@AAEXXZ 100462d0 f   ntv_unit.obj
 0001:00045300       ?setValueOwner@Unit@ntv@pml@ctk@@AAEXXZ 10046300 f   ntv_unit.obj
 0001:00045330       ?initChildrenMap@Unit@ntv@pml@ctk@@AAEXXZ 10046330 f   ntv_unit.obj
 0001:000453c0       ?copyIntoMap@Unit@ntv@pml@ctk@@AAEXPAV1234@@Z 100463c0 f   ntv_unit.obj
 0001:00045600       ?str@Unit@ntv@pml@ctk@@QBE?AVString@4@VShowMode@34@VShowPattern@34@@Z 10046600 f   ntv_unit.obj
 0001:000456a0       ?toString@Unit@ntv@pml@ctk@@QBEXAAVString@4@VShowMode@34@VShowPattern@34@@Z 100466a0 f   ntv_unit.obj
 0001:000456d0       ??6ntv@pml@ctk@@YAAAV?$basic_ostream@DU?$char_traits@D@std@@@std@@AAV34@ABVUnit@012@@Z 100466d0 f   ntv_unit.obj
 0001:00045700       ??6ntv@pml@ctk@@YAAAVString@2@AAV32@ABVUnit@012@@Z 10046700 f   ntv_unit.obj
 0001:00045730       ?dump@Unit@ntv@pml@ctk@@QBEAAVdumper@4@AAV54@@Z 10046730 f   ntv_unit.obj
 0001:00045870       ?null@Unit@ntv@pml@ctk@@SAABV1234@XZ 10046870 f   ntv_unit.obj
 0001:00045880       ?null_unit@ntv@pml@ctk@@YAAAPAVUnit@123@XZ 10046880 f   ntv_unit.obj
 0001:000458a0       ??1?$map@VString@ctk@@PAVUnit@ntv@pml@2@U?$less@VString@ctk@@@std@@V?$allocator@U?$pair@$$CBVString@ctk@@PAVUnit@ntv@pml@2@@std@@@7@@std@@QAE@XZ 100468a0 f i ntv_unit.obj
 0001:000458f0       ??0?$stack@PBVUnit@ntv@pml@ctk@@V?$deque@PBVUnit@ntv@pml@ctk@@V?$allocator@PBVUnit@ntv@pml@ctk@@@std@@@std@@@ctk@@QAE@XZ 100468f0 f i ntv_unit.obj
 0001:00045940       ??1?$stack@PBVUnit@ntv@pml@ctk@@V?$deque@PBVUnit@ntv@pml@ctk@@V?$allocator@PBVUnit@ntv@pml@ctk@@@std@@@std@@@ctk@@QAE@XZ 10046940 f i ntv_unit.obj
 0001:00045990       ??1?$stack@PBVUnit@ntv@pml@ctk@@V?$deque@PBVUnit@ntv@pml@ctk@@V?$allocator@PBVUnit@ntv@pml@ctk@@@std@@@std@@@std@@QAE@XZ 10046990 f i ntv_unit.obj
 0001:000459e0       ??1?$pair@VString@ctk@@PAVUnit@ntv@pml@2@@std@@QAE@XZ 100469e0 f i ntv_unit.obj
 0001:00045a30       ??1?$pair@$$CBVString@ctk@@PAVUnit@ntv@pml@2@@std@@QAE@XZ 10046a30 f i ntv_unit.obj
 0001:00045a80       ??0invalid_argument@std@@QAE@ABV01@@Z 10046a80 f i ntv_unit.obj
 0001:00045ae0       ??0?$map@VString@ctk@@PAVUnit@ntv@pml@2@U?$less@VString@ctk@@@std@@V?$allocator@U?$pair@$$CBVString@ctk@@PAVUnit@ntv@pml@2@@std@@@7@@std@@QAE@XZ 10046ae0 f i ntv_unit.obj
 0001:00045b40       ??1?$_Tree@V?$_Tmap_traits@VString@ctk@@PAVUnit@ntv@pml@2@U?$less@VString@ctk@@@std@@V?$allocator@U?$pair@$$CBVString@ctk@@PAVUnit@ntv@pml@2@@std@@@7@$0A@@std@@@std@@QAE@XZ 10046b40 f i ntv_unit.obj
 0001:00045ba0       ?end@?$_Tree@V?$_Tmap_traits@VString@ctk@@PAVUnit@ntv@pml@2@U?$less@VString@ctk@@@std@@V?$allocator@U?$pair@$$CBVString@ctk@@PAVUnit@ntv@pml@2@@std@@@7@$0A@@std@@@std@@QAE?AViterator@12@XZ 10046ba0 f i ntv_unit.obj
 0001:00045bd0       ?end@?$_Tree@V?$_Tmap_traits@VString@ctk@@PAVUnit@ntv@pml@2@U?$less@VString@ctk@@@std@@V?$allocator@U?$pair@$$CBVString@ctk@@PAVUnit@ntv@pml@2@@std@@@7@$0A@@std@@@std@@QBE?AVconst_iterator@12@XZ 10046bd0 f i ntv_unit.obj
 0001:00045c00       ?empty@?$_Tree@V?$_Tmap_traits@VString@ctk@@PAVUnit@ntv@pml@2@U?$less@VString@ctk@@@std@@V?$allocator@U?$pair@$$CBVString@ctk@@PAVUnit@ntv@pml@2@@std@@@7@$0A@@std@@@std@@QBE_NXZ 10046c00 f i ntv_unit.obj
 0001:00045c20       ?insert@?$_Tree@V?$_Tmap_traits@VString@ctk@@PAVUnit@ntv@pml@2@U?$less@VString@ctk@@@std@@V?$allocator@U?$pair@$$CBVString@ctk@@PAVUnit@ntv@pml@2@@std@@@7@$0A@@std@@@std@@QAE?AU?$pair@Viterator@?$_Tree@V?$_Tmap_traits@VString@ctk@@PAVUnit@ntv@pml@2@U?$less@VString@ctk@@@std@@V?$allocator@U?$pair@$$CBVString@ctk@@PAVUnit@ntv@pml@2@@std@@@7@$0A@@std@@@std@@_N@2@ABU?$pair@$$CBVString@ctk@@PAVUnit@ntv@pml@2@@2@@Z 10046c20 f i ntv_unit.obj
 0001:00045df0       ?clear@?$_Tree@V?$_Tmap_traits@VString@ctk@@PAVUnit@ntv@pml@2@U?$less@VString@ctk@@@std@@V?$allocator@U?$pair@$$CBVString@ctk@@PAVUnit@ntv@pml@2@@std@@@7@$0A@@std@@@std@@QAEXXZ 10046df0 f i ntv_unit.obj
 0001:00045e50       ?find@?$_Tree@V?$_Tmap_traits@VString@ctk@@PAVUnit@ntv@pml@2@U?$less@VString@ctk@@@std@@V?$allocator@U?$pair@$$CBVString@ctk@@PAVUnit@ntv@pml@2@@std@@@7@$0A@@std@@@std@@QAE?AViterator@12@ABVString@ctk@@@Z 10046e50 f i ntv_unit.obj
 0001:00045ef0       ?find@?$_Tree@V?$_Tmap_traits@VString@ctk@@PAVUnit@ntv@pml@2@U?$less@VString@ctk@@@std@@V?$allocator@U?$pair@$$CBVString@ctk@@PAVUnit@ntv@pml@2@@std@@@7@$0A@@std@@@std@@QBE?AVconst_iterator@12@ABVString@ctk@@@Z 10046ef0 f i ntv_unit.obj
 0001:00045f90       ??0?$stack@PBVUnit@ntv@pml@ctk@@V?$deque@PBVUnit@ntv@pml@ctk@@V?$allocator@PBVUnit@ntv@pml@ctk@@@std@@@std@@@std@@QAE@XZ 10046f90 f i ntv_unit.obj
 0001:00045fe0       ?empty@?$stack@PBVUnit@ntv@pml@ctk@@V?$deque@PBVUnit@ntv@pml@ctk@@V?$allocator@PBVUnit@ntv@pml@ctk@@@std@@@std@@@std@@QBE_NXZ 10046fe0 f i ntv_unit.obj
 0001:00046000       ?top@?$stack@PBVUnit@ntv@pml@ctk@@V?$deque@PBVUnit@ntv@pml@ctk@@V?$allocator@PBVUnit@ntv@pml@ctk@@@std@@@std@@@std@@QAEAAPBVUnit@ntv@pml@ctk@@XZ 10047000 f i ntv_unit.obj
 0001:00046020       ?push@?$stack@PBVUnit@ntv@pml@ctk@@V?$deque@PBVUnit@ntv@pml@ctk@@V?$allocator@PBVUnit@ntv@pml@ctk@@@std@@@std@@@std@@QAEXABQBVUnit@ntv@pml@ctk@@@Z 10047020 f i ntv_unit.obj
 0001:00046040       ?pop@?$stack@PBVUnit@ntv@pml@ctk@@V?$deque@PBVUnit@ntv@pml@ctk@@V?$allocator@PBVUnit@ntv@pml@ctk@@@std@@@std@@@std@@QAEXXZ 10047040 f i ntv_unit.obj
 0001:00046060       ??1?$deque@PBVUnit@ntv@pml@ctk@@V?$allocator@PBVUnit@ntv@pml@ctk@@@std@@@std@@QAE@XZ 10047060 f i ntv_unit.obj
 0001:000460c0       ??Diterator@?$_Tree@V?$_Tmap_traits@VString@ctk@@PAVUnit@ntv@pml@2@U?$less@VString@ctk@@@std@@V?$allocator@U?$pair@$$CBVString@ctk@@PAVUnit@ntv@pml@2@@std@@@7@$0A@@std@@@std@@QBEAAU?$pair@$$CBVString@ctk@@PAVUnit@ntv@pml@2@@2@XZ 100470c0 f i ntv_unit.obj
 0001:000460e0       ??Dconst_iterator@?$_Tree@V?$_Tmap_traits@VString@ctk@@PAVUnit@ntv@pml@2@U?$less@VString@ctk@@@std@@V?$allocator@U?$pair@$$CBVString@ctk@@PAVUnit@ntv@pml@2@@std@@@7@$0A@@std@@@std@@QBEABU?$pair@$$CBVString@ctk@@PAVUnit@ntv@pml@2@@2@XZ 100470e0 f i ntv_unit.obj
 0001:00046130       ??8const_iterator@?$_Tree@V?$_Tmap_traits@VString@ctk@@PAVUnit@ntv@pml@2@U?$less@VString@ctk@@@std@@V?$allocator@U?$pair@$$CBVString@ctk@@PAVUnit@ntv@pml@2@@std@@@7@$0A@@std@@@std@@QBE_NABV012@@Z 10047130 f i ntv_unit.obj
 0001:00046180       ??9const_iterator@?$_Tree@V?$_Tmap_traits@VString@ctk@@PAVUnit@ntv@pml@2@U?$less@VString@ctk@@@std@@V?$allocator@U?$pair@$$CBVString@ctk@@PAVUnit@ntv@pml@2@@std@@@7@$0A@@std@@@std@@QBE_NABV012@@Z 10047180 f i ntv_unit.obj
 0001:000461b0       ??0?$pair@VString@ctk@@PAVUnit@ntv@pml@2@@std@@QAE@ABVString@ctk@@ABQAVUnit@ntv@pml@3@@Z 100471b0 f i ntv_unit.obj
 0001:00046210       ?instance@?$Singleton_T@VUnit@ntv@pml@ctk@@@ctk@@SAAAPAVUnit@ntv@pml@2@PBDI0@Z 10047210 f i ntv_unit.obj
 0001:000462a0       ??1?$_Tree_val@V?$_Tmap_traits@VString@ctk@@PAVUnit@ntv@pml@2@U?$less@VString@ctk@@@std@@V?$allocator@U?$pair@$$CBVString@ctk@@PAVUnit@ntv@pml@2@@std@@@7@$0A@@std@@@std@@QAE@XZ 100472a0 f i ntv_unit.obj
 0001:000462f0       ??1?$_Deque_val@PBVUnit@ntv@pml@ctk@@V?$allocator@PBVUnit@ntv@pml@ctk@@@std@@@std@@QAE@XZ 100472f0 f i ntv_unit.obj
 0001:00046340       ??1?$_Tree_ptr@V?$_Tmap_traits@VString@ctk@@PAVUnit@ntv@pml@2@U?$less@VString@ctk@@@std@@V?$allocator@U?$pair@$$CBVString@ctk@@PAVUnit@ntv@pml@2@@std@@@7@$0A@@std@@@std@@QAE@XZ 10047340 f i ntv_unit.obj
 0001:00046390       ??1?$_Deque_map@PBVUnit@ntv@pml@ctk@@V?$allocator@PBVUnit@ntv@pml@ctk@@@std@@@std@@QAE@XZ 10047390 f i ntv_unit.obj
 0001:000463e0       ??1?$_Tree_nod@V?$_Tmap_traits@VString@ctk@@PAVUnit@ntv@pml@2@U?$less@VString@ctk@@@std@@V?$allocator@U?$pair@$$CBVString@ctk@@PAVUnit@ntv@pml@2@@std@@@7@$0A@@std@@@std@@QAE@XZ 100473e0 f i ntv_unit.obj
 0001:00046430       ??1?$_Tmap_traits@VString@ctk@@PAVUnit@ntv@pml@2@U?$less@VString@ctk@@@std@@V?$allocator@U?$pair@$$CBVString@ctk@@PAVUnit@ntv@pml@2@@std@@@7@$0A@@std@@QAE@XZ 10047430 f i ntv_unit.obj
 0001:00046480       ?_Isnil@?$_Tree@V?$_Tmap_traits@VString@ctk@@PAVUnit@ntv@pml@2@U?$less@VString@ctk@@@std@@V?$allocator@U?$pair@$$CBVString@ctk@@PAVUnit@ntv@pml@2@@std@@@7@$0A@@std@@@std@@KAAADPAU_Node@?$_Tree_nod@V?$_Tmap_traits@VString@ctk@@PAVUnit@ntv@pml@2@U?$less@VString@ctk@@@std@@V?$allocator@U?$pair@$$CBVString@ctk@@PAVUnit@ntv@pml@2@@std@@@7@$0A@@std@@@2@@Z 10047480 f i ntv_unit.obj
 0001:00046490       ?_Key@?$_Tree@V?$_Tmap_traits@VString@ctk@@PAVUnit@ntv@pml@2@U?$less@VString@ctk@@@std@@V?$allocator@U?$pair@$$CBVString@ctk@@PAVUnit@ntv@pml@2@@std@@@7@$0A@@std@@@std@@KAABVString@ctk@@PAU_Node@?$_Tree_nod@V?$_Tmap_traits@VString@ctk@@PAVUnit@ntv@pml@2@U?$less@VString@ctk@@@std@@V?$allocator@U?$pair@$$CBVString@ctk@@PAVUnit@ntv@pml@2@@std@@@7@$0A@@std@@@2@@Z 10047490 f i ntv_unit.obj
 0001:000464b0       ?_Left@?$_Tree@V?$_Tmap_traits@VString@ctk@@PAVUnit@ntv@pml@2@U?$less@VString@ctk@@@std@@V?$allocator@U?$pair@$$CBVString@ctk@@PAVUnit@ntv@pml@2@@std@@@7@$0A@@std@@@std@@KAAAPAU_Node@?$_Tree_nod@V?$_Tmap_traits@VString@ctk@@PAVUnit@ntv@pml@2@U?$less@VString@ctk@@@std@@V?$allocator@U?$pair@$$CBVString@ctk@@PAVUnit@ntv@pml@2@@std@@@7@$0A@@std@@@2@PAU342@@Z 100474b0 f i ntv_unit.obj
 0001:000464c0       ?_Right@?$_Tree@V?$_Tmap_traits@VString@ctk@@PAVUnit@ntv@pml@2@U?$less@VString@ctk@@@std@@V?$allocator@U?$pair@$$CBVString@ctk@@PAVUnit@ntv@pml@2@@std@@@7@$0A@@std@@@std@@KAAAPAU_Node@?$_Tree_nod@V?$_Tmap_traits@VString@ctk@@PAVUnit@ntv@pml@2@U?$less@VString@ctk@@@std@@V?$allocator@U?$pair@$$CBVString@ctk@@PAVUnit@ntv@pml@2@@std@@@7@$0A@@std@@@2@PAU342@@Z 100474c0 f i ntv_unit.obj
 0001:000464d0       ?_Myval@?$_Tree@V?$_Tmap_traits@VString@ctk@@PAVUnit@ntv@pml@2@U?$less@VString@ctk@@@std@@V?$allocator@U?$pair@$$CBVString@ctk@@PAVUnit@ntv@pml@2@@std@@@7@$0A@@std@@@std@@KAAAU?$pair@$$CBVString@ctk@@PAVUnit@ntv@pml@2@@2@PAU_Node@?$_Tree_nod@V?$_Tmap_traits@VString@ctk@@PAVUnit@ntv@pml@2@U?$less@VString@ctk@@@std@@V?$allocator@U?$pair@$$CBVString@ctk@@PAVUnit@ntv@pml@2@@std@@@7@$0A@@std@@@2@@Z 100474d0 f i ntv_unit.obj
 0001:000464e0       ??0?$_Tree@V?$_Tmap_traits@VString@ctk@@PAVUnit@ntv@pml@2@U?$less@VString@ctk@@@std@@V?$allocator@U?$pair@$$CBVString@ctk@@PAVUnit@ntv@pml@2@@std@@@7@$0A@@std@@@std@@QAE@ABU?$less@VString@ctk@@@1@ABV?$allocator@U?$pair@$$CBVString@ctk@@PAVUnit@ntv@pml@2@@std@@@1@@Z 100474e0 f i ntv_unit.obj
 0001:00046550       ?begin@?$_Tree@V?$_Tmap_traits@VString@ctk@@PAVUnit@ntv@pml@2@U?$less@VString@ctk@@@std@@V?$allocator@U?$pair@$$CBVString@ctk@@PAVUnit@ntv@pml@2@@std@@@7@$0A@@std@@@std@@QAE?AViterator@12@XZ 10047550 f i ntv_unit.obj
 0001:00046580       ?size@?$_Tree@V?$_Tmap_traits@VString@ctk@@PAVUnit@ntv@pml@2@U?$less@VString@ctk@@@std@@V?$allocator@U?$pair@$$CBVString@ctk@@PAVUnit@ntv@pml@2@@std@@@7@$0A@@std@@@std@@QBEIXZ 10047580 f i ntv_unit.obj
 0001:000465a0       ?lower_bound@?$_Tree@V?$_Tmap_traits@VString@ctk@@PAVUnit@ntv@pml@2@U?$less@VString@ctk@@@std@@V?$allocator@U?$pair@$$CBVString@ctk@@PAVUnit@ntv@pml@2@@std@@@7@$0A@@std@@@std@@QAE?AViterator@12@ABVString@ctk@@@Z 100475a0 f i ntv_unit.obj
 0001:000465d0       ?lower_bound@?$_Tree@V?$_Tmap_traits@VString@ctk@@PAVUnit@ntv@pml@2@U?$less@VString@ctk@@@std@@V?$allocator@U?$pair@$$CBVString@ctk@@PAVUnit@ntv@pml@2@@std@@@7@$0A@@std@@@std@@QBE?AVconst_iterator@12@ABVString@ctk@@@Z 100475d0 f i ntv_unit.obj
 0001:00046600       ?_Erase@?$_Tree@V?$_Tmap_traits@VString@ctk@@PAVUnit@ntv@pml@2@U?$less@VString@ctk@@@std@@V?$allocator@U?$pair@$$CBVString@ctk@@PAVUnit@ntv@pml@2@@std@@@7@$0A@@std@@@std@@IAEXPAU_Node@?$_Tree_nod@V?$_Tmap_traits@VString@ctk@@PAVUnit@ntv@pml@2@U?$less@VString@ctk@@@std@@V?$allocator@U?$pair@$$CBVString@ctk@@PAVUnit@ntv@pml@2@@std@@@7@$0A@@std@@@2@@Z 10047600 f i ntv_unit.obj
 0001:00046680       ?_Insert@?$_Tree@V?$_Tmap_traits@VString@ctk@@PAVUnit@ntv@pml@2@U?$less@VString@ctk@@@std@@V?$allocator@U?$pair@$$CBVString@ctk@@PAVUnit@ntv@pml@2@@std@@@7@$0A@@std@@@std@@IAE?AViterator@12@_NPAU_Node@?$_Tree_nod@V?$_Tmap_traits@VString@ctk@@PAVUnit@ntv@pml@2@U?$less@VString@ctk@@@std@@V?$allocator@U?$pair@$$CBVString@ctk@@PAVUnit@ntv@pml@2@@std@@@7@$0A@@std@@@2@ABU?$pair@$$CBVString@ctk@@PAVUnit@ntv@pml@2@@2@@Z 10047680 f i ntv_unit.obj
 0001:00046b00       ?_Lmost@?$_Tree@V?$_Tmap_traits@VString@ctk@@PAVUnit@ntv@pml@2@U?$less@VString@ctk@@@std@@V?$allocator@U?$pair@$$CBVString@ctk@@PAVUnit@ntv@pml@2@@std@@@7@$0A@@std@@@std@@IBEAAPAU_Node@?$_Tree_nod@V?$_Tmap_traits@VString@ctk@@PAVUnit@ntv@pml@2@U?$less@VString@ctk@@@std@@V?$allocator@U?$pair@$$CBVString@ctk@@PAVUnit@ntv@pml@2@@std@@@7@$0A@@std@@@2@XZ 10047b00 f i ntv_unit.obj
 0001:00046b20       ?_Rmost@?$_Tree@V?$_Tmap_traits@VString@ctk@@PAVUnit@ntv@pml@2@U?$less@VString@ctk@@@std@@V?$allocator@U?$pair@$$CBVString@ctk@@PAVUnit@ntv@pml@2@@std@@@7@$0A@@std@@@std@@IBEAAPAU_Node@?$_Tree_nod@V?$_Tmap_traits@VString@ctk@@PAVUnit@ntv@pml@2@U?$less@VString@ctk@@@std@@V?$allocator@U?$pair@$$CBVString@ctk@@PAVUnit@ntv@pml@2@@std@@@7@$0A@@std@@@2@XZ 10047b20 f i ntv_unit.obj
 0001:00046b40       ?_Root@?$_Tree@V?$_Tmap_traits@VString@ctk@@PAVUnit@ntv@pml@2@U?$less@VString@ctk@@@std@@V?$allocator@U?$pair@$$CBVString@ctk@@PAVUnit@ntv@pml@2@@std@@@7@$0A@@std@@@std@@IBEAAPAU_Node@?$_Tree_nod@V?$_Tmap_traits@VString@ctk@@PAVUnit@ntv@pml@2@U?$less@VString@ctk@@@std@@V?$allocator@U?$pair@$$CBVString@ctk@@PAVUnit@ntv@pml@2@@std@@@7@$0A@@std@@@2@XZ 10047b40 f i ntv_unit.obj
 0001:00046b60       ?_Tidy@?$_Tree@V?$_Tmap_traits@VString@ctk@@PAVUnit@ntv@pml@2@U?$less@VString@ctk@@@std@@V?$allocator@U?$pair@$$CBVString@ctk@@PAVUnit@ntv@pml@2@@std@@@7@$0A@@std@@@std@@IAEXXZ 10047b60 f i ntv_unit.obj
 0001:00046c30       ?_Kfn@?$_Tmap_traits@VString@ctk@@PAVUnit@ntv@pml@2@U?$less@VString@ctk@@@std@@V?$allocator@U?$pair@$$CBVString@ctk@@PAVUnit@ntv@pml@2@@std@@@7@$0A@@std@@SAABVString@ctk@@ABU?$pair@$$CBVString@ctk@@PAVUnit@ntv@pml@2@@2@@Z 10047c30 f i ntv_unit.obj
 0001:00046c40       ??1?$_Container_base_aux_alloc_real@V?$allocator@U?$pair@$$CBVString@ctk@@PAVUnit@ntv@pml@2@@std@@@std@@@std@@IAE@XZ 10047c40 f i ntv_unit.obj
 0001:00046ca0       ??0?$allocator@U?$pair@$$CBVString@ctk@@PAVUnit@ntv@pml@2@@std@@@std@@QAE@XZ 10047ca0 f i ntv_unit.obj
 0001:00046cb0       ??0?$deque@PBVUnit@ntv@pml@ctk@@V?$allocator@PBVUnit@ntv@pml@ctk@@@std@@@std@@QAE@XZ 10047cb0 f i ntv_unit.obj
 0001:00046d40       ?empty@?$deque@PBVUnit@ntv@pml@ctk@@V?$allocator@PBVUnit@ntv@pml@ctk@@@std@@@std@@QBE_NXZ 10047d40 f i ntv_unit.obj
 0001:00046d60       ?back@?$deque@PBVUnit@ntv@pml@ctk@@V?$allocator@PBVUnit@ntv@pml@ctk@@@std@@@std@@QAEAAPBVUnit@ntv@pml@ctk@@XZ 10047d60 f i ntv_unit.obj
 0001:00046d90       ?push_back@?$deque@PBVUnit@ntv@pml@ctk@@V?$allocator@PBVUnit@ntv@pml@ctk@@@std@@@std@@QAEXABQBVUnit@ntv@pml@ctk@@@Z 10047d90 f i ntv_unit.obj
 0001:00046e70       ?pop_back@?$deque@PBVUnit@ntv@pml@ctk@@V?$allocator@PBVUnit@ntv@pml@ctk@@@std@@@std@@QAEXXZ 10047e70 f i ntv_unit.obj
 0001:00046f10       ?_Tidy@?$deque@PBVUnit@ntv@pml@ctk@@V?$allocator@PBVUnit@ntv@pml@ctk@@@std@@@std@@IAEXXZ 10047f10 f i ntv_unit.obj
 0001:00046fd0       ??1?$_Container_base_aux_alloc_real@V?$allocator@PBVUnit@ntv@pml@ctk@@@std@@@std@@IAE@XZ 10047fd0 f i ntv_unit.obj
 0001:00047030       ??0iterator@?$_Tree@V?$_Tmap_traits@VString@ctk@@PAVUnit@ntv@pml@2@U?$less@VString@ctk@@@std@@V?$allocator@U?$pair@$$CBVString@ctk@@PAVUnit@ntv@pml@2@@std@@@7@$0A@@std@@@std@@QAE@PAU_Node@?$_Tree_nod@V?$_Tmap_traits@VString@ctk@@PAVUnit@ntv@pml@2@U?$less@VString@ctk@@@std@@V?$allocator@U?$pair@$$CBVString@ctk@@PAVUnit@ntv@pml@2@@std@@@7@$0A@@std@@@2@PBV12@@Z 10048030 f i ntv_unit.obj
 0001:00047050       ??Fiterator@?$_Tree@V?$_Tmap_traits@VString@ctk@@PAVUnit@ntv@pml@2@U?$less@VString@ctk@@@std@@V?$allocator@U?$pair@$$CBVString@ctk@@PAVUnit@ntv@pml@2@@std@@@7@$0A@@std@@@std@@QAEAAV012@XZ 10048050 f i ntv_unit.obj
 0001:00047070       ??0const_iterator@?$_Tree@V?$_Tmap_traits@VString@ctk@@PAVUnit@ntv@pml@2@U?$less@VString@ctk@@@std@@V?$allocator@U?$pair@$$CBVString@ctk@@PAVUnit@ntv@pml@2@@std@@@7@$0A@@std@@@std@@QAE@PAU_Node@?$_Tree_nod@V?$_Tmap_traits@VString@ctk@@PAVUnit@ntv@pml@2@U?$less@VString@ctk@@@std@@V?$allocator@U?$pair@$$CBVString@ctk@@PAVUnit@ntv@pml@2@@std@@@7@$0A@@std@@@2@PBV12@@Z 10048070 f i ntv_unit.obj
 0001:000470b0       ?_Mynode@const_iterator@?$_Tree@V?$_Tmap_traits@VString@ctk@@PAVUnit@ntv@pml@2@U?$less@VString@ctk@@@std@@V?$allocator@U?$pair@$$CBVString@ctk@@PAVUnit@ntv@pml@2@@std@@@7@$0A@@std@@@std@@QBEPAU_Node@?$_Tree_nod@V?$_Tmap_traits@VString@ctk@@PAVUnit@ntv@pml@2@U?$less@VString@ctk@@@std@@V?$allocator@U?$pair@$$CBVString@ctk@@PAVUnit@ntv@pml@2@@std@@@7@$0A@@std@@@3@XZ 100480b0 f i ntv_unit.obj
 0001:000470d0       ??0?$pair@Viterator@?$_Tree@V?$_Tmap_traits@VString@ctk@@PAVUnit@ntv@pml@2@U?$less@VString@ctk@@@std@@V?$allocator@U?$pair@$$CBVString@ctk@@PAVUnit@ntv@pml@2@@std@@@7@$0A@@std@@@std@@_N@std@@QAE@ABViterator@?$_Tree@V?$_Tmap_traits@VString@ctk@@PAVUnit@ntv@pml@2@U?$less@VString@ctk@@@std@@V?$allocator@U?$pair@$$CBVString@ctk@@PAVUnit@ntv@pml@2@@std@@@7@$0A@@std@@@1@AB_N@Z 100480d0 f i ntv_unit.obj
 0001:00047100       ?mtx@?$Singleton_T@VUnit@ntv@pml@ctk@@@ctk@@CAAAVMutex@2@XZ 10048100 f i ntv_unit.obj
 0001:00047180       ?ptr@?$Singleton_T@VUnit@ntv@pml@ctk@@@ctk@@CAAAPAVUnit@ntv@pml@2@XZ 10048180 f i ntv_unit.obj
 0001:00047190       ??0?$_Bidit@U?$pair@$$CBVString@ctk@@PAVUnit@ntv@pml@2@@std@@HPBU12@ABU12@@std@@QAE@XZ 10048190 f i ntv_unit.obj
 0001:000471b0       ??0?$_Iterator_with_base@Ubidirectional_iterator_tag@std@@U?$pair@$$CBVString@ctk@@PAVUnit@ntv@pml@2@@2@HPBU32@ABU32@V_Iterator_base_aux@2@@std@@QAE@XZ 100481b0 f i ntv_unit.obj
 0001:000471d0       ?_Color@?$_Tree@V?$_Tmap_traits@VString@ctk@@PAVUnit@ntv@pml@2@U?$less@VString@ctk@@@std@@V?$allocator@U?$pair@$$CBVString@ctk@@PAVUnit@ntv@pml@2@@std@@@7@$0A@@std@@@std@@KAAADPAU_Node@?$_Tree_nod@V?$_Tmap_traits@VString@ctk@@PAVUnit@ntv@pml@2@U?$less@VString@ctk@@@std@@V?$allocator@U?$pair@$$CBVString@ctk@@PAVUnit@ntv@pml@2@@std@@@7@$0A@@std@@@2@@Z 100481d0 f i ntv_unit.obj
 0001:000471e0       ?_Parent@?$_Tree@V?$_Tmap_traits@VString@ctk@@PAVUnit@ntv@pml@2@U?$less@VString@ctk@@@std@@V?$allocator@U?$pair@$$CBVString@ctk@@PAVUnit@ntv@pml@2@@std@@@7@$0A@@std@@@std@@KAAAPAU_Node@?$_Tree_nod@V?$_Tmap_traits@VString@ctk@@PAVUnit@ntv@pml@2@U?$less@VString@ctk@@@std@@V?$allocator@U?$pair@$$CBVString@ctk@@PAVUnit@ntv@pml@2@@std@@@7@$0A@@std@@@2@PAU342@@Z 100481e0 f i ntv_unit.obj
 0001:000471f0       ?max_size@?$_Tree@V?$_Tmap_traits@VString@ctk@@PAVUnit@ntv@pml@2@U?$less@VString@ctk@@@std@@V?$allocator@U?$pair@$$CBVString@ctk@@PAVUnit@ntv@pml@2@@std@@@7@$0A@@std@@@std@@QBEIXZ 100481f0 f i ntv_unit.obj
 0001:00047210       ?erase@?$_Tree@V?$_Tmap_traits@VString@ctk@@PAVUnit@ntv@pml@2@U?$less@VString@ctk@@@std@@V?$allocator@U?$pair@$$CBVString@ctk@@PAVUnit@ntv@pml@2@@std@@@7@$0A@@std@@@std@@QAE?AViterator@12@Vconst_iterator@12@0@Z 10048210 f i ntv_unit.obj
 0001:000472c0       ?_Init@?$_Tree@V?$_Tmap_traits@VString@ctk@@PAVUnit@ntv@pml@2@U?$less@VString@ctk@@@std@@V?$allocator@U?$pair@$$CBVString@ctk@@PAVUnit@ntv@pml@2@@std@@@7@$0A@@std@@@std@@IAEXXZ 100482c0 f i ntv_unit.obj
 0001:00047330       ?_Lbound@?$_Tree@V?$_Tmap_traits@VString@ctk@@PAVUnit@ntv@pml@2@U?$less@VString@ctk@@@std@@V?$allocator@U?$pair@$$CBVString@ctk@@PAVUnit@ntv@pml@2@@std@@@7@$0A@@std@@@std@@IBEPAU_Node@?$_Tree_nod@V?$_Tmap_traits@VString@ctk@@PAVUnit@ntv@pml@2@U?$less@VString@ctk@@@std@@V?$allocator@U?$pair@$$CBVString@ctk@@PAVUnit@ntv@pml@2@@std@@@7@$0A@@std@@@2@ABVString@ctk@@@Z 10048330 f i ntv_unit.obj
 0001:000473c0       ?_Lrotate@?$_Tree@V?$_Tmap_traits@VString@ctk@@PAVUnit@ntv@pml@2@U?$less@VString@ctk@@@std@@V?$allocator@U?$pair@$$CBVString@ctk@@PAVUnit@ntv@pml@2@@std@@@7@$0A@@std@@@std@@IAEXPAU_Node@?$_Tree_nod@V?$_Tmap_traits@VString@ctk@@PAVUnit@ntv@pml@2@U?$less@VString@ctk@@@std@@V?$allocator@U?$pair@$$CBVString@ctk@@PAVUnit@ntv@pml@2@@std@@@7@$0A@@std@@@2@@Z 100483c0 f i ntv_unit.obj
 0001:000474f0       ?_Rrotate@?$_Tree@V?$_Tmap_traits@VString@ctk@@PAVUnit@ntv@pml@2@U?$less@VString@ctk@@@std@@V?$allocator@U?$pair@$$CBVString@ctk@@PAVUnit@ntv@pml@2@@std@@@7@$0A@@std@@@std@@IAEXPAU_Node@?$_Tree_nod@V?$_Tmap_traits@VString@ctk@@PAVUnit@ntv@pml@2@U?$less@VString@ctk@@@std@@V?$allocator@U?$pair@$$CBVString@ctk@@PAVUnit@ntv@pml@2@@std@@@7@$0A@@std@@@2@@Z 100484f0 f i ntv_unit.obj
 0001:00047620       ?_Buynode@?$_Tree@V?$_Tmap_traits@VString@ctk@@PAVUnit@ntv@pml@2@U?$less@VString@ctk@@@std@@V?$allocator@U?$pair@$$CBVString@ctk@@PAVUnit@ntv@pml@2@@std@@@7@$0A@@std@@@std@@IAEPAU_Node@?$_Tree_nod@V?$_Tmap_traits@VString@ctk@@PAVUnit@ntv@pml@2@U?$less@VString@ctk@@@std@@V?$allocator@U?$pair@$$CBVString@ctk@@PAVUnit@ntv@pml@2@@std@@@7@$0A@@std@@@2@PAU342@00ABU?$pair@$$CBVString@ctk@@PAVUnit@ntv@pml@2@@2@D@Z 10048620 f i ntv_unit.obj
 0001:00047700       ??0?$_Tree_val@V?$_Tmap_traits@VString@ctk@@PAVUnit@ntv@pml@2@U?$less@VString@ctk@@@std@@V?$allocator@U?$pair@$$CBVString@ctk@@PAVUnit@ntv@pml@2@@std@@@7@$0A@@std@@@std@@IAE@ABU?$less@VString@ctk@@@1@V?$allocator@U?$pair@$$CBVString@ctk@@PAVUnit@ntv@pml@2@@std@@@1@@Z 10048700 f i ntv_unit.obj
 0001:00047780       ??0?$allocator@U?$pair@$$CBVString@ctk@@PAVUnit@ntv@pml@2@@std@@@std@@QAE@ABV01@@Z 10048780 f i ntv_unit.obj
 0001:00047790       ?deallocate@?$allocator@U_Node@?$_Tree_nod@V?$_Tmap_traits@VString@ctk@@PAVUnit@ntv@pml@2@U?$less@VString@ctk@@@std@@V?$allocator@U?$pair@$$CBVString@ctk@@PAVUnit@ntv@pml@2@@std@@@7@$0A@@std@@@std@@@std@@QAEXPAU_Node@?$_Tree_nod@V?$_Tmap_traits@VString@ctk@@PAVUnit@ntv@pml@2@U?$less@VString@ctk@@@std@@V?$allocator@U?$pair@$$CBVString@ctk@@PAVUnit@ntv@pml@2@@std@@@7@$0A@@std@@@2@I@Z 10048790 f i ntv_unit.obj
 0001:000477b0       ?destroy@?$allocator@U_Node@?$_Tree_nod@V?$_Tmap_traits@VString@ctk@@PAVUnit@ntv@pml@2@U?$less@VString@ctk@@@std@@V?$allocator@U?$pair@$$CBVString@ctk@@PAVUnit@ntv@pml@2@@std@@@7@$0A@@std@@@std@@@std@@QAEXPAU_Node@?$_Tree_nod@V?$_Tmap_traits@VString@ctk@@PAVUnit@ntv@pml@2@U?$less@VString@ctk@@@std@@V?$allocator@U?$pair@$$CBVString@ctk@@PAVUnit@ntv@pml@2@@std@@@7@$0A@@std@@@2@@Z 100487b0 f i ntv_unit.obj
 0001:000477d0       ?destroy@?$allocator@PAU_Node@?$_Tree_nod@V?$_Tmap_traits@VString@ctk@@PAVUnit@ntv@pml@2@U?$less@VString@ctk@@@std@@V?$allocator@U?$pair@$$CBVString@ctk@@PAVUnit@ntv@pml@2@@std@@@7@$0A@@std@@@std@@@std@@QAEXPAPAU_Node@?$_Tree_nod@V?$_Tmap_traits@VString@ctk@@PAVUnit@ntv@pml@2@U?$less@VString@ctk@@@std@@V?$allocator@U?$pair@$$CBVString@ctk@@PAVUnit@ntv@pml@2@@std@@@7@$0A@@std@@@2@@Z 100487d0 f i ntv_unit.obj
 0001:000477f0       ?end@?$deque@PBVUnit@ntv@pml@ctk@@V?$allocator@PBVUnit@ntv@pml@ctk@@@std@@@std@@QAE?AV?$_Deque_iterator@PBVUnit@ntv@pml@ctk@@V?$allocator@PBVUnit@ntv@pml@ctk@@@std@@$00@2@XZ 100487f0 f i ntv_unit.obj
 0001:00047820       ?_Growmap@?$deque@PBVUnit@ntv@pml@ctk@@V?$allocator@PBVUnit@ntv@pml@ctk@@@std@@@std@@IAEXI@Z 10048820 f i ntv_unit.obj
 0001:00047a50       ??0?$_Deque_val@PBVUnit@ntv@pml@ctk@@V?$allocator@PBVUnit@ntv@pml@ctk@@@std@@@std@@IAE@V?$allocator@PBVUnit@ntv@pml@ctk@@@1@@Z 10048a50 f i ntv_unit.obj
 0001:00047ac0       ??0?$allocator@PBVUnit@ntv@pml@ctk@@@std@@QAE@XZ 10048ac0 f i ntv_unit.obj
 0001:00047ad0       ?deallocate@?$allocator@PBVUnit@ntv@pml@ctk@@@std@@QAEXPAPBVUnit@ntv@pml@ctk@@I@Z 10048ad0 f i ntv_unit.obj
 0001:00047af0       ?allocate@?$allocator@PBVUnit@ntv@pml@ctk@@@std@@QAEPAPBVUnit@ntv@pml@ctk@@I@Z 10048af0 f i ntv_unit.obj
 0001:00047b10       ?construct@?$allocator@PBVUnit@ntv@pml@ctk@@@std@@QAEXPAPBVUnit@ntv@pml@ctk@@ABQBV3456@@Z 10048b10 f i ntv_unit.obj
 0001:00047b30       ?destroy@?$allocator@PBVUnit@ntv@pml@ctk@@@std@@QAEXPAPBVUnit@ntv@pml@ctk@@@Z 10048b30 f i ntv_unit.obj
 0001:00047b50       ?deallocate@?$allocator@PAPBVUnit@ntv@pml@ctk@@@std@@QAEXPAPAPBVUnit@ntv@pml@ctk@@I@Z 10048b50 f i ntv_unit.obj
 0001:00047b70       ?destroy@?$allocator@PAPBVUnit@ntv@pml@ctk@@@std@@QAEXPAPAPBVUnit@ntv@pml@ctk@@@Z 10048b70 f i ntv_unit.obj
 0001:00047b90       ??Fconst_iterator@?$_Tree@V?$_Tmap_traits@VString@ctk@@PAVUnit@ntv@pml@2@U?$less@VString@ctk@@@std@@V?$allocator@U?$pair@$$CBVString@ctk@@PAVUnit@ntv@pml@2@@std@@@7@$0A@@std@@@std@@QAEAAV012@XZ 10048b90 f i ntv_unit.obj
 0001:00047bb0       ??D?$_Deque_iterator@PBVUnit@ntv@pml@ctk@@V?$allocator@PBVUnit@ntv@pml@ctk@@@std@@$00@std@@QBEAAPBVUnit@ntv@pml@ctk@@XZ 10048bb0 f i ntv_unit.obj
 0001:00047bd0       ??G?$_Deque_iterator@PBVUnit@ntv@pml@ctk@@V?$allocator@PBVUnit@ntv@pml@ctk@@@std@@$00@std@@QBE?AV01@H@Z 10048bd0 f i ntv_unit.obj
 0001:00047c10       ?_Make_iter@?$_Tree@V?$_Tmap_traits@VString@ctk@@PAVUnit@ntv@pml@2@U?$less@VString@ctk@@@std@@V?$allocator@U?$pair@$$CBVString@ctk@@PAVUnit@ntv@pml@2@@std@@@7@$0A@@std@@@std@@QBE?AViterator@12@Vconst_iterator@12@@Z 10048c10 f i ntv_unit.obj
 0001:00047c40       ?erase@?$_Tree@V?$_Tmap_traits@VString@ctk@@PAVUnit@ntv@pml@2@U?$less@VString@ctk@@@std@@V?$allocator@U?$pair@$$CBVString@ctk@@PAVUnit@ntv@pml@2@@std@@@7@$0A@@std@@@std@@QAE?AViterator@12@Vconst_iterator@12@@Z 10048c40 f i ntv_unit.obj
 0001:00048420       ?_Buynode@?$_Tree@V?$_Tmap_traits@VString@ctk@@PAVUnit@ntv@pml@2@U?$less@VString@ctk@@@std@@V?$allocator@U?$pair@$$CBVString@ctk@@PAVUnit@ntv@pml@2@@std@@@7@$0A@@std@@@std@@IAEPAU_Node@?$_Tree_nod@V?$_Tmap_traits@VString@ctk@@PAVUnit@ntv@pml@2@U?$less@VString@ctk@@@std@@V?$allocator@U?$pair@$$CBVString@ctk@@PAVUnit@ntv@pml@2@@std@@@7@$0A@@std@@@2@XZ 10049420 f i ntv_unit.obj
 0001:00048590       ??0?$_Tree_ptr@V?$_Tmap_traits@VString@ctk@@PAVUnit@ntv@pml@2@U?$less@VString@ctk@@@std@@V?$allocator@U?$pair@$$CBVString@ctk@@PAVUnit@ntv@pml@2@@std@@@7@$0A@@std@@@std@@IAE@ABU?$less@VString@ctk@@@1@V?$allocator@U?$pair@$$CBVString@ctk@@PAVUnit@ntv@pml@2@@std@@@1@@Z 10049590 f i ntv_unit.obj
 0001:00048610       ?max_size@?$allocator@U?$pair@$$CBVString@ctk@@PAVUnit@ntv@pml@2@@std@@@std@@QBEIXZ 10049610 f i ntv_unit.obj
 0001:00048640       ?allocate@?$allocator@U_Node@?$_Tree_nod@V?$_Tmap_traits@VString@ctk@@PAVUnit@ntv@pml@2@U?$less@VString@ctk@@@std@@V?$allocator@U?$pair@$$CBVString@ctk@@PAVUnit@ntv@pml@2@@std@@@7@$0A@@std@@@std@@@std@@QAEPAU_Node@?$_Tree_nod@V?$_Tmap_traits@VString@ctk@@PAVUnit@ntv@pml@2@U?$less@VString@ctk@@@std@@V?$allocator@U?$pair@$$CBVString@ctk@@PAVUnit@ntv@pml@2@@std@@@7@$0A@@std@@@2@I@Z 10049640 f i ntv_unit.obj
 0001:00048660       ?max_size@?$deque@PBVUnit@ntv@pml@ctk@@V?$allocator@PBVUnit@ntv@pml@ctk@@@std@@@std@@QBEIXZ 10049660 f i ntv_unit.obj
 0001:00048680       ?_Xlen@?$deque@PBVUnit@ntv@pml@ctk@@V?$allocator@PBVUnit@ntv@pml@ctk@@@std@@@std@@KAXXZ 10049680 f i ntv_unit.obj
 0001:00048700       ??0?$_Deque_map@PBVUnit@ntv@pml@ctk@@V?$allocator@PBVUnit@ntv@pml@ctk@@@std@@@std@@IAE@V?$allocator@PBVUnit@ntv@pml@ctk@@@1@@Z 10049700 f i ntv_unit.obj
 0001:00048770       ??0?$allocator@PBVUnit@ntv@pml@ctk@@@std@@QAE@ABV01@@Z 10049770 f i ntv_unit.obj
 0001:00048780       ?allocate@?$allocator@PAPBVUnit@ntv@pml@ctk@@@std@@QAEPAPAPBVUnit@ntv@pml@ctk@@I@Z 10049780 f i ntv_unit.obj
 0001:000487a0       ??Econst_iterator@?$_Tree@V?$_Tmap_traits@VString@ctk@@PAVUnit@ntv@pml@2@U?$less@VString@ctk@@@std@@V?$allocator@U?$pair@$$CBVString@ctk@@PAVUnit@ntv@pml@2@@std@@@7@$0A@@std@@@std@@QAE?AV012@H@Z 100497a0 f i ntv_unit.obj
 0001:000487e0       ?_Dec@const_iterator@?$_Tree@V?$_Tmap_traits@VString@ctk@@PAVUnit@ntv@pml@2@U?$less@VString@ctk@@@std@@V?$allocator@U?$pair@$$CBVString@ctk@@PAVUnit@ntv@pml@2@@std@@@7@$0A@@std@@@std@@QAEXXZ 100497e0 f i ntv_unit.obj
 0001:00048910       ??0_Node@?$_Tree_nod@V?$_Tmap_traits@VString@ctk@@PAVUnit@ntv@pml@2@U?$less@VString@ctk@@@std@@V?$allocator@U?$pair@$$CBVString@ctk@@PAVUnit@ntv@pml@2@@std@@@7@$0A@@std@@@std@@QAE@PAU012@00ABU?$pair@$$CBVString@ctk@@PAVUnit@ntv@pml@2@@2@D@Z 10049910 f i ntv_unit.obj
 0001:000489a0       ??0?$_Deque_iterator@PBVUnit@ntv@pml@ctk@@V?$allocator@PBVUnit@ntv@pml@ctk@@@std@@$00@std@@QAE@IPBV_Container_base_aux@1@@Z 100499a0 f i ntv_unit.obj
 0001:000489c0       ??Z?$_Deque_iterator@PBVUnit@ntv@pml@ctk@@V?$allocator@PBVUnit@ntv@pml@ctk@@@std@@$00@std@@QAEAAV01@H@Z 100499c0 f i ntv_unit.obj
 0001:000489e0       ??D?$_Deque_const_iterator@PBVUnit@ntv@pml@ctk@@V?$allocator@PBVUnit@ntv@pml@ctk@@@std@@$00@std@@QBEABQBVUnit@ntv@pml@ctk@@XZ 100499e0 f i ntv_unit.obj
 0001:00048a90       ??0?$pair@$$CBVString@ctk@@PAVUnit@ntv@pml@2@@std@@QAE@ABU01@@Z 10049a90 f i ntv_unit.obj
 0001:00048af0       ?_Max@?$_Tree@V?$_Tmap_traits@VString@ctk@@PAVUnit@ntv@pml@2@U?$less@VString@ctk@@@std@@V?$allocator@U?$pair@$$CBVString@ctk@@PAVUnit@ntv@pml@2@@std@@@7@$0A@@std@@@std@@KAPAU_Node@?$_Tree_nod@V?$_Tmap_traits@VString@ctk@@PAVUnit@ntv@pml@2@U?$less@VString@ctk@@@std@@V?$allocator@U?$pair@$$CBVString@ctk@@PAVUnit@ntv@pml@2@@std@@@7@$0A@@std@@@2@PAU342@@Z 10049af0 f i ntv_unit.obj
 0001:00048b30       ?_Min@?$_Tree@V?$_Tmap_traits@VString@ctk@@PAVUnit@ntv@pml@2@U?$less@VString@ctk@@@std@@V?$allocator@U?$pair@$$CBVString@ctk@@PAVUnit@ntv@pml@2@@std@@@7@$0A@@std@@@std@@KAPAU_Node@?$_Tree_nod@V?$_Tmap_traits@VString@ctk@@PAVUnit@ntv@pml@2@U?$less@VString@ctk@@@std@@V?$allocator@U?$pair@$$CBVString@ctk@@PAVUnit@ntv@pml@2@@std@@@7@$0A@@std@@@2@PAU342@@Z 10049b30 f i ntv_unit.obj
 0001:00048b70       ??0?$_Tree_nod@V?$_Tmap_traits@VString@ctk@@PAVUnit@ntv@pml@2@U?$less@VString@ctk@@@std@@V?$allocator@U?$pair@$$CBVString@ctk@@PAVUnit@ntv@pml@2@@std@@@7@$0A@@std@@@std@@IAE@ABU?$less@VString@ctk@@@1@V?$allocator@U?$pair@$$CBVString@ctk@@PAVUnit@ntv@pml@2@@std@@@1@@Z 10049b70 f i ntv_unit.obj
 0001:00048bf0       ?construct@?$allocator@PAU_Node@?$_Tree_nod@V?$_Tmap_traits@VString@ctk@@PAVUnit@ntv@pml@2@U?$less@VString@ctk@@@std@@V?$allocator@U?$pair@$$CBVString@ctk@@PAVUnit@ntv@pml@2@@std@@@7@$0A@@std@@@std@@@std@@QAEXPAPAU_Node@?$_Tree_nod@V?$_Tmap_traits@VString@ctk@@PAVUnit@ntv@pml@2@U?$less@VString@ctk@@@std@@V?$allocator@U?$pair@$$CBVString@ctk@@PAVUnit@ntv@pml@2@@std@@@7@$0A@@std@@@2@ABQAU342@@Z 10049bf0 f i ntv_unit.obj
 0001:00048c10       ??0?$_Container_base_aux_alloc_real@V?$allocator@PBVUnit@ntv@pml@ctk@@@std@@@std@@IAE@V?$allocator@PBVUnit@ntv@pml@ctk@@@1@@Z 10049c10 f i ntv_unit.obj
 0001:00048cd0       ?max_size@?$allocator@PBVUnit@ntv@pml@ctk@@@std@@QBEIXZ 10049cd0 f i ntv_unit.obj
 0001:00048d00       ??Econst_iterator@?$_Tree@V?$_Tmap_traits@VString@ctk@@PAVUnit@ntv@pml@2@U?$less@VString@ctk@@@std@@V?$allocator@U?$pair@$$CBVString@ctk@@PAVUnit@ntv@pml@2@@std@@@7@$0A@@std@@@std@@QAEAAV012@XZ 10049d00 f i ntv_unit.obj
 0001:00048d20       ??Y?$_Deque_iterator@PBVUnit@ntv@pml@ctk@@V?$allocator@PBVUnit@ntv@pml@ctk@@@std@@$00@std@@QAEAAV01@H@Z 10049d20 f i ntv_unit.obj
 0001:00048d40       ??0?$_Deque_const_iterator@PBVUnit@ntv@pml@ctk@@V?$allocator@PBVUnit@ntv@pml@ctk@@@std@@$00@std@@QAE@IPBV_Container_base_aux@1@@Z 10049d40 f i ntv_unit.obj
 0001:00048db0       ??0?$_Ranit@PBVUnit@ntv@pml@ctk@@HPBQBV1234@ABQBV1234@@std@@QAE@XZ 10049db0 f i ntv_unit.obj
 0001:00048dd0       ??0?$_Iterator_with_base@Urandom_access_iterator_tag@std@@PBVUnit@ntv@pml@ctk@@HPBQBV3456@ABQBV3456@V_Iterator_base_aux@2@@std@@QAE@XZ 10049dd0 f i ntv_unit.obj
 0001:00048df0       ??0?$_Tmap_traits@VString@ctk@@PAVUnit@ntv@pml@2@U?$less@VString@ctk@@@std@@V?$allocator@U?$pair@$$CBVString@ctk@@PAVUnit@ntv@pml@2@@std@@@7@$0A@@std@@QAE@U?$less@VString@ctk@@@1@V?$allocator@U?$pair@$$CBVString@ctk@@PAVUnit@ntv@pml@2@@std@@@1@@Z 10049df0 f i ntv_unit.obj
 0001:00048e60       ?_Inc@const_iterator@?$_Tree@V?$_Tmap_traits@VString@ctk@@PAVUnit@ntv@pml@2@U?$less@VString@ctk@@@std@@V?$allocator@U?$pair@$$CBVString@ctk@@PAVUnit@ntv@pml@2@@std@@@7@$0A@@std@@@std@@QAEXXZ 10049e60 f i ntv_unit.obj
 0001:00048f40       ??Y?$_Deque_const_iterator@PBVUnit@ntv@pml@ctk@@V?$allocator@PBVUnit@ntv@pml@ctk@@@std@@$00@std@@QAEAAV01@H@Z 10049f40 f i ntv_unit.obj
 0001:00048fe0       ??0?$_Container_base_aux_alloc_real@V?$allocator@U?$pair@$$CBVString@ctk@@PAVUnit@ntv@pml@2@@std@@@std@@@std@@IAE@V?$allocator@U?$pair@$$CBVString@ctk@@PAVUnit@ntv@pml@2@@std@@@1@@Z 10049fe0 f i ntv_unit.obj
 0001:000490a0       ??$allocate@VListValue@ntv@pml@ctk@@PAVUnit@234@@ctk@@YAPAVListValue@ntv@pml@0@PBDI0ABQAVUnit@230@@Z 1004a0a0 f i ntv_unit.obj
 0001:000490e0       ??$allocate@VUnit@ntv@pml@ctk@@PAVStringValue@234@PAV1234@@ctk@@YAPAVUnit@ntv@pml@0@PBDI0ABQAVStringValue@230@ABQAV1230@@Z 1004a0e0 f i ntv_unit.obj
 0001:00049120       ??$destroy@VListValue@ntv@pml@ctk@@@ctk@@YAXAAPAVListValue@ntv@pml@0@PBDI1@Z 1004a120 f i ntv_unit.obj
 0001:00049160       ??$allocate@VUnit@ntv@pml@ctk@@Uistr@4@@ctk@@YAPAVUnit@ntv@pml@0@PBDI0ABUistr@0@@Z 1004a160 f i ntv_unit.obj
 0001:000491a0       ??$allocate@VUnit@ntv@pml@ctk@@Uistr@4@U54@U54@@ctk@@YAPAVUnit@ntv@pml@0@PBDI0ABUistr@0@11@Z 1004a1a0 f i ntv_unit.obj
 0001:000491e0       ??$?6_N@ctk@@YAAAVString@0@AAV10@AB_N@Z 1004a1e0 f i ntv_unit.obj
 0001:00049200       ??$?6E@ctk@@YAAAVString@0@AAV10@ABE@Z 1004a200 f i ntv_unit.obj
 0001:00049220       ??$?6_K@ctk@@YAAAVString@0@AAV10@AB_K@Z 1004a220 f i ntv_unit.obj
 0001:00049240       ??$?6M@ctk@@YAAAVString@0@AAV10@ABM@Z 1004a240 f i ntv_unit.obj
 0001:00049260       ??$?6N@ctk@@YAAAVString@0@AAV10@ABN@Z 1004a260 f i ntv_unit.obj
 0001:00049280       ??$?6VShort@ctk@@@ctk@@YAAAVString@0@AAV10@ABVShort@0@@Z 1004a280 f i ntv_unit.obj
 0001:000492a0       ??$?6VLong@ctk@@@ctk@@YAAAVString@0@AAV10@ABVLong@0@@Z 1004a2a0 f i ntv_unit.obj
 0001:000492c0       ??$?6VLonglong@ctk@@@ctk@@YAAAVString@0@AAV10@ABVLonglong@0@@Z 1004a2c0 f i ntv_unit.obj
 0001:000492e0       ??$?6VUshort@ctk@@@ctk@@YAAAVString@0@AAV10@ABVUshort@0@@Z 1004a2e0 f i ntv_unit.obj
 0001:00049300       ??$?6VUlong@ctk@@@ctk@@YAAAVString@0@AAV10@ABVUlong@0@@Z 1004a300 f i ntv_unit.obj
 0001:00049320       ??$?5_N@ctk@@YA_NABVString@0@AA_N@Z 1004a320 f i ntv_unit.obj
 0001:000493e0       ??$?5D@ctk@@YA_NABVString@0@AAD@Z 1004a3e0 f i ntv_unit.obj
 0001:000494a0       ??$?5E@ctk@@YA_NABVString@0@AAE@Z 1004a4a0 f i ntv_unit.obj
 0001:00049560       ??$?5H@ctk@@YA_NABVString@0@AAH@Z 1004a560 f i ntv_unit.obj
 0001:00049620       ??$?5I@ctk@@YA_NABVString@0@AAI@Z 1004a620 f i ntv_unit.obj
 0001:000496e0       ??$?5_K@ctk@@YA_NABVString@0@AA_K@Z 1004a6e0 f i ntv_unit.obj
 0001:000497a0       ??$?5M@ctk@@YA_NABVString@0@AAM@Z 1004a7a0 f i ntv_unit.obj
 0001:00049860       ??$?5N@ctk@@YA_NABVString@0@AAN@Z 1004a860 f i ntv_unit.obj
 0001:00049920       ??$allocate@VStringValue@ntv@pml@ctk@@Uistr@4@PAVUnit@234@@ctk@@YAPAVStringValue@ntv@pml@0@PBDI0ABUistr@0@ABQAVUnit@230@@Z 1004a920 f i ntv_unit.obj
 0001:00049960       ??$destroy@VValueBase@ntv@pml@ctk@@@ctk@@YAXAAPAVValueBase@ntv@pml@0@PBDI1@Z 1004a960 f i ntv_unit.obj
 0001:000499a0       ??$?0VString@ctk@@PAVUnit@ntv@pml@1@@?$pair@$$CBVString@ctk@@PAVUnit@ntv@pml@2@@std@@QAE@ABU?$pair@VString@ctk@@PAVUnit@ntv@pml@2@@1@@Z 1004a9a0 f i ntv_unit.obj
 0001:00049a00       ??$?6VValueBase@ntv@pml@ctk@@@ctk@@YAAAVdumper@0@AAV10@ABVValueBase@ntv@pml@0@@Z 1004aa00 f i ntv_unit.obj
 0001:00049a20       ??$_Destroy@U_Node@?$_Tree_nod@V?$_Tmap_traits@VString@ctk@@PAVUnit@ntv@pml@2@U?$less@VString@ctk@@@std@@V?$allocator@U?$pair@$$CBVString@ctk@@PAVUnit@ntv@pml@2@@std@@@7@$0A@@std@@@std@@@std@@YAXPAU_Node@?$_Tree_nod@V?$_Tmap_traits@VString@ctk@@PAVUnit@ntv@pml@2@U?$less@VString@ctk@@@std@@V?$allocator@U?$pair@$$CBVString@ctk@@PAVUnit@ntv@pml@2@@std@@@7@$0A@@std@@@0@@Z 1004aa20 f i ntv_unit.obj
 0001:00049a30       ??$_Destroy@PAU_Node@?$_Tree_nod@V?$_Tmap_traits@VString@ctk@@PAVUnit@ntv@pml@2@U?$less@VString@ctk@@@std@@V?$allocator@U?$pair@$$CBVString@ctk@@PAVUnit@ntv@pml@2@@std@@@7@$0A@@std@@@std@@@std@@YAXPAPAU_Node@?$_Tree_nod@V?$_Tmap_traits@VString@ctk@@PAVUnit@ntv@pml@2@U?$less@VString@ctk@@@std@@V?$allocator@U?$pair@$$CBVString@ctk@@PAVUnit@ntv@pml@2@@std@@@7@$0A@@std@@@0@@Z 1004aa30 f i ntv_unit.obj
 0001:00049a40       ??$unchecked_uninitialized_copy@PAPAPBVUnit@ntv@pml@ctk@@PAPAPBV1234@V?$allocator@PAPBVUnit@ntv@pml@ctk@@@std@@@stdext@@YAPAPAPBVUnit@ntv@pml@ctk@@PAPAPBV1234@00AAV?$allocator@PAPBVUnit@ntv@pml@ctk@@@std@@@Z 1004aa40 f i ntv_unit.obj
 0001:00049aa0       ??$unchecked_uninitialized_fill_n@PAPAPBVUnit@ntv@pml@ctk@@IPAPBV1234@V?$allocator@PAPBVUnit@ntv@pml@ctk@@@std@@@stdext@@YAXPAPAPBVUnit@ntv@pml@ctk@@IABQAPBV1234@AAV?$allocator@PAPBVUnit@ntv@pml@ctk@@@std@@@Z 1004aaa0 f i ntv_unit.obj
 0001:00049af0       ??$_Destroy_range@V?$allocator@PAPBVUnit@ntv@pml@ctk@@@std@@@std@@YAXPAPAPBVUnit@ntv@pml@ctk@@0AAV?$allocator@PAPBVUnit@ntv@pml@ctk@@@0@@Z 1004aaf0 f i ntv_unit.obj
 0001:00049b30       ??$_Allocate@PBVUnit@ntv@pml@ctk@@@std@@YAPAPBVUnit@ntv@pml@ctk@@IPAPBV1234@@Z 1004ab30 f i ntv_unit.obj
 0001:00049b80       ??$_Construct@PBVUnit@ntv@pml@ctk@@PBV1234@@std@@YAXPAPBVUnit@ntv@pml@ctk@@ABQBV1234@@Z 1004ab80 f i ntv_unit.obj
 0001:00049bc0       ??$_Destroy@PBVUnit@ntv@pml@ctk@@@std@@YAXPAPBVUnit@ntv@pml@ctk@@@Z 1004abc0 f i ntv_unit.obj
 0001:00049bd0       ??$_Destroy@PAPBVUnit@ntv@pml@ctk@@@std@@YAXPAPAPBVUnit@ntv@pml@ctk@@@Z 1004abd0 f i ntv_unit.obj
 0001:00049be0       ??$?0U?$pair@$$CBVString@ctk@@PAVUnit@ntv@pml@2@@std@@@?$allocator@PAU_Node@?$_Tree_nod@V?$_Tmap_traits@VString@ctk@@PAVUnit@ntv@pml@2@U?$less@VString@ctk@@@std@@V?$allocator@U?$pair@$$CBVString@ctk@@PAVUnit@ntv@pml@2@@std@@@7@$0A@@std@@@std@@@std@@QAE@ABV?$allocator@U?$pair@$$CBVString@ctk@@PAVUnit@ntv@pml@2@@std@@@1@@Z 1004abe0 f i ntv_unit.obj
 0001:00049bf0       ??$_Allocate@U_Node@?$_Tree_nod@V?$_Tmap_traits@VString@ctk@@PAVUnit@ntv@pml@2@U?$less@VString@ctk@@@std@@V?$allocator@U?$pair@$$CBVString@ctk@@PAVUnit@ntv@pml@2@@std@@@7@$0A@@std@@@std@@@std@@YAPAU_Node@?$_Tree_nod@V?$_Tmap_traits@VString@ctk@@PAVUnit@ntv@pml@2@U?$less@VString@ctk@@@std@@V?$allocator@U?$pair@$$CBVString@ctk@@PAVUnit@ntv@pml@2@@std@@@7@$0A@@std@@@0@IPAU120@@Z 1004abf0 f i ntv_unit.obj
 0001:00049c40       ??$?0PBVUnit@ntv@pml@ctk@@@?$allocator@PAPBVUnit@ntv@pml@ctk@@@std@@QAE@ABV?$allocator@PBVUnit@ntv@pml@ctk@@@1@@Z 1004ac40 f i ntv_unit.obj
 0001:00049c50       ??$_Allocate@PAPBVUnit@ntv@pml@ctk@@@std@@YAPAPAPBVUnit@ntv@pml@ctk@@IPAPAPBV1234@@Z 1004ac50 f i ntv_unit.obj
 0001:00049ca0       ??$?0U?$pair@$$CBVString@ctk@@PAVUnit@ntv@pml@2@@std@@@?$allocator@U_Node@?$_Tree_nod@V?$_Tmap_traits@VString@ctk@@PAVUnit@ntv@pml@2@U?$less@VString@ctk@@@std@@V?$allocator@U?$pair@$$CBVString@ctk@@PAVUnit@ntv@pml@2@@std@@@7@$0A@@std@@@std@@@std@@QAE@ABV?$allocator@U?$pair@$$CBVString@ctk@@PAVUnit@ntv@pml@2@@std@@@1@@Z 1004aca0 f i ntv_unit.obj
 0001:00049cb0       ??$_Construct@PAU_Node@?$_Tree_nod@V?$_Tmap_traits@VString@ctk@@PAVUnit@ntv@pml@2@U?$less@VString@ctk@@@std@@V?$allocator@U?$pair@$$CBVString@ctk@@PAVUnit@ntv@pml@2@@std@@@7@$0A@@std@@@std@@PAU123@@std@@YAXPAPAU_Node@?$_Tree_nod@V?$_Tmap_traits@VString@ctk@@PAVUnit@ntv@pml@2@U?$less@VString@ctk@@@std@@V?$allocator@U?$pair@$$CBVString@ctk@@PAVUnit@ntv@pml@2@@std@@@7@$0A@@std@@@0@ABQAU120@@Z 1004acb0 f i ntv_unit.obj
 0001:00049cf0       ??$?0PBVUnit@ntv@pml@ctk@@@?$allocator@V_Aux_cont@std@@@std@@QAE@ABV?$allocator@PBVUnit@ntv@pml@ctk@@@1@@Z 1004acf0 f i ntv_unit.obj
 0001:00049d00       ??$?0U?$pair@$$CBVString@ctk@@PAVUnit@ntv@pml@2@@std@@@?$allocator@V_Aux_cont@std@@@std@@QAE@ABV?$allocator@U?$pair@$$CBVString@ctk@@PAVUnit@ntv@pml@2@@std@@@1@@Z 1004ad00 f i ntv_unit.obj
 0001:00049d10       ??_G_Node@?$_Tree_nod@V?$_Tmap_traits@VString@ctk@@PAVUnit@ntv@pml@2@U?$less@VString@ctk@@@std@@V?$allocator@U?$pair@$$CBVString@ctk@@PAVUnit@ntv@pml@2@@std@@@7@$0A@@std@@@std@@QAEPAXI@Z 1004ad10 f i ntv_unit.obj
 0001:00049d40       ??1_Node@?$_Tree_nod@V?$_Tmap_traits@VString@ctk@@PAVUnit@ntv@pml@2@U?$less@VString@ctk@@@std@@V?$allocator@U?$pair@$$CBVString@ctk@@PAVUnit@ntv@pml@2@@std@@@7@$0A@@std@@@std@@QAE@XZ 1004ad40 f i ntv_unit.obj
 0001:00049d90       ??$allocate_no_mlc@VListValue@ntv@pml@ctk@@PAVUnit@234@@ctk@@YAPAVListValue@ntv@pml@0@PBDI0ABQAVUnit@230@@Z 1004ad90 f i ntv_unit.obj
 0001:00049e20       ??$allocate_no_mlc@VUnit@ntv@pml@ctk@@PAVStringValue@234@PAV1234@@ctk@@YAPAVUnit@ntv@pml@0@PBDI0ABQAVStringValue@230@ABQAV1230@@Z 1004ae20 f i ntv_unit.obj
 0001:00049eb0       ??$destroy_pop_maybe@VListValue@ntv@pml@ctk@@@ctk@@YAXPAVListValue@ntv@pml@0@PBDI1@Z 1004aeb0 f i ntv_unit.obj
 0001:00049ee0       ??$destroy_no_mlc@VListValue@ntv@pml@ctk@@@ctk@@YAXAAPAVListValue@ntv@pml@0@PBDI1@Z 1004aee0 f i ntv_unit.obj
 0001:00049f30       ??$allocate_no_mlc@VUnit@ntv@pml@ctk@@Uistr@4@@ctk@@YAPAVUnit@ntv@pml@0@PBDI0ABUistr@0@@Z 1004af30 f i ntv_unit.obj
 0001:00049fd0       ??$allocate_no_mlc@VUnit@ntv@pml@ctk@@Uistr@4@U54@U54@@ctk@@YAPAVUnit@ntv@pml@0@PBDI0ABUistr@0@11@Z 1004afd0 f i ntv_unit.obj
 0001:0004a090       ??$?Y_N@String@ctk@@QAEAAV01@AB_N@Z 1004b090 f i ntv_unit.obj
 0001:0004a170       ??$?Y_K@String@ctk@@QAEAAV01@AB_K@Z 1004b170 f i ntv_unit.obj
 0001:0004a250       ??$?YM@String@ctk@@QAEAAV01@ABM@Z 1004b250 f i ntv_unit.obj
 0001:0004a330       ??$?YN@String@ctk@@QAEAAV01@ABN@Z 1004b330 f i ntv_unit.obj
 0001:0004a410       ??$?YVShort@ctk@@@String@ctk@@QAEAAV01@ABVShort@1@@Z 1004b410 f i ntv_unit.obj
 0001:0004a4f0       ??6ctk@@YAAAV?$basic_ostream@DU?$char_traits@D@std@@@std@@AAV12@ABVShort@0@@Z 1004b4f0 f i ntv_unit.obj
 0001:0004a510       ??$?YVLong@ctk@@@String@ctk@@QAEAAV01@ABVLong@1@@Z 1004b510 f i ntv_unit.obj
 0001:0004a5f0       ??6ctk@@YAAAV?$basic_ostream@DU?$char_traits@D@std@@@std@@AAV12@ABVLong@0@@Z 1004b5f0 f i ntv_unit.obj
 0001:0004a610       ??$?YVLonglong@ctk@@@String@ctk@@QAEAAV01@ABVLonglong@1@@Z 1004b610 f i ntv_unit.obj
 0001:0004a6f0       ??6ctk@@YAAAV?$basic_ostream@DU?$char_traits@D@std@@@std@@AAV12@ABVLonglong@0@@Z 1004b6f0 f i ntv_unit.obj
 0001:0004a710       ??$?YVUshort@ctk@@@String@ctk@@QAEAAV01@ABVUshort@1@@Z 1004b710 f i ntv_unit.obj
 0001:0004a7f0       ??6ctk@@YAAAV?$basic_ostream@DU?$char_traits@D@std@@@std@@AAV12@ABVUshort@0@@Z 1004b7f0 f i ntv_unit.obj
 0001:0004a810       ??$?YVUlong@ctk@@@String@ctk@@QAEAAV01@ABVUlong@1@@Z 1004b810 f i ntv_unit.obj
 0001:0004a8f0       ??6ctk@@YAAAV?$basic_ostream@DU?$char_traits@D@std@@@std@@AAV12@ABVUlong@0@@Z 1004b8f0 f i ntv_unit.obj
 0001:0004a910       ??$allocate_no_mlc@VStringValue@ntv@pml@ctk@@Uistr@4@PAVUnit@234@@ctk@@YAPAVStringValue@ntv@pml@0@PBDI0ABUistr@0@ABQAVUnit@230@@Z 1004b910 f i ntv_unit.obj
 0001:0004a9b0       ??$destroy_pop_maybe@VValueBase@ntv@pml@ctk@@@ctk@@YAXPAVValueBase@ntv@pml@0@PBDI1@Z 1004b9b0 f i ntv_unit.obj
 0001:0004a9e0       ??$destroy_no_mlc@VValueBase@ntv@pml@ctk@@@ctk@@YAXAAPAVValueBase@ntv@pml@0@PBDI1@Z 1004b9e0 f i ntv_unit.obj
 0001:0004aa30       ??$_Checked_base@PAPAPBVUnit@ntv@pml@ctk@@@std@@YAPAPAPBVUnit@ntv@pml@ctk@@AAPAPAPBV1234@@Z 1004ba30 f i ntv_unit.obj
 0001:0004aa50       ??$_Ptr_cat@PAPAPBVUnit@ntv@pml@ctk@@PAPAPBV1234@@std@@YA?AU_Scalar_ptr_iterator_tag@0@AAPAPAPBVUnit@ntv@pml@ctk@@0@Z 1004ba50 f i ntv_unit.obj
 0001:0004aa60       ??$_Uninit_copy@PAPAPBVUnit@ntv@pml@ctk@@PAPAPBV1234@V?$allocator@PAPBVUnit@ntv@pml@ctk@@@std@@@std@@YAPAPAPBVUnit@ntv@pml@ctk@@PAPAPBV1234@00AAV?$allocator@PAPBVUnit@ntv@pml@ctk@@@0@U_Scalar_ptr_iterator_tag@0@U_Range_checked_iterator_tag@0@@Z 1004ba60 f i ntv_unit.obj
 0001:0004aab0       ??$_Uninit_fill_n@PAPAPBVUnit@ntv@pml@ctk@@IPAPBV1234@V?$allocator@PAPBVUnit@ntv@pml@ctk@@@std@@@std@@YAXPAPAPBVUnit@ntv@pml@ctk@@IABQAPBV1234@AAV?$allocator@PAPBVUnit@ntv@pml@ctk@@@0@U_Scalar_ptr_iterator_tag@0@U_Range_checked_iterator_tag@0@@Z 1004bab0 f i ntv_unit.obj
 0001:0004aad0       ??$_Destroy_range@V?$allocator@PAPBVUnit@ntv@pml@ctk@@@std@@@std@@YAXPAPAPBVUnit@ntv@pml@ctk@@0AAV?$allocator@PAPBVUnit@ntv@pml@ctk@@@0@U_Scalar_ptr_iterator_tag@0@@Z 1004bad0 f i ntv_unit.obj
 0001:0004aae0       ??$_Checked_base@PAPAPBVUnit@ntv@pml@ctk@@@std@@YAPAPAPBVUnit@ntv@pml@ctk@@AAPAPAPBV1234@U_Unchanged_checked_iterator_base_type_tag@0@@Z 1004bae0 f i ntv_unit.obj
 0001:0004aaf0       ??$unchecked_fill_n@PAPAPBVUnit@ntv@pml@ctk@@IPAPBV1234@@stdext@@YAXPAPAPBVUnit@ntv@pml@ctk@@IABQAPBV1234@@Z 1004baf0 f i ntv_unit.obj
 0001:0004ab30       ??$_Iter_cat@PAPAPBVUnit@ntv@pml@ctk@@@std@@YA?AUrandom_access_iterator_tag@0@ABQAPAPBVUnit@ntv@pml@ctk@@@Z 1004bb30 f i ntv_unit.obj
 0001:0004ab40       ??$_Fill_n@PAPAPBVUnit@ntv@pml@ctk@@IPAPBV1234@@std@@YAXPAPAPBVUnit@ntv@pml@ctk@@IABQAPBV1234@Urandom_access_iterator_tag@0@U_Range_checked_iterator_tag@0@@Z 1004bb40 f i ntv_unit.obj
 0001:0004ab80       ??$_Fill_n@PAPAPBVUnit@ntv@pml@ctk@@IPAPBV1234@@std@@YAXPAPAPBVUnit@ntv@pml@ctk@@IABQAPBV1234@U_Range_checked_iterator_tag@0@@Z 1004bb80 f i ntv_unit.obj
 0001:0004abb0       ??0invalid_argument@std@@QAE@ABV?$basic_string@DU?$char_traits@D@std@@V?$allocator@D@2@@1@@Z 1004bbb0 f i ntv_unit.obj
 0001:0004ac10       ??1invalid_argument@std@@UAE@XZ 1004bc10 f i ntv_unit.obj
 0001:0004ac70       ??_Ginvalid_argument@std@@UAEPAXI@Z 1004bc70 f i ntv_unit.obj
 0001:0004ac70       ??_Einvalid_argument@std@@UAEPAXI@Z 1004bc70 f i ntv_unit.obj
 0001:0004aca0       ??4Byte@ctk@@QAEAAV01@E@Z  1004bca0 f i ntv_unit.obj
 0001:0004acc0       ?value@Byte@ctk@@QBEEXZ    1004bcc0 f i ntv_unit.obj
 0001:0004acd0       ??_GValueBase@ntv@pml@ctk@@UAEPAXI@Z 1004bcd0 f i ntv_valuebase.obj
 0001:0004ad00       ??_EValueBase@ntv@pml@ctk@@UAEPAXI@Z 1004bd00 f i ntv_valuebase.obj
 0001:0004ad70       ??0ValueBase@ntv@pml@ctk@@QAE@PAVUnit@123@@Z 1004bd70 f   ntv_valuebase.obj
 0001:0004ade0       ??1ValueBase@ntv@pml@ctk@@UAE@XZ 1004bde0 f   ntv_valuebase.obj
 0001:0004ae40       ?owner@ValueBase@ntv@pml@ctk@@QAEAAPAVUnit@234@XZ 1004be40 f   ntv_valuebase.obj
 0001:0004ae60       ?owner@ValueBase@ntv@pml@ctk@@QBEPBVUnit@234@XZ 1004be60 f   ntv_valuebase.obj
 0001:0004ae80       ??0DecodeException@pml@ctk@@QAE@PBDI00@Z 1004be80 f   pml_base.obj
 0001:0004aef0       ??0File@pml@ctk@@QAE@XZ    1004bef0 f   pml_base.obj
 0001:0004af40       ??0File@pml@ctk@@QAE@Uistr@2@@Z 1004bf40 f   pml_base.obj
 0001:0004afb0       ??4File@pml@ctk@@QAEAAU012@Uistr@2@@Z 1004bfb0 f   pml_base.obj
 0001:0004afe0       ?open@File@pml@ctk@@QBE_NAAV?$basic_ifstream@DU?$char_traits@D@std@@@std@@@Z 1004bfe0 f   pml_base.obj
 0001:0004b030       ?open@File@pml@ctk@@QBE_NAAV?$basic_ofstream@DU?$char_traits@D@std@@@std@@@Z 1004c030 f   pml_base.obj
 0001:0004b080       ?filename@File@pml@ctk@@QBEABVString@3@XZ 1004c080 f   pml_base.obj
 0001:0004b090       ??6pml@ctk@@YAAAV?$basic_ostream@DU?$char_traits@D@std@@@std@@AAV23@ABVShowPattern@01@@Z 1004c090 f   pml_base.obj
 0001:0004b1a0       ??6pml@ctk@@YAAAV?$basic_ostream@DU?$char_traits@D@std@@@std@@AAV23@ABVShowMode@01@@Z 1004c1a0 f   pml_base.obj
 0001:0004b240       ??0stream@pml@ctk@@QAE@XZ  1004c240 f   pml_stream.obj
 0001:0004b2b0       ??0stream@pml@ctk@@QAE@ABVUnit@ntv@12@@Z 1004c2b0 f   pml_stream.obj
 0001:0004b330       ??0stream@pml@ctk@@QAE@ABUistr@2@_N@Z 1004c330 f   pml_stream.obj
 0001:0004b3b0       ??0stream@pml@ctk@@QAE@ABUiwstr@2@_N@Z 1004c3b0 f   pml_stream.obj
 0001:0004b430       ??0stream@pml@ctk@@QAE@ABUistr@2@Ufrom_file@12@_N@Z 1004c430 f   pml_stream.obj
 0001:0004b4b0       ?from@stream@pml@ctk@@QAEXABUistr@3@_N@Z 1004c4b0 f   pml_stream.obj
 0001:0004b500       ?from@stream@pml@ctk@@QAEXABUiwstr@3@_N@Z 1004c500 f   pml_stream.obj
 0001:0004b550       ?from@stream@pml@ctk@@QAEXABUistr@3@Ufrom_file@23@_N@Z 1004c550 f   pml_stream.obj
 0001:0004b5f0       ?setAsInputStream@stream@pml@ctk@@QBEXXZ 1004c5f0 f   pml_stream.obj
 0001:0004b610       ?setAsOutputStream@stream@pml@ctk@@QBEX_N@Z 1004c610 f   pml_stream.obj
 0001:0004b640       ?isEmptyChild@stream@pml@ctk@@QBE_NABUistr@3@@Z 1004c640 f   pml_stream.obj
 0001:0004b690       ?unit@stream@pml@ctk@@QAEAAVUnit@ntv@23@XZ 1004c690 f   pml_stream.obj
 0001:0004b6a0       ?unit@stream@pml@ctk@@QBEABVUnit@ntv@23@XZ 1004c6a0 f   pml_stream.obj
 0001:0004b6b0       ??Astream@pml@ctk@@QBEABVUnit@ntv@12@ABUistr@2@@Z 1004c6b0 f   pml_stream.obj
 0001:0004b6e0       ??Astream@pml@ctk@@QAEAAVUnit@ntv@12@ABUistr@2@@Z 1004c6e0 f   pml_stream.obj
 0001:0004b710       ??Astream@pml@ctk@@QBEABVUnit@ntv@12@ABUname_id@12@@Z 1004c710 f   pml_stream.obj
 0001:0004b750       ??Astream@pml@ctk@@QAEAAVUnit@ntv@12@ABUname_id@12@@Z 1004c750 f   pml_stream.obj
 0001:0004b790       ?toPml@stream@pml@ctk@@QBE?AVString@3@_N@Z 1004c790 f   pml_stream.obj
 0001:0004b850       ?str@stream@pml@ctk@@QBE?AVString@3@VShowMode@23@VShowPattern@23@@Z 1004c850 f   pml_stream.obj
 0001:0004b8f0       ?toString@stream@pml@ctk@@QBEXAAVString@3@VShowMode@23@VShowPattern@23@@Z 1004c8f0 f   pml_stream.obj
 0001:0004b920       ??6pml@ctk@@YAAAVString@1@AAV21@ABVstream@01@@Z 1004c920 f   pml_stream.obj
 0001:0004b950       ??6pml@ctk@@YAAAV?$basic_ostream@DU?$char_traits@D@std@@@std@@AAV23@ABVstream@01@@Z 1004c950 f   pml_stream.obj
 0001:0004b980       ??6pml@ctk@@YAAAVUnit@ntv@01@AAV2301@ABVstream@01@@Z 1004c980 f   pml_stream.obj
